
build/RTOSDemo.axf:     file format elf32-littleriscv


Disassembly of section .init:

80000000 <_text>:
80000000:	a081                	j	80000040 <_start>
80000002:	0001                	nop
80000004:	0001                	nop
80000006:	0001                	nop
80000008:	0001                	nop
8000000a:	0001                	nop
8000000c:	0001                	nop
8000000e:	0001                	nop
80000010:	0001                	nop
80000012:	0001                	nop
80000014:	0001                	nop
80000016:	0001                	nop
80000018:	0001                	nop
8000001a:	0001                	nop
8000001c:	0001                	nop
8000001e:	0001                	nop

80000020 <main_entry>:
80000020:	c0002517          	auipc	a0,0xc0002
80000024:	de050513          	addi	a0,a0,-544 # 40001e00 <freertos_risc_v_trap_handler>
80000028:	8502                	jr	a0
8000002a:	00000013          	nop
8000002e:	00000013          	nop
80000032:	00000013          	nop
80000036:	00000013          	nop
8000003a:	00000013          	nop
8000003e:	0001                	nop

80000040 <_start>:
80000040:	c000d197          	auipc	gp,0xc000d
80000044:	96818193          	addi	gp,gp,-1688 # 4000c9a8 <__global_pointer$>
80000048:	f1402573          	csrr	a0,mhartid
8000004c:	4581                	li	a1,0
8000004e:	06b51363          	bne	a0,a1,800000b4 <secondary>
80000052:	c001e117          	auipc	sp,0xc001e
80000056:	0ba10113          	addi	sp,sp,186 # 4001e10c <_stack_top>
8000005a:	c000b517          	auipc	a0,0xc000b
8000005e:	7ae50513          	addi	a0,a0,1966 # 4000b808 <impure_data>
80000062:	c000b597          	auipc	a1,0xc000b
80000066:	7a658593          	addi	a1,a1,1958 # 4000b808 <impure_data>
8000006a:	82418613          	addi	a2,gp,-2012 # 4000c1cc <_bss>
8000006e:	00c5fa63          	bgeu	a1,a2,80000082 <_start+0x42>
80000072:	00052283          	lw	t0,0(a0)
80000076:	0055a023          	sw	t0,0(a1)
8000007a:	0511                	addi	a0,a0,4
8000007c:	0591                	addi	a1,a1,4
8000007e:	fec5eae3          	bltu	a1,a2,80000072 <_start+0x32>
80000082:	c000c517          	auipc	a0,0xc000c
80000086:	14a50513          	addi	a0,a0,330 # 4000c1cc <_bss>
8000008a:	c001e597          	auipc	a1,0xc001e
8000008e:	f4e58593          	addi	a1,a1,-178 # 4001dfd8 <_ebss>
80000092:	00b57763          	bgeu	a0,a1,800000a0 <_start+0x60>
80000096:	00052023          	sw	zero,0(a0)
8000009a:	0511                	addi	a0,a0,4
8000009c:	feb56de3          	bltu	a0,a1,80000096 <_start+0x56>
800000a0:	4501                	li	a0,0
800000a2:	4581                	li	a1,0
800000a4:	4601                	li	a2,0
800000a6:	c0000097          	auipc	ra,0xc0000
800000aa:	f5a080e7          	jalr	-166(ra) # 40000000 <main>
800000ae:	10500073          	wfi
800000b2:	bff5                	j	800000ae <_start+0x6e>

800000b4 <secondary>:
800000b4:	10500073          	wfi
800000b8:	bff5                	j	800000b4 <secondary>
	...

Disassembly of section .text:

40000000 <main>:
40000000:	1101                	addi	sp,sp,-32
40000002:	ce06                	sw	ra,28(sp)
40000004:	47a1                	li	a5,8
40000006:	c03e                	sw	a5,0(sp)
40000008:	c202                	sw	zero,4(sp)
4000000a:	c402                	sw	zero,8(sp)
4000000c:	03500793          	li	a5,53
40000010:	c63e                	sw	a5,12(sp)
40000012:	858a                	mv	a1,sp
40000014:	f0010537          	lui	a0,0xf0010
40000018:	2c91                	jal	4000026c <uart_applyConfig>
4000001a:	2219                	jal	40000120 <main_blinky>
4000001c:	40f2                	lw	ra,28(sp)
4000001e:	6105                	addi	sp,sp,32
40000020:	8082                	ret

40000022 <vApplicationMallocFailedHook>:
40000022:	30047073          	csrci	mstatus,8
40000026:	a001                	j	40000026 <vApplicationMallocFailedHook+0x4>

40000028 <vApplicationStackOverflowHook>:
40000028:	30047073          	csrci	mstatus,8
4000002c:	a001                	j	4000002c <vApplicationStackOverflowHook+0x4>

4000002e <vApplicationTickHook>:
4000002e:	8082                	ret

40000030 <vAssertCalled>:
40000030:	1141                	addi	sp,sp,-16
40000032:	c602                	sw	zero,12(sp)
40000034:	30047073          	csrci	mstatus,8
40000038:	a011                	j	4000003c <vAssertCalled+0xc>
4000003a:	0001                	nop
4000003c:	4732                	lw	a4,12(sp)
4000003e:	4785                	li	a5,1
40000040:	fef71de3          	bne	a4,a5,4000003a <vAssertCalled+0xa>
40000044:	0141                	addi	sp,sp,16
40000046:	8082                	ret

40000048 <prvQueueSendTask>:
40000048:	7139                	addi	sp,sp,-64
4000004a:	de06                	sw	ra,60(sp)
4000004c:	dc22                	sw	s0,56(sp)
4000004e:	da26                	sw	s1,52(sp)
40000050:	06400793          	li	a5,100
40000054:	d43e                	sw	a5,40(sp)
40000056:	64f000ef          	jal	ra,40000ea4 <xTaskGetTickCount>
4000005a:	d62a                	sw	a0,44(sp)
4000005c:	4485                	li	s1,1
4000005e:	a82d                	j	40000098 <prvQueueSendTask+0x50>
40000060:	40000717          	auipc	a4,0x40000
40000064:	07470713          	addi	a4,a4,116 # 800000d4 <_etext>
40000068:	8622                	mv	a2,s0
4000006a:	40000597          	auipc	a1,0x40000
4000006e:	08258593          	addi	a1,a1,130 # 800000ec <_etext+0x18>
40000072:	850a                	mv	a0,sp
40000074:	1a0020ef          	jal	ra,40002214 <sprintf>
40000078:	850a                	mv	a0,sp
4000007a:	2a11                	jal	4000018e <vSendString>
4000007c:	0014c493          	xori	s1,s1,1
40000080:	4585                	li	a1,1
40000082:	1068                	addi	a0,sp,44
40000084:	11e010ef          	jal	ra,400011a2 <xTaskDelayUntil>
40000088:	4681                	li	a3,0
4000008a:	4601                	li	a2,0
4000008c:	102c                	addi	a1,sp,40
4000008e:	0000c517          	auipc	a0,0xc
40000092:	14252503          	lw	a0,322(a0) # 4000c1d0 <xQueue>
40000096:	23a5                	jal	400005fe <xQueueGenericSend>
40000098:	28c5                	jal	40000188 <xGetCoreID>
4000009a:	842a                	mv	s0,a0
4000009c:	4f2010ef          	jal	ra,4000158e <xTaskGetCurrentTaskHandle>
400000a0:	60f000ef          	jal	ra,40000eae <pcTaskGetName>
400000a4:	86aa                	mv	a3,a0
400000a6:	fccd                	bnez	s1,40000060 <prvQueueSendTask+0x18>
400000a8:	40000717          	auipc	a4,0x40000
400000ac:	03870713          	addi	a4,a4,56 # 800000e0 <_etext+0xc>
400000b0:	bf65                	j	40000068 <prvQueueSendTask+0x20>

400000b2 <prvQueueReceiveTask>:
400000b2:	7139                	addi	sp,sp,-64
400000b4:	de06                	sw	ra,60(sp)
400000b6:	dc22                	sw	s0,56(sp)
400000b8:	da26                	sw	s1,52(sp)
400000ba:	4485                	li	s1,1
400000bc:	a015                	j	400000e0 <prvQueueReceiveTask+0x2e>
400000be:	40000717          	auipc	a4,0x40000
400000c2:	04270713          	addi	a4,a4,66 # 80000100 <_etext+0x2c>
400000c6:	8622                	mv	a2,s0
400000c8:	40000597          	auipc	a1,0x40000
400000cc:	02458593          	addi	a1,a1,36 # 800000ec <_etext+0x18>
400000d0:	0048                	addi	a0,sp,4
400000d2:	142020ef          	jal	ra,40002214 <sprintf>
400000d6:	0048                	addi	a0,sp,4
400000d8:	285d                	jal	4000018e <vSendString>
400000da:	0014c493          	xori	s1,s1,1
400000de:	d602                	sw	zero,44(sp)
400000e0:	567d                	li	a2,-1
400000e2:	106c                	addi	a1,sp,44
400000e4:	0000c517          	auipc	a0,0xc
400000e8:	0ec52503          	lw	a0,236(a0) # 4000c1d0 <xQueue>
400000ec:	67c000ef          	jal	ra,40000768 <xQueueReceive>
400000f0:	5732                	lw	a4,44(sp)
400000f2:	06400793          	li	a5,100
400000f6:	00f71f63          	bne	a4,a5,40000114 <prvQueueReceiveTask+0x62>
400000fa:	2079                	jal	40000188 <xGetCoreID>
400000fc:	842a                	mv	s0,a0
400000fe:	490010ef          	jal	ra,4000158e <xTaskGetCurrentTaskHandle>
40000102:	5ad000ef          	jal	ra,40000eae <pcTaskGetName>
40000106:	86aa                	mv	a3,a0
40000108:	d8dd                	beqz	s1,400000be <prvQueueReceiveTask+0xc>
4000010a:	40000717          	auipc	a4,0x40000
4000010e:	fee70713          	addi	a4,a4,-18 # 800000f8 <_etext+0x24>
40000112:	bf55                	j	400000c6 <prvQueueReceiveTask+0x14>
40000114:	40000517          	auipc	a0,0x40000
40000118:	ff450513          	addi	a0,a0,-12 # 80000108 <_etext+0x34>
4000011c:	288d                	jal	4000018e <vSendString>
4000011e:	b7c9                	j	400000e0 <prvQueueReceiveTask+0x2e>

40000120 <main_blinky>:
40000120:	1141                	addi	sp,sp,-16
40000122:	c606                	sw	ra,12(sp)
40000124:	40000517          	auipc	a0,0x40000
40000128:	00050513          	mv	a0,a0
4000012c:	208d                	jal	4000018e <vSendString>
4000012e:	4601                	li	a2,0
40000130:	4591                	li	a1,4
40000132:	4505                	li	a0,1
40000134:	21b5                	jal	400005a0 <xQueueGenericCreate>
40000136:	0000c797          	auipc	a5,0xc
4000013a:	08a7ad23          	sw	a0,154(a5) # 4000c1d0 <xQueue>
4000013e:	cd1d                	beqz	a0,4000017c <main_blinky+0x5c>
40000140:	4781                	li	a5,0
40000142:	4709                	li	a4,2
40000144:	4681                	li	a3,0
40000146:	40000613          	li	a2,1024
4000014a:	40000597          	auipc	a1,0x40000
4000014e:	fea58593          	addi	a1,a1,-22 # 80000134 <_etext+0x60>
40000152:	00000517          	auipc	a0,0x0
40000156:	f6050513          	addi	a0,a0,-160 # 400000b2 <prvQueueReceiveTask>
4000015a:	443000ef          	jal	ra,40000d9c <xTaskCreate>
4000015e:	4781                	li	a5,0
40000160:	4705                	li	a4,1
40000162:	4681                	li	a3,0
40000164:	40000613          	li	a2,1024
40000168:	40000597          	auipc	a1,0x40000
4000016c:	fd058593          	addi	a1,a1,-48 # 80000138 <_etext+0x64>
40000170:	00000517          	auipc	a0,0x0
40000174:	ed850513          	addi	a0,a0,-296 # 40000048 <prvQueueSendTask>
40000178:	425000ef          	jal	ra,40000d9c <xTaskCreate>
4000017c:	4a3000ef          	jal	ra,40000e1e <vTaskStartScheduler>
40000180:	4501                	li	a0,0
40000182:	40b2                	lw	ra,12(sp)
40000184:	0141                	addi	sp,sp,16
40000186:	8082                	ret

40000188 <xGetCoreID>:
40000188:	f1402573          	csrr	a0,mhartid
4000018c:	8082                	ret

4000018e <vSendString>:
4000018e:	1141                	addi	sp,sp,-16
40000190:	c606                	sw	ra,12(sp)
40000192:	c422                	sw	s0,8(sp)
40000194:	c226                	sw	s1,4(sp)
40000196:	c04a                	sw	s2,0(sp)
40000198:	892a                	mv	s2,a0
4000019a:	0c2020ef          	jal	ra,4000225c <strlen>
4000019e:	84aa                	mv	s1,a0
400001a0:	30047073          	csrci	mstatus,8
400001a4:	0000c717          	auipc	a4,0xc
400001a8:	00c70713          	addi	a4,a4,12 # 4000c1b0 <xCriticalNesting>
400001ac:	431c                	lw	a5,0(a4)
400001ae:	0785                	addi	a5,a5,1
400001b0:	c31c                	sw	a5,0(a4)
400001b2:	4401                	li	s0,0
400001b4:	a809                	j	400001c6 <vSendString+0x38>
400001b6:	008907b3          	add	a5,s2,s0
400001ba:	0007c583          	lbu	a1,0(a5)
400001be:	f0010537          	lui	a0,0xf0010
400001c2:	2071                	jal	4000024e <uart_write>
400001c4:	0405                	addi	s0,s0,1
400001c6:	fe9468e3          	bltu	s0,s1,400001b6 <vSendString+0x28>
400001ca:	45a9                	li	a1,10
400001cc:	f0010537          	lui	a0,0xf0010
400001d0:	28bd                	jal	4000024e <uart_write>
400001d2:	0000c717          	auipc	a4,0xc
400001d6:	fde70713          	addi	a4,a4,-34 # 4000c1b0 <xCriticalNesting>
400001da:	431c                	lw	a5,0(a4)
400001dc:	17fd                	addi	a5,a5,-1
400001de:	c31c                	sw	a5,0(a4)
400001e0:	e399                	bnez	a5,400001e6 <vSendString+0x58>
400001e2:	30046073          	csrsi	mstatus,8
400001e6:	40b2                	lw	ra,12(sp)
400001e8:	4422                	lw	s0,8(sp)
400001ea:	4492                	lw	s1,4(sp)
400001ec:	4902                	lw	s2,0(sp)
400001ee:	0141                	addi	sp,sp,16
400001f0:	8082                	ret

400001f2 <vPortSetupTimerInterrupt>:
400001f2:	1141                	addi	sp,sp,-16
400001f4:	c606                	sw	ra,12(sp)
400001f6:	c422                	sw	s0,8(sp)
400001f8:	6289                	lui	t0,0x2
400001fa:	80828293          	addi	t0,t0,-2040 # 1808 <__stack_size+0x16dc>
400001fe:	30029073          	csrw	mstatus,t0
40000202:	6285                	lui	t0,0x1
40000204:	88028293          	addi	t0,t0,-1920 # 880 <__stack_size+0x754>
40000208:	30429073          	csrw	mie,t0
4000020c:	f0020437          	lui	s0,0xf0020
40000210:	01040513          	addi	a0,s0,16 # f0020010 <_bss_lma+0x7001f570>
40000214:	28ad                	jal	4000028e <interruptCtrl_init>
40000216:	f0020537          	lui	a0,0xf0020
4000021a:	28bd                	jal	40000298 <prescaler_init>
4000021c:	04040513          	addi	a0,s0,64
40000220:	2095                	jal	40000284 <timer_init>
40000222:	1f400793          	li	a5,500
40000226:	c01c                	sw	a5,0(s0)
40000228:	3e800713          	li	a4,1000
4000022c:	c078                	sw	a4,68(s0)
4000022e:	67c1                	lui	a5,0x10
40000230:	0789                	addi	a5,a5,2 # 10002 <__stack_size+0xfed6>
40000232:	c03c                	sw	a5,64(s0)
40000234:	473d                	li	a4,15
40000236:	c818                	sw	a4,16(s0)
40000238:	4705                	li	a4,1
4000023a:	c858                	sw	a4,20(s0)
4000023c:	40b2                	lw	ra,12(sp)
4000023e:	4422                	lw	s0,8(sp)
40000240:	0141                	addi	sp,sp,16
40000242:	8082                	ret

40000244 <uart_writeAvailability>:
40000244:	4148                	lw	a0,4(a0)
40000246:	8141                	srli	a0,a0,0x10
40000248:	0ff57513          	zext.b	a0,a0
4000024c:	8082                	ret

4000024e <uart_write>:
4000024e:	1141                	addi	sp,sp,-16
40000250:	c606                	sw	ra,12(sp)
40000252:	c422                	sw	s0,8(sp)
40000254:	c226                	sw	s1,4(sp)
40000256:	842a                	mv	s0,a0
40000258:	84ae                	mv	s1,a1
4000025a:	8522                	mv	a0,s0
4000025c:	37e5                	jal	40000244 <uart_writeAvailability>
4000025e:	dd75                	beqz	a0,4000025a <uart_write+0xc>
40000260:	c004                	sw	s1,0(s0)
40000262:	40b2                	lw	ra,12(sp)
40000264:	4422                	lw	s0,8(sp)
40000266:	4492                	lw	s1,4(sp)
40000268:	0141                	addi	sp,sp,16
4000026a:	8082                	ret

4000026c <uart_applyConfig>:
4000026c:	45dc                	lw	a5,12(a1)
4000026e:	c51c                	sw	a5,8(a0)
40000270:	419c                	lw	a5,0(a1)
40000272:	17fd                	addi	a5,a5,-1
40000274:	41d8                	lw	a4,4(a1)
40000276:	0722                	slli	a4,a4,0x8
40000278:	8fd9                	or	a5,a5,a4
4000027a:	4598                	lw	a4,8(a1)
4000027c:	0742                	slli	a4,a4,0x10
4000027e:	8fd9                	or	a5,a5,a4
40000280:	c55c                	sw	a5,12(a0)
40000282:	8082                	ret

40000284 <timer_init>:
40000284:	00052023          	sw	zero,0(a0) # f0020000 <_bss_lma+0x7001f560>
40000288:	00052423          	sw	zero,8(a0)
4000028c:	8082                	ret

4000028e <interruptCtrl_init>:
4000028e:	00052223          	sw	zero,4(a0)
40000292:	57fd                	li	a5,-1
40000294:	c11c                	sw	a5,0(a0)
40000296:	8082                	ret

40000298 <prescaler_init>:
40000298:	8082                	ret

4000029a <vListInitialise>:
4000029a:	00850793          	addi	a5,a0,8
4000029e:	c15c                	sw	a5,4(a0)
400002a0:	577d                	li	a4,-1
400002a2:	c518                	sw	a4,8(a0)
400002a4:	c55c                	sw	a5,12(a0)
400002a6:	c91c                	sw	a5,16(a0)
400002a8:	00052023          	sw	zero,0(a0)
400002ac:	8082                	ret

400002ae <vListInitialiseItem>:
400002ae:	00052823          	sw	zero,16(a0)
400002b2:	8082                	ret

400002b4 <vListInsert>:
400002b4:	4190                	lw	a2,0(a1)
400002b6:	57fd                	li	a5,-1
400002b8:	02f60363          	beq	a2,a5,400002de <vListInsert+0x2a>
400002bc:	00850793          	addi	a5,a0,8
400002c0:	86be                	mv	a3,a5
400002c2:	43dc                	lw	a5,4(a5)
400002c4:	4398                	lw	a4,0(a5)
400002c6:	fee67de3          	bgeu	a2,a4,400002c0 <vListInsert+0xc>
400002ca:	42dc                	lw	a5,4(a3)
400002cc:	c1dc                	sw	a5,4(a1)
400002ce:	c78c                	sw	a1,8(a5)
400002d0:	c594                	sw	a3,8(a1)
400002d2:	c2cc                	sw	a1,4(a3)
400002d4:	c988                	sw	a0,16(a1)
400002d6:	411c                	lw	a5,0(a0)
400002d8:	0785                	addi	a5,a5,1
400002da:	c11c                	sw	a5,0(a0)
400002dc:	8082                	ret
400002de:	4914                	lw	a3,16(a0)
400002e0:	b7ed                	j	400002ca <vListInsert+0x16>

400002e2 <uxListRemove>:
400002e2:	491c                	lw	a5,16(a0)
400002e4:	4154                	lw	a3,4(a0)
400002e6:	4518                	lw	a4,8(a0)
400002e8:	c698                	sw	a4,8(a3)
400002ea:	4154                	lw	a3,4(a0)
400002ec:	c354                	sw	a3,4(a4)
400002ee:	43d8                	lw	a4,4(a5)
400002f0:	00a70963          	beq	a4,a0,40000302 <uxListRemove+0x20>
400002f4:	00052823          	sw	zero,16(a0)
400002f8:	4398                	lw	a4,0(a5)
400002fa:	177d                	addi	a4,a4,-1
400002fc:	c398                	sw	a4,0(a5)
400002fe:	4388                	lw	a0,0(a5)
40000300:	8082                	ret
40000302:	4518                	lw	a4,8(a0)
40000304:	c3d8                	sw	a4,4(a5)
40000306:	b7fd                	j	400002f4 <uxListRemove+0x12>

40000308 <prvIsQueueEmpty>:
40000308:	30047073          	csrci	mstatus,8
4000030c:	0000c717          	auipc	a4,0xc
40000310:	ea470713          	addi	a4,a4,-348 # 4000c1b0 <xCriticalNesting>
40000314:	431c                	lw	a5,0(a4)
40000316:	00178693          	addi	a3,a5,1
4000031a:	c314                	sw	a3,0(a4)
4000031c:	5d18                	lw	a4,56(a0)
4000031e:	eb11                	bnez	a4,40000332 <prvIsQueueEmpty+0x2a>
40000320:	4505                	li	a0,1
40000322:	0000c717          	auipc	a4,0xc
40000326:	e8f72723          	sw	a5,-370(a4) # 4000c1b0 <xCriticalNesting>
4000032a:	e399                	bnez	a5,40000330 <prvIsQueueEmpty+0x28>
4000032c:	30046073          	csrsi	mstatus,8
40000330:	8082                	ret
40000332:	4501                	li	a0,0
40000334:	b7fd                	j	40000322 <prvIsQueueEmpty+0x1a>

40000336 <prvIsQueueFull>:
40000336:	30047073          	csrci	mstatus,8
4000033a:	0000c717          	auipc	a4,0xc
4000033e:	e7670713          	addi	a4,a4,-394 # 4000c1b0 <xCriticalNesting>
40000342:	431c                	lw	a5,0(a4)
40000344:	00178693          	addi	a3,a5,1
40000348:	c314                	sw	a3,0(a4)
4000034a:	5d14                	lw	a3,56(a0)
4000034c:	5d58                	lw	a4,60(a0)
4000034e:	00e68b63          	beq	a3,a4,40000364 <prvIsQueueFull+0x2e>
40000352:	4501                	li	a0,0
40000354:	0000c717          	auipc	a4,0xc
40000358:	e4f72e23          	sw	a5,-420(a4) # 4000c1b0 <xCriticalNesting>
4000035c:	e399                	bnez	a5,40000362 <prvIsQueueFull+0x2c>
4000035e:	30046073          	csrsi	mstatus,8
40000362:	8082                	ret
40000364:	4505                	li	a0,1
40000366:	b7fd                	j	40000354 <prvIsQueueFull+0x1e>

40000368 <prvCopyDataToQueue>:
40000368:	1141                	addi	sp,sp,-16
4000036a:	c606                	sw	ra,12(sp)
4000036c:	c422                	sw	s0,8(sp)
4000036e:	c226                	sw	s1,4(sp)
40000370:	c04a                	sw	s2,0(sp)
40000372:	842a                	mv	s0,a0
40000374:	84b2                	mv	s1,a2
40000376:	03852903          	lw	s2,56(a0)
4000037a:	4130                	lw	a2,64(a0)
4000037c:	e21d                	bnez	a2,400003a2 <prvCopyDataToQueue+0x3a>
4000037e:	411c                	lw	a5,0(a0)
40000380:	cb99                	beqz	a5,40000396 <prvCopyDataToQueue+0x2e>
40000382:	4501                	li	a0,0
40000384:	00190793          	addi	a5,s2,1
40000388:	dc1c                	sw	a5,56(s0)
4000038a:	40b2                	lw	ra,12(sp)
4000038c:	4422                	lw	s0,8(sp)
4000038e:	4492                	lw	s1,4(sp)
40000390:	4902                	lw	s2,0(sp)
40000392:	0141                	addi	sp,sp,16
40000394:	8082                	ret
40000396:	4508                	lw	a0,8(a0)
40000398:	220010ef          	jal	ra,400015b8 <xTaskPriorityDisinherit>
4000039c:	00042423          	sw	zero,8(s0)
400003a0:	b7d5                	j	40000384 <prvCopyDataToQueue+0x1c>
400003a2:	ec99                	bnez	s1,400003c0 <prvCopyDataToQueue+0x58>
400003a4:	4148                	lw	a0,4(a0)
400003a6:	481010ef          	jal	ra,40002026 <memcpy>
400003aa:	405c                	lw	a5,4(s0)
400003ac:	4038                	lw	a4,64(s0)
400003ae:	97ba                	add	a5,a5,a4
400003b0:	c05c                	sw	a5,4(s0)
400003b2:	4418                	lw	a4,8(s0)
400003b4:	02e7ef63          	bltu	a5,a4,400003f2 <prvCopyDataToQueue+0x8a>
400003b8:	401c                	lw	a5,0(s0)
400003ba:	c05c                	sw	a5,4(s0)
400003bc:	8526                	mv	a0,s1
400003be:	b7d9                	j	40000384 <prvCopyDataToQueue+0x1c>
400003c0:	4548                	lw	a0,12(a0)
400003c2:	465010ef          	jal	ra,40002026 <memcpy>
400003c6:	445c                	lw	a5,12(s0)
400003c8:	4038                	lw	a4,64(s0)
400003ca:	40e006b3          	neg	a3,a4
400003ce:	8f99                	sub	a5,a5,a4
400003d0:	c45c                	sw	a5,12(s0)
400003d2:	4018                	lw	a4,0(s0)
400003d4:	00e7f563          	bgeu	a5,a4,400003de <prvCopyDataToQueue+0x76>
400003d8:	441c                	lw	a5,8(s0)
400003da:	97b6                	add	a5,a5,a3
400003dc:	c45c                	sw	a5,12(s0)
400003de:	4789                	li	a5,2
400003e0:	00f48463          	beq	s1,a5,400003e8 <prvCopyDataToQueue+0x80>
400003e4:	4501                	li	a0,0
400003e6:	bf79                	j	40000384 <prvCopyDataToQueue+0x1c>
400003e8:	00090763          	beqz	s2,400003f6 <prvCopyDataToQueue+0x8e>
400003ec:	197d                	addi	s2,s2,-1
400003ee:	4501                	li	a0,0
400003f0:	bf51                	j	40000384 <prvCopyDataToQueue+0x1c>
400003f2:	8526                	mv	a0,s1
400003f4:	bf41                	j	40000384 <prvCopyDataToQueue+0x1c>
400003f6:	4501                	li	a0,0
400003f8:	b771                	j	40000384 <prvCopyDataToQueue+0x1c>

400003fa <prvCopyDataFromQueue>:
400003fa:	87aa                	mv	a5,a0
400003fc:	4130                	lw	a2,64(a0)
400003fe:	c215                	beqz	a2,40000422 <prvCopyDataFromQueue+0x28>
40000400:	1141                	addi	sp,sp,-16
40000402:	c606                	sw	ra,12(sp)
40000404:	852e                	mv	a0,a1
40000406:	47d8                	lw	a4,12(a5)
40000408:	9732                	add	a4,a4,a2
4000040a:	c7d8                	sw	a4,12(a5)
4000040c:	4794                	lw	a3,8(a5)
4000040e:	00d76463          	bltu	a4,a3,40000416 <prvCopyDataFromQueue+0x1c>
40000412:	4398                	lw	a4,0(a5)
40000414:	c7d8                	sw	a4,12(a5)
40000416:	47cc                	lw	a1,12(a5)
40000418:	40f010ef          	jal	ra,40002026 <memcpy>
4000041c:	40b2                	lw	ra,12(sp)
4000041e:	0141                	addi	sp,sp,16
40000420:	8082                	ret
40000422:	8082                	ret

40000424 <prvUnlockQueue>:
40000424:	1141                	addi	sp,sp,-16
40000426:	c606                	sw	ra,12(sp)
40000428:	c422                	sw	s0,8(sp)
4000042a:	c226                	sw	s1,4(sp)
4000042c:	84aa                	mv	s1,a0
4000042e:	30047073          	csrci	mstatus,8
40000432:	0000c717          	auipc	a4,0xc
40000436:	d7e70713          	addi	a4,a4,-642 # 4000c1b0 <xCriticalNesting>
4000043a:	431c                	lw	a5,0(a4)
4000043c:	0785                	addi	a5,a5,1
4000043e:	c31c                	sw	a5,0(a4)
40000440:	04554403          	lbu	s0,69(a0)
40000444:	0462                	slli	s0,s0,0x18
40000446:	8461                	srai	s0,s0,0x18
40000448:	a021                	j	40000450 <prvUnlockQueue+0x2c>
4000044a:	147d                	addi	s0,s0,-1
4000044c:	0462                	slli	s0,s0,0x18
4000044e:	8461                	srai	s0,s0,0x18
40000450:	00805c63          	blez	s0,40000468 <prvUnlockQueue+0x44>
40000454:	50dc                	lw	a5,36(s1)
40000456:	cb89                	beqz	a5,40000468 <prvUnlockQueue+0x44>
40000458:	02448513          	addi	a0,s1,36
4000045c:	761000ef          	jal	ra,400013bc <xTaskRemoveFromEventList>
40000460:	d56d                	beqz	a0,4000044a <prvUnlockQueue+0x26>
40000462:	120010ef          	jal	ra,40001582 <vTaskMissedYield>
40000466:	b7d5                	j	4000044a <prvUnlockQueue+0x26>
40000468:	57fd                	li	a5,-1
4000046a:	04f482a3          	sb	a5,69(s1)
4000046e:	0000c717          	auipc	a4,0xc
40000472:	d4270713          	addi	a4,a4,-702 # 4000c1b0 <xCriticalNesting>
40000476:	431c                	lw	a5,0(a4)
40000478:	17fd                	addi	a5,a5,-1
4000047a:	c31c                	sw	a5,0(a4)
4000047c:	e399                	bnez	a5,40000482 <prvUnlockQueue+0x5e>
4000047e:	30046073          	csrsi	mstatus,8
40000482:	30047073          	csrci	mstatus,8
40000486:	0000c717          	auipc	a4,0xc
4000048a:	d2a70713          	addi	a4,a4,-726 # 4000c1b0 <xCriticalNesting>
4000048e:	431c                	lw	a5,0(a4)
40000490:	0785                	addi	a5,a5,1
40000492:	c31c                	sw	a5,0(a4)
40000494:	0444c403          	lbu	s0,68(s1)
40000498:	0462                	slli	s0,s0,0x18
4000049a:	8461                	srai	s0,s0,0x18
4000049c:	a021                	j	400004a4 <prvUnlockQueue+0x80>
4000049e:	147d                	addi	s0,s0,-1
400004a0:	0462                	slli	s0,s0,0x18
400004a2:	8461                	srai	s0,s0,0x18
400004a4:	00805c63          	blez	s0,400004bc <prvUnlockQueue+0x98>
400004a8:	489c                	lw	a5,16(s1)
400004aa:	cb89                	beqz	a5,400004bc <prvUnlockQueue+0x98>
400004ac:	01048513          	addi	a0,s1,16
400004b0:	70d000ef          	jal	ra,400013bc <xTaskRemoveFromEventList>
400004b4:	d56d                	beqz	a0,4000049e <prvUnlockQueue+0x7a>
400004b6:	0cc010ef          	jal	ra,40001582 <vTaskMissedYield>
400004ba:	b7d5                	j	4000049e <prvUnlockQueue+0x7a>
400004bc:	57fd                	li	a5,-1
400004be:	04f48223          	sb	a5,68(s1)
400004c2:	0000c717          	auipc	a4,0xc
400004c6:	cee70713          	addi	a4,a4,-786 # 4000c1b0 <xCriticalNesting>
400004ca:	431c                	lw	a5,0(a4)
400004cc:	17fd                	addi	a5,a5,-1
400004ce:	c31c                	sw	a5,0(a4)
400004d0:	e399                	bnez	a5,400004d6 <prvUnlockQueue+0xb2>
400004d2:	30046073          	csrsi	mstatus,8
400004d6:	40b2                	lw	ra,12(sp)
400004d8:	4422                	lw	s0,8(sp)
400004da:	4492                	lw	s1,4(sp)
400004dc:	0141                	addi	sp,sp,16
400004de:	8082                	ret

400004e0 <xQueueGenericReset>:
400004e0:	1141                	addi	sp,sp,-16
400004e2:	c606                	sw	ra,12(sp)
400004e4:	c422                	sw	s0,8(sp)
400004e6:	c911                	beqz	a0,400004fa <xQueueGenericReset+0x1a>
400004e8:	842a                	mv	s0,a0
400004ea:	5d5c                	lw	a5,60(a0)
400004ec:	eb89                	bnez	a5,400004fe <xQueueGenericReset+0x1e>
400004ee:	3689                	jal	40000030 <vAssertCalled>
400004f0:	4501                	li	a0,0
400004f2:	40b2                	lw	ra,12(sp)
400004f4:	4422                	lw	s0,8(sp)
400004f6:	0141                	addi	sp,sp,16
400004f8:	8082                	ret
400004fa:	3e1d                	jal	40000030 <vAssertCalled>
400004fc:	bfcd                	j	400004ee <xQueueGenericReset+0xe>
400004fe:	4134                	lw	a3,64(a0)
40000500:	4701                	li	a4,0
40000502:	02d7b7b3          	mulhu	a5,a5,a3
40000506:	efb1                	bnez	a5,40000562 <xQueueGenericReset+0x82>
40000508:	f37d                	bnez	a4,400004ee <xQueueGenericReset+0xe>
4000050a:	30047073          	csrci	mstatus,8
4000050e:	0000c717          	auipc	a4,0xc
40000512:	ca270713          	addi	a4,a4,-862 # 4000c1b0 <xCriticalNesting>
40000516:	431c                	lw	a5,0(a4)
40000518:	0785                	addi	a5,a5,1
4000051a:	c31c                	sw	a5,0(a4)
4000051c:	401c                	lw	a5,0(s0)
4000051e:	5c54                	lw	a3,60(s0)
40000520:	4038                	lw	a4,64(s0)
40000522:	02e68633          	mul	a2,a3,a4
40000526:	963e                	add	a2,a2,a5
40000528:	c410                	sw	a2,8(s0)
4000052a:	02042c23          	sw	zero,56(s0)
4000052e:	c05c                	sw	a5,4(s0)
40000530:	16fd                	addi	a3,a3,-1
40000532:	02d70733          	mul	a4,a4,a3
40000536:	97ba                	add	a5,a5,a4
40000538:	c45c                	sw	a5,12(s0)
4000053a:	57fd                	li	a5,-1
4000053c:	04f40223          	sb	a5,68(s0)
40000540:	04f402a3          	sb	a5,69(s0)
40000544:	e595                	bnez	a1,40000570 <xQueueGenericReset+0x90>
40000546:	481c                	lw	a5,16(s0)
40000548:	ef99                	bnez	a5,40000566 <xQueueGenericReset+0x86>
4000054a:	0000c717          	auipc	a4,0xc
4000054e:	c6670713          	addi	a4,a4,-922 # 4000c1b0 <xCriticalNesting>
40000552:	431c                	lw	a5,0(a4)
40000554:	17fd                	addi	a5,a5,-1
40000556:	c31c                	sw	a5,0(a4)
40000558:	e39d                	bnez	a5,4000057e <xQueueGenericReset+0x9e>
4000055a:	30046073          	csrsi	mstatus,8
4000055e:	4505                	li	a0,1
40000560:	bf49                	j	400004f2 <xQueueGenericReset+0x12>
40000562:	4705                	li	a4,1
40000564:	b755                	j	40000508 <xQueueGenericReset+0x28>
40000566:	01040513          	addi	a0,s0,16
4000056a:	653000ef          	jal	ra,400013bc <xTaskRemoveFromEventList>
4000056e:	bff1                	j	4000054a <xQueueGenericReset+0x6a>
40000570:	01040513          	addi	a0,s0,16
40000574:	331d                	jal	4000029a <vListInitialise>
40000576:	02440513          	addi	a0,s0,36
4000057a:	3305                	jal	4000029a <vListInitialise>
4000057c:	b7f9                	j	4000054a <xQueueGenericReset+0x6a>
4000057e:	4505                	li	a0,1
40000580:	bf8d                	j	400004f2 <xQueueGenericReset+0x12>

40000582 <prvInitialiseNewQueue>:
40000582:	1141                	addi	sp,sp,-16
40000584:	c606                	sw	ra,12(sp)
40000586:	87aa                	mv	a5,a0
40000588:	853a                	mv	a0,a4
4000058a:	e989                	bnez	a1,4000059c <prvInitialiseNewQueue+0x1a>
4000058c:	c118                	sw	a4,0(a0)
4000058e:	dd5c                	sw	a5,60(a0)
40000590:	c12c                	sw	a1,64(a0)
40000592:	4585                	li	a1,1
40000594:	37b1                	jal	400004e0 <xQueueGenericReset>
40000596:	40b2                	lw	ra,12(sp)
40000598:	0141                	addi	sp,sp,16
4000059a:	8082                	ret
4000059c:	c310                	sw	a2,0(a4)
4000059e:	bfc5                	j	4000058e <prvInitialiseNewQueue+0xc>

400005a0 <xQueueGenericCreate>:
400005a0:	1101                	addi	sp,sp,-32
400005a2:	ce06                	sw	ra,28(sp)
400005a4:	cc22                	sw	s0,24(sp)
400005a6:	ca26                	sw	s1,20(sp)
400005a8:	c84a                	sw	s2,16(sp)
400005aa:	c64e                	sw	s3,12(sp)
400005ac:	cd1d                	beqz	a0,400005ea <xQueueGenericCreate+0x4a>
400005ae:	842a                	mv	s0,a0
400005b0:	84ae                	mv	s1,a1
400005b2:	89b2                	mv	s3,a2
400005b4:	4781                	li	a5,0
400005b6:	02b53733          	mulhu	a4,a0,a1
400005ba:	e715                	bnez	a4,400005e6 <xQueueGenericCreate+0x46>
400005bc:	e79d                	bnez	a5,400005ea <xQueueGenericCreate+0x4a>
400005be:	02940533          	mul	a0,s0,s1
400005c2:	fb700793          	li	a5,-73
400005c6:	02a7e263          	bltu	a5,a0,400005ea <xQueueGenericCreate+0x4a>
400005ca:	04850513          	addi	a0,a0,72
400005ce:	554010ef          	jal	ra,40001b22 <pvPortMalloc>
400005d2:	892a                	mv	s2,a0
400005d4:	cd09                	beqz	a0,400005ee <xQueueGenericCreate+0x4e>
400005d6:	872a                	mv	a4,a0
400005d8:	86ce                	mv	a3,s3
400005da:	04850613          	addi	a2,a0,72
400005de:	85a6                	mv	a1,s1
400005e0:	8522                	mv	a0,s0
400005e2:	3745                	jal	40000582 <prvInitialiseNewQueue>
400005e4:	a029                	j	400005ee <xQueueGenericCreate+0x4e>
400005e6:	4785                	li	a5,1
400005e8:	bfd1                	j	400005bc <xQueueGenericCreate+0x1c>
400005ea:	3499                	jal	40000030 <vAssertCalled>
400005ec:	4901                	li	s2,0
400005ee:	854a                	mv	a0,s2
400005f0:	40f2                	lw	ra,28(sp)
400005f2:	4462                	lw	s0,24(sp)
400005f4:	44d2                	lw	s1,20(sp)
400005f6:	4942                	lw	s2,16(sp)
400005f8:	49b2                	lw	s3,12(sp)
400005fa:	6105                	addi	sp,sp,32
400005fc:	8082                	ret

400005fe <xQueueGenericSend>:
400005fe:	7139                	addi	sp,sp,-64
40000600:	de06                	sw	ra,60(sp)
40000602:	dc22                	sw	s0,56(sp)
40000604:	da26                	sw	s1,52(sp)
40000606:	d84a                	sw	s2,48(sp)
40000608:	d64e                	sw	s3,44(sp)
4000060a:	842a                	mv	s0,a0
4000060c:	89ae                	mv	s3,a1
4000060e:	c632                	sw	a2,12(sp)
40000610:	84b6                	mv	s1,a3
40000612:	cd09                	beqz	a0,4000062c <xQueueGenericSend+0x2e>
40000614:	00098e63          	beqz	s3,40000630 <xQueueGenericSend+0x32>
40000618:	4789                	li	a5,2
4000061a:	00f48f63          	beq	s1,a5,40000638 <xQueueGenericSend+0x3a>
4000061e:	77b000ef          	jal	ra,40001598 <xTaskGetSchedulerState>
40000622:	e119                	bnez	a0,40000628 <xQueueGenericSend+0x2a>
40000624:	47b2                	lw	a5,12(sp)
40000626:	ef99                	bnez	a5,40000644 <xQueueGenericSend+0x46>
40000628:	4901                	li	s2,0
4000062a:	a061                	j	400006b2 <xQueueGenericSend+0xb4>
4000062c:	3411                	jal	40000030 <vAssertCalled>
4000062e:	b7dd                	j	40000614 <xQueueGenericSend+0x16>
40000630:	403c                	lw	a5,64(s0)
40000632:	d3fd                	beqz	a5,40000618 <xQueueGenericSend+0x1a>
40000634:	3af5                	jal	40000030 <vAssertCalled>
40000636:	b7cd                	j	40000618 <xQueueGenericSend+0x1a>
40000638:	5c58                	lw	a4,60(s0)
4000063a:	4785                	li	a5,1
4000063c:	fef701e3          	beq	a4,a5,4000061e <xQueueGenericSend+0x20>
40000640:	3ac5                	jal	40000030 <vAssertCalled>
40000642:	bff1                	j	4000061e <xQueueGenericSend+0x20>
40000644:	32f5                	jal	40000030 <vAssertCalled>
40000646:	b7cd                	j	40000628 <xQueueGenericSend+0x2a>
40000648:	8626                	mv	a2,s1
4000064a:	85ce                	mv	a1,s3
4000064c:	8522                	mv	a0,s0
4000064e:	3b29                	jal	40000368 <prvCopyDataToQueue>
40000650:	505c                	lw	a5,36(s0)
40000652:	e39d                	bnez	a5,40000678 <xQueueGenericSend+0x7a>
40000654:	0000c717          	auipc	a4,0xc
40000658:	b5c70713          	addi	a4,a4,-1188 # 4000c1b0 <xCriticalNesting>
4000065c:	431c                	lw	a5,0(a4)
4000065e:	17fd                	addi	a5,a5,-1
40000660:	c31c                	sw	a5,0(a4)
40000662:	e399                	bnez	a5,40000668 <xQueueGenericSend+0x6a>
40000664:	30046073          	csrsi	mstatus,8
40000668:	4505                	li	a0,1
4000066a:	50f2                	lw	ra,60(sp)
4000066c:	5462                	lw	s0,56(sp)
4000066e:	54d2                	lw	s1,52(sp)
40000670:	5942                	lw	s2,48(sp)
40000672:	59b2                	lw	s3,44(sp)
40000674:	6121                	addi	sp,sp,64
40000676:	8082                	ret
40000678:	02440513          	addi	a0,s0,36
4000067c:	541000ef          	jal	ra,400013bc <xTaskRemoveFromEventList>
40000680:	bfd1                	j	40000654 <xQueueGenericSend+0x56>
40000682:	0000c797          	auipc	a5,0xc
40000686:	b2e7a723          	sw	a4,-1234(a5) # 4000c1b0 <xCriticalNesting>
4000068a:	e319                	bnez	a4,40000690 <xQueueGenericSend+0x92>
4000068c:	30046073          	csrsi	mstatus,8
40000690:	4501                	li	a0,0
40000692:	bfe1                	j	4000066a <xQueueGenericSend+0x6c>
40000694:	0828                	addi	a0,sp,24
40000696:	621000ef          	jal	ra,400014b6 <vTaskInternalSetTimeOutState>
4000069a:	4905                	li	s2,1
4000069c:	a081                	j	400006dc <xQueueGenericSend+0xde>
4000069e:	04040223          	sb	zero,68(s0)
400006a2:	a895                	j	40000716 <xQueueGenericSend+0x118>
400006a4:	040402a3          	sb	zero,69(s0)
400006a8:	a8b5                	j	40000724 <xQueueGenericSend+0x126>
400006aa:	8522                	mv	a0,s0
400006ac:	3ba5                	jal	40000424 <prvUnlockQueue>
400006ae:	195000ef          	jal	ra,40001042 <xTaskResumeAll>
400006b2:	30047073          	csrci	mstatus,8
400006b6:	0000c797          	auipc	a5,0xc
400006ba:	afa78793          	addi	a5,a5,-1286 # 4000c1b0 <xCriticalNesting>
400006be:	4398                	lw	a4,0(a5)
400006c0:	00170693          	addi	a3,a4,1
400006c4:	c394                	sw	a3,0(a5)
400006c6:	5c14                	lw	a3,56(s0)
400006c8:	5c5c                	lw	a5,60(s0)
400006ca:	f6f6efe3          	bltu	a3,a5,40000648 <xQueueGenericSend+0x4a>
400006ce:	4789                	li	a5,2
400006d0:	f6f48ce3          	beq	s1,a5,40000648 <xQueueGenericSend+0x4a>
400006d4:	47b2                	lw	a5,12(sp)
400006d6:	d7d5                	beqz	a5,40000682 <xQueueGenericSend+0x84>
400006d8:	fa090ee3          	beqz	s2,40000694 <xQueueGenericSend+0x96>
400006dc:	0000c717          	auipc	a4,0xc
400006e0:	ad470713          	addi	a4,a4,-1324 # 4000c1b0 <xCriticalNesting>
400006e4:	431c                	lw	a5,0(a4)
400006e6:	17fd                	addi	a5,a5,-1
400006e8:	c31c                	sw	a5,0(a4)
400006ea:	e399                	bnez	a5,400006f0 <xQueueGenericSend+0xf2>
400006ec:	30046073          	csrsi	mstatus,8
400006f0:	7a4000ef          	jal	ra,40000e94 <vTaskSuspendAll>
400006f4:	30047073          	csrci	mstatus,8
400006f8:	0000c717          	auipc	a4,0xc
400006fc:	ab870713          	addi	a4,a4,-1352 # 4000c1b0 <xCriticalNesting>
40000700:	431c                	lw	a5,0(a4)
40000702:	00178693          	addi	a3,a5,1
40000706:	c314                	sw	a3,0(a4)
40000708:	04444703          	lbu	a4,68(s0)
4000070c:	0762                	slli	a4,a4,0x18
4000070e:	8761                	srai	a4,a4,0x18
40000710:	56fd                	li	a3,-1
40000712:	f8d706e3          	beq	a4,a3,4000069e <xQueueGenericSend+0xa0>
40000716:	04544703          	lbu	a4,69(s0)
4000071a:	0762                	slli	a4,a4,0x18
4000071c:	8761                	srai	a4,a4,0x18
4000071e:	56fd                	li	a3,-1
40000720:	f8d702e3          	beq	a4,a3,400006a4 <xQueueGenericSend+0xa6>
40000724:	0000c717          	auipc	a4,0xc
40000728:	a8f72623          	sw	a5,-1396(a4) # 4000c1b0 <xCriticalNesting>
4000072c:	e399                	bnez	a5,40000732 <xQueueGenericSend+0x134>
4000072e:	30046073          	csrsi	mstatus,8
40000732:	006c                	addi	a1,sp,12
40000734:	0828                	addi	a0,sp,24
40000736:	597000ef          	jal	ra,400014cc <xTaskCheckForTimeOut>
4000073a:	e10d                	bnez	a0,4000075c <xQueueGenericSend+0x15e>
4000073c:	8522                	mv	a0,s0
4000073e:	3ee5                	jal	40000336 <prvIsQueueFull>
40000740:	d52d                	beqz	a0,400006aa <xQueueGenericSend+0xac>
40000742:	45b2                	lw	a1,12(sp)
40000744:	01040513          	addi	a0,s0,16
40000748:	3e5000ef          	jal	ra,4000132c <vTaskPlaceOnEventList>
4000074c:	8522                	mv	a0,s0
4000074e:	39d9                	jal	40000424 <prvUnlockQueue>
40000750:	0f3000ef          	jal	ra,40001042 <xTaskResumeAll>
40000754:	fd39                	bnez	a0,400006b2 <xQueueGenericSend+0xb4>
40000756:	00000073          	ecall
4000075a:	bfa1                	j	400006b2 <xQueueGenericSend+0xb4>
4000075c:	8522                	mv	a0,s0
4000075e:	31d9                	jal	40000424 <prvUnlockQueue>
40000760:	0e3000ef          	jal	ra,40001042 <xTaskResumeAll>
40000764:	4501                	li	a0,0
40000766:	b711                	j	4000066a <xQueueGenericSend+0x6c>

40000768 <xQueueReceive>:
40000768:	7139                	addi	sp,sp,-64
4000076a:	de06                	sw	ra,60(sp)
4000076c:	dc22                	sw	s0,56(sp)
4000076e:	da26                	sw	s1,52(sp)
40000770:	d84a                	sw	s2,48(sp)
40000772:	d64e                	sw	s3,44(sp)
40000774:	842a                	mv	s0,a0
40000776:	892e                	mv	s2,a1
40000778:	c632                	sw	a2,12(sp)
4000077a:	c911                	beqz	a0,4000078e <xQueueReceive+0x26>
4000077c:	00090c63          	beqz	s2,40000794 <xQueueReceive+0x2c>
40000780:	619000ef          	jal	ra,40001598 <xTaskGetSchedulerState>
40000784:	e119                	bnez	a0,4000078a <xQueueReceive+0x22>
40000786:	47b2                	lw	a5,12(sp)
40000788:	eb99                	bnez	a5,4000079e <xQueueReceive+0x36>
4000078a:	4481                	li	s1,0
4000078c:	a859                	j	40000822 <xQueueReceive+0xba>
4000078e:	8a3ff0ef          	jal	ra,40000030 <vAssertCalled>
40000792:	b7ed                	j	4000077c <xQueueReceive+0x14>
40000794:	403c                	lw	a5,64(s0)
40000796:	d7ed                	beqz	a5,40000780 <xQueueReceive+0x18>
40000798:	899ff0ef          	jal	ra,40000030 <vAssertCalled>
4000079c:	b7d5                	j	40000780 <xQueueReceive+0x18>
4000079e:	893ff0ef          	jal	ra,40000030 <vAssertCalled>
400007a2:	b7e5                	j	4000078a <xQueueReceive+0x22>
400007a4:	85ca                	mv	a1,s2
400007a6:	8522                	mv	a0,s0
400007a8:	3989                	jal	400003fa <prvCopyDataFromQueue>
400007aa:	19fd                	addi	s3,s3,-1
400007ac:	03342c23          	sw	s3,56(s0)
400007b0:	481c                	lw	a5,16(s0)
400007b2:	e39d                	bnez	a5,400007d8 <xQueueReceive+0x70>
400007b4:	0000c717          	auipc	a4,0xc
400007b8:	9fc70713          	addi	a4,a4,-1540 # 4000c1b0 <xCriticalNesting>
400007bc:	431c                	lw	a5,0(a4)
400007be:	17fd                	addi	a5,a5,-1
400007c0:	c31c                	sw	a5,0(a4)
400007c2:	e399                	bnez	a5,400007c8 <xQueueReceive+0x60>
400007c4:	30046073          	csrsi	mstatus,8
400007c8:	4505                	li	a0,1
400007ca:	50f2                	lw	ra,60(sp)
400007cc:	5462                	lw	s0,56(sp)
400007ce:	54d2                	lw	s1,52(sp)
400007d0:	5942                	lw	s2,48(sp)
400007d2:	59b2                	lw	s3,44(sp)
400007d4:	6121                	addi	sp,sp,64
400007d6:	8082                	ret
400007d8:	01040513          	addi	a0,s0,16
400007dc:	3e1000ef          	jal	ra,400013bc <xTaskRemoveFromEventList>
400007e0:	bfd1                	j	400007b4 <xQueueReceive+0x4c>
400007e2:	0000c797          	auipc	a5,0xc
400007e6:	9ce7a723          	sw	a4,-1586(a5) # 4000c1b0 <xCriticalNesting>
400007ea:	e319                	bnez	a4,400007f0 <xQueueReceive+0x88>
400007ec:	30046073          	csrsi	mstatus,8
400007f0:	4501                	li	a0,0
400007f2:	bfe1                	j	400007ca <xQueueReceive+0x62>
400007f4:	0828                	addi	a0,sp,24
400007f6:	4c1000ef          	jal	ra,400014b6 <vTaskInternalSetTimeOutState>
400007fa:	4485                	li	s1,1
400007fc:	a0a1                	j	40000844 <xQueueReceive+0xdc>
400007fe:	04040223          	sb	zero,68(s0)
40000802:	a8b5                	j	4000087e <xQueueReceive+0x116>
40000804:	040402a3          	sb	zero,69(s0)
40000808:	a051                	j	4000088c <xQueueReceive+0x124>
4000080a:	8522                	mv	a0,s0
4000080c:	3921                	jal	40000424 <prvUnlockQueue>
4000080e:	035000ef          	jal	ra,40001042 <xTaskResumeAll>
40000812:	a801                	j	40000822 <xQueueReceive+0xba>
40000814:	8522                	mv	a0,s0
40000816:	3139                	jal	40000424 <prvUnlockQueue>
40000818:	02b000ef          	jal	ra,40001042 <xTaskResumeAll>
4000081c:	8522                	mv	a0,s0
4000081e:	34ed                	jal	40000308 <prvIsQueueEmpty>
40000820:	e155                	bnez	a0,400008c4 <xQueueReceive+0x15c>
40000822:	30047073          	csrci	mstatus,8
40000826:	0000c797          	auipc	a5,0xc
4000082a:	98a78793          	addi	a5,a5,-1654 # 4000c1b0 <xCriticalNesting>
4000082e:	4398                	lw	a4,0(a5)
40000830:	00170693          	addi	a3,a4,1
40000834:	c394                	sw	a3,0(a5)
40000836:	03842983          	lw	s3,56(s0)
4000083a:	f60995e3          	bnez	s3,400007a4 <xQueueReceive+0x3c>
4000083e:	47b2                	lw	a5,12(sp)
40000840:	d3cd                	beqz	a5,400007e2 <xQueueReceive+0x7a>
40000842:	d8cd                	beqz	s1,400007f4 <xQueueReceive+0x8c>
40000844:	0000c717          	auipc	a4,0xc
40000848:	96c70713          	addi	a4,a4,-1684 # 4000c1b0 <xCriticalNesting>
4000084c:	431c                	lw	a5,0(a4)
4000084e:	17fd                	addi	a5,a5,-1
40000850:	c31c                	sw	a5,0(a4)
40000852:	e399                	bnez	a5,40000858 <xQueueReceive+0xf0>
40000854:	30046073          	csrsi	mstatus,8
40000858:	63c000ef          	jal	ra,40000e94 <vTaskSuspendAll>
4000085c:	30047073          	csrci	mstatus,8
40000860:	0000c717          	auipc	a4,0xc
40000864:	95070713          	addi	a4,a4,-1712 # 4000c1b0 <xCriticalNesting>
40000868:	431c                	lw	a5,0(a4)
4000086a:	00178693          	addi	a3,a5,1
4000086e:	c314                	sw	a3,0(a4)
40000870:	04444703          	lbu	a4,68(s0)
40000874:	0762                	slli	a4,a4,0x18
40000876:	8761                	srai	a4,a4,0x18
40000878:	56fd                	li	a3,-1
4000087a:	f8d702e3          	beq	a4,a3,400007fe <xQueueReceive+0x96>
4000087e:	04544703          	lbu	a4,69(s0)
40000882:	0762                	slli	a4,a4,0x18
40000884:	8761                	srai	a4,a4,0x18
40000886:	56fd                	li	a3,-1
40000888:	f6d70ee3          	beq	a4,a3,40000804 <xQueueReceive+0x9c>
4000088c:	0000c717          	auipc	a4,0xc
40000890:	92f72223          	sw	a5,-1756(a4) # 4000c1b0 <xCriticalNesting>
40000894:	e399                	bnez	a5,4000089a <xQueueReceive+0x132>
40000896:	30046073          	csrsi	mstatus,8
4000089a:	006c                	addi	a1,sp,12
4000089c:	0828                	addi	a0,sp,24
4000089e:	42f000ef          	jal	ra,400014cc <xTaskCheckForTimeOut>
400008a2:	f92d                	bnez	a0,40000814 <xQueueReceive+0xac>
400008a4:	8522                	mv	a0,s0
400008a6:	348d                	jal	40000308 <prvIsQueueEmpty>
400008a8:	d12d                	beqz	a0,4000080a <xQueueReceive+0xa2>
400008aa:	45b2                	lw	a1,12(sp)
400008ac:	02440513          	addi	a0,s0,36
400008b0:	27d000ef          	jal	ra,4000132c <vTaskPlaceOnEventList>
400008b4:	8522                	mv	a0,s0
400008b6:	36bd                	jal	40000424 <prvUnlockQueue>
400008b8:	78a000ef          	jal	ra,40001042 <xTaskResumeAll>
400008bc:	f13d                	bnez	a0,40000822 <xQueueReceive+0xba>
400008be:	00000073          	ecall
400008c2:	b785                	j	40000822 <xQueueReceive+0xba>
400008c4:	4501                	li	a0,0
400008c6:	b711                	j	400007ca <xQueueReceive+0x62>

400008c8 <vQueueAddToRegistry>:
400008c8:	1141                	addi	sp,sp,-16
400008ca:	c606                	sw	ra,12(sp)
400008cc:	c422                	sw	s0,8(sp)
400008ce:	c226                	sw	s1,4(sp)
400008d0:	842a                	mv	s0,a0
400008d2:	84ae                	mv	s1,a1
400008d4:	c509                	beqz	a0,400008de <vQueueAddToRegistry+0x16>
400008d6:	ccb9                	beqz	s1,40000934 <vQueueAddToRegistry+0x6c>
400008d8:	4601                	li	a2,0
400008da:	4781                	li	a5,0
400008dc:	a819                	j	400008f2 <vQueueAddToRegistry+0x2a>
400008de:	f52ff0ef          	jal	ra,40000030 <vAssertCalled>
400008e2:	bfd5                	j	400008d6 <vQueueAddToRegistry+0xe>
400008e4:	0000c617          	auipc	a2,0xc
400008e8:	97460613          	addi	a2,a2,-1676 # 4000c258 <xQueueRegistry>
400008ec:	9636                	add	a2,a2,a3
400008ee:	a089                	j	40000930 <vQueueAddToRegistry+0x68>
400008f0:	0785                	addi	a5,a5,1
400008f2:	471d                	li	a4,7
400008f4:	02f76d63          	bltu	a4,a5,4000092e <vQueueAddToRegistry+0x66>
400008f8:	00379693          	slli	a3,a5,0x3
400008fc:	0000c717          	auipc	a4,0xc
40000900:	95c70713          	addi	a4,a4,-1700 # 4000c258 <xQueueRegistry>
40000904:	9736                	add	a4,a4,a3
40000906:	4358                	lw	a4,4(a4)
40000908:	fc870ee3          	beq	a4,s0,400008e4 <vQueueAddToRegistry+0x1c>
4000090c:	f275                	bnez	a2,400008f0 <vQueueAddToRegistry+0x28>
4000090e:	00379693          	slli	a3,a5,0x3
40000912:	0000c717          	auipc	a4,0xc
40000916:	94670713          	addi	a4,a4,-1722 # 4000c258 <xQueueRegistry>
4000091a:	9736                	add	a4,a4,a3
4000091c:	4318                	lw	a4,0(a4)
4000091e:	fb69                	bnez	a4,400008f0 <vQueueAddToRegistry+0x28>
40000920:	0000c717          	auipc	a4,0xc
40000924:	93870713          	addi	a4,a4,-1736 # 4000c258 <xQueueRegistry>
40000928:	00e68633          	add	a2,a3,a4
4000092c:	b7d1                	j	400008f0 <vQueueAddToRegistry+0x28>
4000092e:	c219                	beqz	a2,40000934 <vQueueAddToRegistry+0x6c>
40000930:	c204                	sw	s1,0(a2)
40000932:	c240                	sw	s0,4(a2)
40000934:	40b2                	lw	ra,12(sp)
40000936:	4422                	lw	s0,8(sp)
40000938:	4492                	lw	s1,4(sp)
4000093a:	0141                	addi	sp,sp,16
4000093c:	8082                	ret

4000093e <vQueueWaitForMessageRestricted>:
4000093e:	1141                	addi	sp,sp,-16
40000940:	c606                	sw	ra,12(sp)
40000942:	c422                	sw	s0,8(sp)
40000944:	842a                	mv	s0,a0
40000946:	30047073          	csrci	mstatus,8
4000094a:	0000c717          	auipc	a4,0xc
4000094e:	86670713          	addi	a4,a4,-1946 # 4000c1b0 <xCriticalNesting>
40000952:	431c                	lw	a5,0(a4)
40000954:	00178693          	addi	a3,a5,1
40000958:	c314                	sw	a3,0(a4)
4000095a:	04454703          	lbu	a4,68(a0)
4000095e:	0762                	slli	a4,a4,0x18
40000960:	8761                	srai	a4,a4,0x18
40000962:	56fd                	li	a3,-1
40000964:	02d70863          	beq	a4,a3,40000994 <vQueueWaitForMessageRestricted+0x56>
40000968:	04544703          	lbu	a4,69(s0)
4000096c:	0762                	slli	a4,a4,0x18
4000096e:	8761                	srai	a4,a4,0x18
40000970:	56fd                	li	a3,-1
40000972:	02d70463          	beq	a4,a3,4000099a <vQueueWaitForMessageRestricted+0x5c>
40000976:	0000c717          	auipc	a4,0xc
4000097a:	82f72d23          	sw	a5,-1990(a4) # 4000c1b0 <xCriticalNesting>
4000097e:	e399                	bnez	a5,40000984 <vQueueWaitForMessageRestricted+0x46>
40000980:	30046073          	csrsi	mstatus,8
40000984:	5c1c                	lw	a5,56(s0)
40000986:	cf89                	beqz	a5,400009a0 <vQueueWaitForMessageRestricted+0x62>
40000988:	8522                	mv	a0,s0
4000098a:	3c69                	jal	40000424 <prvUnlockQueue>
4000098c:	40b2                	lw	ra,12(sp)
4000098e:	4422                	lw	s0,8(sp)
40000990:	0141                	addi	sp,sp,16
40000992:	8082                	ret
40000994:	04050223          	sb	zero,68(a0)
40000998:	bfc1                	j	40000968 <vQueueWaitForMessageRestricted+0x2a>
4000099a:	040402a3          	sb	zero,69(s0)
4000099e:	bfe1                	j	40000976 <vQueueWaitForMessageRestricted+0x38>
400009a0:	02440513          	addi	a0,s0,36
400009a4:	1bf000ef          	jal	ra,40001362 <vTaskPlaceOnEventListRestricted>
400009a8:	b7c5                	j	40000988 <vQueueWaitForMessageRestricted+0x4a>

400009aa <prvResetNextTaskUnblockTime>:
400009aa:	0000c797          	auipc	a5,0xc
400009ae:	85e7a783          	lw	a5,-1954(a5) # 4000c208 <pxDelayedTaskList>
400009b2:	439c                	lw	a5,0(a5)
400009b4:	e799                	bnez	a5,400009c2 <prvResetNextTaskUnblockTime+0x18>
400009b6:	57fd                	li	a5,-1
400009b8:	0000c717          	auipc	a4,0xc
400009bc:	82f72223          	sw	a5,-2012(a4) # 4000c1dc <xNextTaskUnblockTime>
400009c0:	8082                	ret
400009c2:	0000c797          	auipc	a5,0xc
400009c6:	8467a783          	lw	a5,-1978(a5) # 4000c208 <pxDelayedTaskList>
400009ca:	47dc                	lw	a5,12(a5)
400009cc:	439c                	lw	a5,0(a5)
400009ce:	0000c717          	auipc	a4,0xc
400009d2:	80f72723          	sw	a5,-2034(a4) # 4000c1dc <xNextTaskUnblockTime>
400009d6:	8082                	ret

400009d8 <prvDeleteTCB>:
400009d8:	1141                	addi	sp,sp,-16
400009da:	c606                	sw	ra,12(sp)
400009dc:	c422                	sw	s0,8(sp)
400009de:	842a                	mv	s0,a0
400009e0:	5908                	lw	a0,48(a0)
400009e2:	26a010ef          	jal	ra,40001c4c <vPortFree>
400009e6:	8522                	mv	a0,s0
400009e8:	264010ef          	jal	ra,40001c4c <vPortFree>
400009ec:	40b2                	lw	ra,12(sp)
400009ee:	4422                	lw	s0,8(sp)
400009f0:	0141                	addi	sp,sp,16
400009f2:	8082                	ret

400009f4 <prvInitialiseNewTask>:
400009f4:	1101                	addi	sp,sp,-32
400009f6:	ce06                	sw	ra,28(sp)
400009f8:	cc22                	sw	s0,24(sp)
400009fa:	ca26                	sw	s1,20(sp)
400009fc:	c84a                	sw	s2,16(sp)
400009fe:	c64e                	sw	s3,12(sp)
40000a00:	c452                	sw	s4,8(sp)
40000a02:	c256                	sw	s5,4(sp)
40000a04:	c05a                	sw	s6,0(sp)
40000a06:	8aaa                	mv	s5,a0
40000a08:	84ae                	mv	s1,a1
40000a0a:	8932                	mv	s2,a2
40000a0c:	8b36                	mv	s6,a3
40000a0e:	89ba                	mv	s3,a4
40000a10:	8a3e                	mv	s4,a5
40000a12:	8442                	mv	s0,a6
40000a14:	060a                	slli	a2,a2,0x2
40000a16:	0a500593          	li	a1,165
40000a1a:	03082503          	lw	a0,48(a6)
40000a1e:	74e010ef          	jal	ra,4000216c <memset>
40000a22:	581c                	lw	a5,48(s0)
40000a24:	40000737          	lui	a4,0x40000
40000a28:	177d                	addi	a4,a4,-1 # 3fffffff <__stack_size+0x3ffffed3>
40000a2a:	993a                	add	s2,s2,a4
40000a2c:	090a                	slli	s2,s2,0x2
40000a2e:	993e                	add	s2,s2,a5
40000a30:	ff097913          	andi	s2,s2,-16
40000a34:	c09d                	beqz	s1,40000a5a <prvInitialiseNewTask+0x66>
40000a36:	4881                	li	a7,0
40000a38:	483d                	li	a6,15
40000a3a:	01186e63          	bltu	a6,a7,40000a56 <prvInitialiseNewTask+0x62>
40000a3e:	01148833          	add	a6,s1,a7
40000a42:	00084803          	lbu	a6,0(a6)
40000a46:	01140333          	add	t1,s0,a7
40000a4a:	03030a23          	sb	a6,52(t1)
40000a4e:	00080463          	beqz	a6,40000a56 <prvInitialiseNewTask+0x62>
40000a52:	0885                	addi	a7,a7,1
40000a54:	b7d5                	j	40000a38 <prvInitialiseNewTask+0x44>
40000a56:	040401a3          	sb	zero,67(s0)
40000a5a:	4799                	li	a5,6
40000a5c:	0537e863          	bltu	a5,s3,40000aac <prvInitialiseNewTask+0xb8>
40000a60:	03342623          	sw	s3,44(s0)
40000a64:	05342223          	sw	s3,68(s0)
40000a68:	00440513          	addi	a0,s0,4
40000a6c:	843ff0ef          	jal	ra,400002ae <vListInitialiseItem>
40000a70:	01840513          	addi	a0,s0,24
40000a74:	83bff0ef          	jal	ra,400002ae <vListInitialiseItem>
40000a78:	c800                	sw	s0,16(s0)
40000a7a:	479d                	li	a5,7
40000a7c:	413787b3          	sub	a5,a5,s3
40000a80:	cc1c                	sw	a5,24(s0)
40000a82:	d040                	sw	s0,36(s0)
40000a84:	865a                	mv	a2,s6
40000a86:	85d6                	mv	a1,s5
40000a88:	854a                	mv	a0,s2
40000a8a:	262010ef          	jal	ra,40001cec <pxPortInitialiseStack>
40000a8e:	c008                	sw	a0,0(s0)
40000a90:	000a0463          	beqz	s4,40000a98 <prvInitialiseNewTask+0xa4>
40000a94:	008a2023          	sw	s0,0(s4)
40000a98:	40f2                	lw	ra,28(sp)
40000a9a:	4462                	lw	s0,24(sp)
40000a9c:	44d2                	lw	s1,20(sp)
40000a9e:	4942                	lw	s2,16(sp)
40000aa0:	49b2                	lw	s3,12(sp)
40000aa2:	4a22                	lw	s4,8(sp)
40000aa4:	4a92                	lw	s5,4(sp)
40000aa6:	4b02                	lw	s6,0(sp)
40000aa8:	6105                	addi	sp,sp,32
40000aaa:	8082                	ret
40000aac:	d84ff0ef          	jal	ra,40000030 <vAssertCalled>
40000ab0:	4999                	li	s3,6
40000ab2:	b77d                	j	40000a60 <prvInitialiseNewTask+0x6c>

40000ab4 <prvInitialiseTaskLists>:
40000ab4:	1141                	addi	sp,sp,-16
40000ab6:	c606                	sw	ra,12(sp)
40000ab8:	c422                	sw	s0,8(sp)
40000aba:	4401                	li	s0,0
40000abc:	a831                	j	40000ad8 <prvInitialiseTaskLists+0x24>
40000abe:	00241793          	slli	a5,s0,0x2
40000ac2:	97a2                	add	a5,a5,s0
40000ac4:	00279713          	slli	a4,a5,0x2
40000ac8:	0000c517          	auipc	a0,0xc
40000acc:	83450513          	addi	a0,a0,-1996 # 4000c2fc <pxReadyTasksLists>
40000ad0:	953a                	add	a0,a0,a4
40000ad2:	fc8ff0ef          	jal	ra,4000029a <vListInitialise>
40000ad6:	0405                	addi	s0,s0,1
40000ad8:	4799                	li	a5,6
40000ada:	fe87f2e3          	bgeu	a5,s0,40000abe <prvInitialiseTaskLists+0xa>
40000ade:	94018513          	addi	a0,gp,-1728 # 4000c2e8 <xDelayedTaskList1>
40000ae2:	fb8ff0ef          	jal	ra,4000029a <vListInitialise>
40000ae6:	92c18513          	addi	a0,gp,-1748 # 4000c2d4 <xDelayedTaskList2>
40000aea:	fb0ff0ef          	jal	ra,4000029a <vListInitialise>
40000aee:	91818513          	addi	a0,gp,-1768 # 4000c2c0 <xPendingReadyList>
40000af2:	fa8ff0ef          	jal	ra,4000029a <vListInitialise>
40000af6:	0000b517          	auipc	a0,0xb
40000afa:	7b650513          	addi	a0,a0,1974 # 4000c2ac <xTasksWaitingTermination>
40000afe:	f9cff0ef          	jal	ra,4000029a <vListInitialise>
40000b02:	0000b517          	auipc	a0,0xb
40000b06:	79650513          	addi	a0,a0,1942 # 4000c298 <xSuspendedTaskList>
40000b0a:	f90ff0ef          	jal	ra,4000029a <vListInitialise>
40000b0e:	94018793          	addi	a5,gp,-1728 # 4000c2e8 <xDelayedTaskList1>
40000b12:	0000b717          	auipc	a4,0xb
40000b16:	6ef72b23          	sw	a5,1782(a4) # 4000c208 <pxDelayedTaskList>
40000b1a:	92c18793          	addi	a5,gp,-1748 # 4000c2d4 <xDelayedTaskList2>
40000b1e:	0000b717          	auipc	a4,0xb
40000b22:	6ef72323          	sw	a5,1766(a4) # 4000c204 <pxOverflowDelayedTaskList>
40000b26:	40b2                	lw	ra,12(sp)
40000b28:	4422                	lw	s0,8(sp)
40000b2a:	0141                	addi	sp,sp,16
40000b2c:	8082                	ret

40000b2e <prvAddNewTaskToReadyList>:
40000b2e:	1141                	addi	sp,sp,-16
40000b30:	c606                	sw	ra,12(sp)
40000b32:	c422                	sw	s0,8(sp)
40000b34:	842a                	mv	s0,a0
40000b36:	30047073          	csrci	mstatus,8
40000b3a:	0000b717          	auipc	a4,0xb
40000b3e:	67670713          	addi	a4,a4,1654 # 4000c1b0 <xCriticalNesting>
40000b42:	431c                	lw	a5,0(a4)
40000b44:	0785                	addi	a5,a5,1
40000b46:	c31c                	sw	a5,0(a4)
40000b48:	0000b717          	auipc	a4,0xb
40000b4c:	6b470713          	addi	a4,a4,1716 # 4000c1fc <uxCurrentNumberOfTasks>
40000b50:	431c                	lw	a5,0(a4)
40000b52:	0785                	addi	a5,a5,1
40000b54:	c31c                	sw	a5,0(a4)
40000b56:	0000b797          	auipc	a5,0xb
40000b5a:	6b67a783          	lw	a5,1718(a5) # 4000c20c <pxCurrentTCB>
40000b5e:	c39d                	beqz	a5,40000b84 <prvAddNewTaskToReadyList+0x56>
40000b60:	0000b797          	auipc	a5,0xb
40000b64:	6907a783          	lw	a5,1680(a5) # 4000c1f0 <xSchedulerRunning>
40000b68:	eb8d                	bnez	a5,40000b9a <prvAddNewTaskToReadyList+0x6c>
40000b6a:	0000b797          	auipc	a5,0xb
40000b6e:	6a27a783          	lw	a5,1698(a5) # 4000c20c <pxCurrentTCB>
40000b72:	57d8                	lw	a4,44(a5)
40000b74:	555c                	lw	a5,44(a0)
40000b76:	02e7e263          	bltu	a5,a4,40000b9a <prvAddNewTaskToReadyList+0x6c>
40000b7a:	0000b797          	auipc	a5,0xb
40000b7e:	68a7a923          	sw	a0,1682(a5) # 4000c20c <pxCurrentTCB>
40000b82:	a821                	j	40000b9a <prvAddNewTaskToReadyList+0x6c>
40000b84:	0000b797          	auipc	a5,0xb
40000b88:	68a7a423          	sw	a0,1672(a5) # 4000c20c <pxCurrentTCB>
40000b8c:	0000b717          	auipc	a4,0xb
40000b90:	67072703          	lw	a4,1648(a4) # 4000c1fc <uxCurrentNumberOfTasks>
40000b94:	4785                	li	a5,1
40000b96:	08f70a63          	beq	a4,a5,40000c2a <prvAddNewTaskToReadyList+0xfc>
40000b9a:	0000b717          	auipc	a4,0xb
40000b9e:	64670713          	addi	a4,a4,1606 # 4000c1e0 <uxTaskNumber>
40000ba2:	431c                	lw	a5,0(a4)
40000ba4:	0785                	addi	a5,a5,1
40000ba6:	c31c                	sw	a5,0(a4)
40000ba8:	5458                	lw	a4,44(s0)
40000baa:	4785                	li	a5,1
40000bac:	00e797b3          	sll	a5,a5,a4
40000bb0:	0000b697          	auipc	a3,0xb
40000bb4:	64468693          	addi	a3,a3,1604 # 4000c1f4 <uxTopReadyPriority>
40000bb8:	4290                	lw	a2,0(a3)
40000bba:	8fd1                	or	a5,a5,a2
40000bbc:	c29c                	sw	a5,0(a3)
40000bbe:	0000b697          	auipc	a3,0xb
40000bc2:	73e68693          	addi	a3,a3,1854 # 4000c2fc <pxReadyTasksLists>
40000bc6:	00271793          	slli	a5,a4,0x2
40000bca:	97ba                	add	a5,a5,a4
40000bcc:	078a                	slli	a5,a5,0x2
40000bce:	97b6                	add	a5,a5,a3
40000bd0:	43dc                	lw	a5,4(a5)
40000bd2:	c41c                	sw	a5,8(s0)
40000bd4:	4790                	lw	a2,8(a5)
40000bd6:	c450                	sw	a2,12(s0)
40000bd8:	00440713          	addi	a4,s0,4
40000bdc:	c258                	sw	a4,4(a2)
40000bde:	c798                	sw	a4,8(a5)
40000be0:	5450                	lw	a2,44(s0)
40000be2:	00261793          	slli	a5,a2,0x2
40000be6:	00c78733          	add	a4,a5,a2
40000bea:	070a                	slli	a4,a4,0x2
40000bec:	9736                	add	a4,a4,a3
40000bee:	c858                	sw	a4,20(s0)
40000bf0:	4318                	lw	a4,0(a4)
40000bf2:	0705                	addi	a4,a4,1
40000bf4:	97b2                	add	a5,a5,a2
40000bf6:	078a                	slli	a5,a5,0x2
40000bf8:	96be                	add	a3,a3,a5
40000bfa:	c298                	sw	a4,0(a3)
40000bfc:	0000b717          	auipc	a4,0xb
40000c00:	5b470713          	addi	a4,a4,1460 # 4000c1b0 <xCriticalNesting>
40000c04:	431c                	lw	a5,0(a4)
40000c06:	17fd                	addi	a5,a5,-1
40000c08:	c31c                	sw	a5,0(a4)
40000c0a:	e399                	bnez	a5,40000c10 <prvAddNewTaskToReadyList+0xe2>
40000c0c:	30046073          	csrsi	mstatus,8
40000c10:	0000b797          	auipc	a5,0xb
40000c14:	5e07a783          	lw	a5,1504(a5) # 4000c1f0 <xSchedulerRunning>
40000c18:	c789                	beqz	a5,40000c22 <prvAddNewTaskToReadyList+0xf4>
40000c1a:	0000b797          	auipc	a5,0xb
40000c1e:	5f27a783          	lw	a5,1522(a5) # 4000c20c <pxCurrentTCB>
40000c22:	40b2                	lw	ra,12(sp)
40000c24:	4422                	lw	s0,8(sp)
40000c26:	0141                	addi	sp,sp,16
40000c28:	8082                	ret
40000c2a:	3569                	jal	40000ab4 <prvInitialiseTaskLists>
40000c2c:	b7bd                	j	40000b9a <prvAddNewTaskToReadyList+0x6c>

40000c2e <prvCheckTasksWaitingTermination>:
40000c2e:	0000b797          	auipc	a5,0xb
40000c32:	5d27a783          	lw	a5,1490(a5) # 4000c200 <uxDeletedTasksWaitingCleanUp>
40000c36:	c7bd                	beqz	a5,40000ca4 <prvCheckTasksWaitingTermination+0x76>
40000c38:	1141                	addi	sp,sp,-16
40000c3a:	c606                	sw	ra,12(sp)
40000c3c:	c422                	sw	s0,8(sp)
40000c3e:	c226                	sw	s1,4(sp)
40000c40:	a801                	j	40000c50 <prvCheckTasksWaitingTermination+0x22>
40000c42:	8526                	mv	a0,s1
40000c44:	3b51                	jal	400009d8 <prvDeleteTCB>
40000c46:	0000b797          	auipc	a5,0xb
40000c4a:	5ba7a783          	lw	a5,1466(a5) # 4000c200 <uxDeletedTasksWaitingCleanUp>
40000c4e:	c7b1                	beqz	a5,40000c9a <prvCheckTasksWaitingTermination+0x6c>
40000c50:	30047073          	csrci	mstatus,8
40000c54:	0000b417          	auipc	s0,0xb
40000c58:	55c40413          	addi	s0,s0,1372 # 4000c1b0 <xCriticalNesting>
40000c5c:	401c                	lw	a5,0(s0)
40000c5e:	0785                	addi	a5,a5,1
40000c60:	c01c                	sw	a5,0(s0)
40000c62:	9101a783          	lw	a5,-1776(gp) # 4000c2b8 <xTasksWaitingTermination+0xc>
40000c66:	47c4                	lw	s1,12(a5)
40000c68:	00448513          	addi	a0,s1,4
40000c6c:	e76ff0ef          	jal	ra,400002e2 <uxListRemove>
40000c70:	0000b717          	auipc	a4,0xb
40000c74:	58c70713          	addi	a4,a4,1420 # 4000c1fc <uxCurrentNumberOfTasks>
40000c78:	431c                	lw	a5,0(a4)
40000c7a:	17fd                	addi	a5,a5,-1
40000c7c:	c31c                	sw	a5,0(a4)
40000c7e:	0000b717          	auipc	a4,0xb
40000c82:	58270713          	addi	a4,a4,1410 # 4000c200 <uxDeletedTasksWaitingCleanUp>
40000c86:	431c                	lw	a5,0(a4)
40000c88:	17fd                	addi	a5,a5,-1
40000c8a:	c31c                	sw	a5,0(a4)
40000c8c:	401c                	lw	a5,0(s0)
40000c8e:	17fd                	addi	a5,a5,-1
40000c90:	c01c                	sw	a5,0(s0)
40000c92:	fbc5                	bnez	a5,40000c42 <prvCheckTasksWaitingTermination+0x14>
40000c94:	30046073          	csrsi	mstatus,8
40000c98:	b76d                	j	40000c42 <prvCheckTasksWaitingTermination+0x14>
40000c9a:	40b2                	lw	ra,12(sp)
40000c9c:	4422                	lw	s0,8(sp)
40000c9e:	4492                	lw	s1,4(sp)
40000ca0:	0141                	addi	sp,sp,16
40000ca2:	8082                	ret
40000ca4:	8082                	ret

40000ca6 <prvIdleTask>:
40000ca6:	1141                	addi	sp,sp,-16
40000ca8:	c606                	sw	ra,12(sp)
40000caa:	3751                	jal	40000c2e <prvCheckTasksWaitingTermination>
40000cac:	00000073          	ecall
40000cb0:	bfed                	j	40000caa <prvIdleTask+0x4>

40000cb2 <prvAddCurrentTaskToDelayedList>:
40000cb2:	1141                	addi	sp,sp,-16
40000cb4:	c606                	sw	ra,12(sp)
40000cb6:	c422                	sw	s0,8(sp)
40000cb8:	c226                	sw	s1,4(sp)
40000cba:	c04a                	sw	s2,0(sp)
40000cbc:	842a                	mv	s0,a0
40000cbe:	84ae                	mv	s1,a1
40000cc0:	0000b917          	auipc	s2,0xb
40000cc4:	53892903          	lw	s2,1336(s2) # 4000c1f8 <xTickCount>
40000cc8:	0000b797          	auipc	a5,0xb
40000ccc:	54478793          	addi	a5,a5,1348 # 4000c20c <pxCurrentTCB>
40000cd0:	4398                	lw	a4,0(a5)
40000cd2:	040708a3          	sb	zero,81(a4)
40000cd6:	4388                	lw	a0,0(a5)
40000cd8:	0511                	addi	a0,a0,4
40000cda:	e08ff0ef          	jal	ra,400002e2 <uxListRemove>
40000cde:	e115                	bnez	a0,40000d02 <prvAddCurrentTaskToDelayedList+0x50>
40000ce0:	0000b797          	auipc	a5,0xb
40000ce4:	52c7a783          	lw	a5,1324(a5) # 4000c20c <pxCurrentTCB>
40000ce8:	57d8                	lw	a4,44(a5)
40000cea:	4785                	li	a5,1
40000cec:	00e797b3          	sll	a5,a5,a4
40000cf0:	fff7c793          	not	a5,a5
40000cf4:	0000b697          	auipc	a3,0xb
40000cf8:	50068693          	addi	a3,a3,1280 # 4000c1f4 <uxTopReadyPriority>
40000cfc:	4298                	lw	a4,0(a3)
40000cfe:	8ff9                	and	a5,a5,a4
40000d00:	c29c                	sw	a5,0(a3)
40000d02:	57fd                	li	a5,-1
40000d04:	02f40b63          	beq	s0,a5,40000d3a <prvAddCurrentTaskToDelayedList+0x88>
40000d08:	944a                	add	s0,s0,s2
40000d0a:	0000b797          	auipc	a5,0xb
40000d0e:	5027a783          	lw	a5,1282(a5) # 4000c20c <pxCurrentTCB>
40000d12:	c3c0                	sw	s0,4(a5)
40000d14:	05247e63          	bgeu	s0,s2,40000d70 <prvAddCurrentTaskToDelayedList+0xbe>
40000d18:	0000b517          	auipc	a0,0xb
40000d1c:	4ec52503          	lw	a0,1260(a0) # 4000c204 <pxOverflowDelayedTaskList>
40000d20:	0000b597          	auipc	a1,0xb
40000d24:	4ec5a583          	lw	a1,1260(a1) # 4000c20c <pxCurrentTCB>
40000d28:	0591                	addi	a1,a1,4
40000d2a:	d8aff0ef          	jal	ra,400002b4 <vListInsert>
40000d2e:	40b2                	lw	ra,12(sp)
40000d30:	4422                	lw	s0,8(sp)
40000d32:	4492                	lw	s1,4(sp)
40000d34:	4902                	lw	s2,0(sp)
40000d36:	0141                	addi	sp,sp,16
40000d38:	8082                	ret
40000d3a:	d4f9                	beqz	s1,40000d08 <prvAddCurrentTaskToDelayedList+0x56>
40000d3c:	0000b717          	auipc	a4,0xb
40000d40:	55c70713          	addi	a4,a4,1372 # 4000c298 <xSuspendedTaskList>
40000d44:	4354                	lw	a3,4(a4)
40000d46:	0000b797          	auipc	a5,0xb
40000d4a:	4c678793          	addi	a5,a5,1222 # 4000c20c <pxCurrentTCB>
40000d4e:	4390                	lw	a2,0(a5)
40000d50:	c614                	sw	a3,8(a2)
40000d52:	4390                	lw	a2,0(a5)
40000d54:	468c                	lw	a1,8(a3)
40000d56:	c64c                	sw	a1,12(a2)
40000d58:	4390                	lw	a2,0(a5)
40000d5a:	0611                	addi	a2,a2,4
40000d5c:	c1d0                	sw	a2,4(a1)
40000d5e:	4390                	lw	a2,0(a5)
40000d60:	0611                	addi	a2,a2,4
40000d62:	c690                	sw	a2,8(a3)
40000d64:	439c                	lw	a5,0(a5)
40000d66:	cbd8                	sw	a4,20(a5)
40000d68:	431c                	lw	a5,0(a4)
40000d6a:	0785                	addi	a5,a5,1
40000d6c:	c31c                	sw	a5,0(a4)
40000d6e:	b7c1                	j	40000d2e <prvAddCurrentTaskToDelayedList+0x7c>
40000d70:	0000b517          	auipc	a0,0xb
40000d74:	49852503          	lw	a0,1176(a0) # 4000c208 <pxDelayedTaskList>
40000d78:	0000b597          	auipc	a1,0xb
40000d7c:	4945a583          	lw	a1,1172(a1) # 4000c20c <pxCurrentTCB>
40000d80:	0591                	addi	a1,a1,4
40000d82:	d32ff0ef          	jal	ra,400002b4 <vListInsert>
40000d86:	0000b797          	auipc	a5,0xb
40000d8a:	4567a783          	lw	a5,1110(a5) # 4000c1dc <xNextTaskUnblockTime>
40000d8e:	faf470e3          	bgeu	s0,a5,40000d2e <prvAddCurrentTaskToDelayedList+0x7c>
40000d92:	0000b797          	auipc	a5,0xb
40000d96:	4487a523          	sw	s0,1098(a5) # 4000c1dc <xNextTaskUnblockTime>
40000d9a:	bf51                	j	40000d2e <prvAddCurrentTaskToDelayedList+0x7c>

40000d9c <xTaskCreate>:
40000d9c:	7179                	addi	sp,sp,-48
40000d9e:	d606                	sw	ra,44(sp)
40000da0:	d422                	sw	s0,40(sp)
40000da2:	d226                	sw	s1,36(sp)
40000da4:	d04a                	sw	s2,32(sp)
40000da6:	ce4e                	sw	s3,28(sp)
40000da8:	cc52                	sw	s4,24(sp)
40000daa:	ca56                	sw	s5,20(sp)
40000dac:	c85a                	sw	s6,16(sp)
40000dae:	c65e                	sw	s7,12(sp)
40000db0:	89aa                	mv	s3,a0
40000db2:	8a2e                	mv	s4,a1
40000db4:	84b2                	mv	s1,a2
40000db6:	8ab6                	mv	s5,a3
40000db8:	8b3a                	mv	s6,a4
40000dba:	8bbe                	mv	s7,a5
40000dbc:	00261513          	slli	a0,a2,0x2
40000dc0:	563000ef          	jal	ra,40001b22 <pvPortMalloc>
40000dc4:	c129                	beqz	a0,40000e06 <xTaskCreate+0x6a>
40000dc6:	842a                	mv	s0,a0
40000dc8:	05400513          	li	a0,84
40000dcc:	557000ef          	jal	ra,40001b22 <pvPortMalloc>
40000dd0:	892a                	mv	s2,a0
40000dd2:	c50d                	beqz	a0,40000dfc <xTaskCreate+0x60>
40000dd4:	05400613          	li	a2,84
40000dd8:	4581                	li	a1,0
40000dda:	392010ef          	jal	ra,4000216c <memset>
40000dde:	02892823          	sw	s0,48(s2)
40000de2:	4881                	li	a7,0
40000de4:	884a                	mv	a6,s2
40000de6:	87de                	mv	a5,s7
40000de8:	875a                	mv	a4,s6
40000dea:	86d6                	mv	a3,s5
40000dec:	8626                	mv	a2,s1
40000dee:	85d2                	mv	a1,s4
40000df0:	854e                	mv	a0,s3
40000df2:	3109                	jal	400009f4 <prvInitialiseNewTask>
40000df4:	854a                	mv	a0,s2
40000df6:	3b25                	jal	40000b2e <prvAddNewTaskToReadyList>
40000df8:	4505                	li	a0,1
40000dfa:	a039                	j	40000e08 <xTaskCreate+0x6c>
40000dfc:	8522                	mv	a0,s0
40000dfe:	64f000ef          	jal	ra,40001c4c <vPortFree>
40000e02:	557d                	li	a0,-1
40000e04:	a011                	j	40000e08 <xTaskCreate+0x6c>
40000e06:	557d                	li	a0,-1
40000e08:	50b2                	lw	ra,44(sp)
40000e0a:	5422                	lw	s0,40(sp)
40000e0c:	5492                	lw	s1,36(sp)
40000e0e:	5902                	lw	s2,32(sp)
40000e10:	49f2                	lw	s3,28(sp)
40000e12:	4a62                	lw	s4,24(sp)
40000e14:	4ad2                	lw	s5,20(sp)
40000e16:	4b42                	lw	s6,16(sp)
40000e18:	4bb2                	lw	s7,12(sp)
40000e1a:	6145                	addi	sp,sp,48
40000e1c:	8082                	ret

40000e1e <vTaskStartScheduler>:
40000e1e:	1141                	addi	sp,sp,-16
40000e20:	c606                	sw	ra,12(sp)
40000e22:	0000b797          	auipc	a5,0xb
40000e26:	3b678793          	addi	a5,a5,950 # 4000c1d8 <xIdleTaskHandle>
40000e2a:	4701                	li	a4,0
40000e2c:	4681                	li	a3,0
40000e2e:	20000613          	li	a2,512
40000e32:	3ffff597          	auipc	a1,0x3ffff
40000e36:	30a58593          	addi	a1,a1,778 # 8000013c <_etext+0x68>
40000e3a:	00000517          	auipc	a0,0x0
40000e3e:	e6c50513          	addi	a0,a0,-404 # 40000ca6 <prvIdleTask>
40000e42:	3fa9                	jal	40000d9c <xTaskCreate>
40000e44:	4785                	li	a5,1
40000e46:	00f50c63          	beq	a0,a5,40000e5e <vTaskStartScheduler+0x40>
40000e4a:	57fd                	li	a5,-1
40000e4c:	04f50163          	beq	a0,a5,40000e8e <vTaskStartScheduler+0x70>
40000e50:	0000b797          	auipc	a5,0xb
40000e54:	3587a783          	lw	a5,856(a5) # 4000c1a8 <uxTopUsedPriority>
40000e58:	40b2                	lw	ra,12(sp)
40000e5a:	0141                	addi	sp,sp,16
40000e5c:	8082                	ret
40000e5e:	3b9000ef          	jal	ra,40001a16 <xTimerCreateTimerTask>
40000e62:	4785                	li	a5,1
40000e64:	fef513e3          	bne	a0,a5,40000e4a <vTaskStartScheduler+0x2c>
40000e68:	30047073          	csrci	mstatus,8
40000e6c:	57fd                	li	a5,-1
40000e6e:	0000b717          	auipc	a4,0xb
40000e72:	36f72723          	sw	a5,878(a4) # 4000c1dc <xNextTaskUnblockTime>
40000e76:	4785                	li	a5,1
40000e78:	0000b717          	auipc	a4,0xb
40000e7c:	36f72c23          	sw	a5,888(a4) # 4000c1f0 <xSchedulerRunning>
40000e80:	0000b797          	auipc	a5,0xb
40000e84:	3607ac23          	sw	zero,888(a5) # 4000c1f8 <xTickCount>
40000e88:	643000ef          	jal	ra,40001cca <xPortStartScheduler>
40000e8c:	b7d1                	j	40000e50 <vTaskStartScheduler+0x32>
40000e8e:	9a2ff0ef          	jal	ra,40000030 <vAssertCalled>
40000e92:	bf7d                	j	40000e50 <vTaskStartScheduler+0x32>

40000e94 <vTaskSuspendAll>:
40000e94:	0000b717          	auipc	a4,0xb
40000e98:	34070713          	addi	a4,a4,832 # 4000c1d4 <uxSchedulerSuspended>
40000e9c:	431c                	lw	a5,0(a4)
40000e9e:	0785                	addi	a5,a5,1
40000ea0:	c31c                	sw	a5,0(a4)
40000ea2:	8082                	ret

40000ea4 <xTaskGetTickCount>:
40000ea4:	0000b517          	auipc	a0,0xb
40000ea8:	35452503          	lw	a0,852(a0) # 4000c1f8 <xTickCount>
40000eac:	8082                	ret

40000eae <pcTaskGetName>:
40000eae:	1141                	addi	sp,sp,-16
40000eb0:	c606                	sw	ra,12(sp)
40000eb2:	c422                	sw	s0,8(sp)
40000eb4:	842a                	mv	s0,a0
40000eb6:	c519                	beqz	a0,40000ec4 <pcTaskGetName+0x16>
40000eb8:	03440513          	addi	a0,s0,52
40000ebc:	40b2                	lw	ra,12(sp)
40000ebe:	4422                	lw	s0,8(sp)
40000ec0:	0141                	addi	sp,sp,16
40000ec2:	8082                	ret
40000ec4:	0000b417          	auipc	s0,0xb
40000ec8:	34842403          	lw	s0,840(s0) # 4000c20c <pxCurrentTCB>
40000ecc:	f475                	bnez	s0,40000eb8 <pcTaskGetName+0xa>
40000ece:	962ff0ef          	jal	ra,40000030 <vAssertCalled>
40000ed2:	b7dd                	j	40000eb8 <pcTaskGetName+0xa>

40000ed4 <xTaskIncrementTick>:
40000ed4:	1141                	addi	sp,sp,-16
40000ed6:	c606                	sw	ra,12(sp)
40000ed8:	c422                	sw	s0,8(sp)
40000eda:	0000b797          	auipc	a5,0xb
40000ede:	2fa7a783          	lw	a5,762(a5) # 4000c1d4 <uxSchedulerSuspended>
40000ee2:	14079663          	bnez	a5,4000102e <xTaskIncrementTick+0x15a>
40000ee6:	0000b797          	auipc	a5,0xb
40000eea:	31278793          	addi	a5,a5,786 # 4000c1f8 <xTickCount>
40000eee:	4380                	lw	s0,0(a5)
40000ef0:	0405                	addi	s0,s0,1
40000ef2:	c380                	sw	s0,0(a5)
40000ef4:	ec05                	bnez	s0,40000f2c <xTaskIncrementTick+0x58>
40000ef6:	0000b797          	auipc	a5,0xb
40000efa:	3127a783          	lw	a5,786(a5) # 4000c208 <pxDelayedTaskList>
40000efe:	439c                	lw	a5,0(a5)
40000f00:	e7b1                	bnez	a5,40000f4c <xTaskIncrementTick+0x78>
40000f02:	0000b717          	auipc	a4,0xb
40000f06:	30670713          	addi	a4,a4,774 # 4000c208 <pxDelayedTaskList>
40000f0a:	4314                	lw	a3,0(a4)
40000f0c:	0000b797          	auipc	a5,0xb
40000f10:	2f878793          	addi	a5,a5,760 # 4000c204 <pxOverflowDelayedTaskList>
40000f14:	4390                	lw	a2,0(a5)
40000f16:	c310                	sw	a2,0(a4)
40000f18:	c394                	sw	a3,0(a5)
40000f1a:	0000b717          	auipc	a4,0xb
40000f1e:	2ca70713          	addi	a4,a4,714 # 4000c1e4 <xNumOfOverflows>
40000f22:	431c                	lw	a5,0(a4)
40000f24:	0785                	addi	a5,a5,1
40000f26:	c31c                	sw	a5,0(a4)
40000f28:	a83ff0ef          	jal	ra,400009aa <prvResetNextTaskUnblockTime>
40000f2c:	0000b797          	auipc	a5,0xb
40000f30:	2b07a783          	lw	a5,688(a5) # 4000c1dc <xNextTaskUnblockTime>
40000f34:	08f47c63          	bgeu	s0,a5,40000fcc <xTaskIncrementTick+0xf8>
40000f38:	0000b797          	auipc	a5,0xb
40000f3c:	2b47a783          	lw	a5,692(a5) # 4000c1ec <xPendedTicks>
40000f40:	c7e5                	beqz	a5,40001028 <xTaskIncrementTick+0x154>
40000f42:	4501                	li	a0,0
40000f44:	40b2                	lw	ra,12(sp)
40000f46:	4422                	lw	s0,8(sp)
40000f48:	0141                	addi	sp,sp,16
40000f4a:	8082                	ret
40000f4c:	8e4ff0ef          	jal	ra,40000030 <vAssertCalled>
40000f50:	bf4d                	j	40000f02 <xTaskIncrementTick+0x2e>
40000f52:	57fd                	li	a5,-1
40000f54:	0000b717          	auipc	a4,0xb
40000f58:	28f72423          	sw	a5,648(a4) # 4000c1dc <xNextTaskUnblockTime>
40000f5c:	bff1                	j	40000f38 <xTaskIncrementTick+0x64>
40000f5e:	0000b797          	auipc	a5,0xb
40000f62:	26e7af23          	sw	a4,638(a5) # 4000c1dc <xNextTaskUnblockTime>
40000f66:	bfc9                	j	40000f38 <xTaskIncrementTick+0x64>
40000f68:	47d4                	lw	a3,12(a5)
40000f6a:	c354                	sw	a3,4(a4)
40000f6c:	a851                	j	40001000 <xTaskIncrementTick+0x12c>
40000f6e:	0207a423          	sw	zero,40(a5)
40000f72:	4314                	lw	a3,0(a4)
40000f74:	16fd                	addi	a3,a3,-1
40000f76:	c314                	sw	a3,0(a4)
40000f78:	57d4                	lw	a3,44(a5)
40000f7a:	4705                	li	a4,1
40000f7c:	00d71733          	sll	a4,a4,a3
40000f80:	0000b617          	auipc	a2,0xb
40000f84:	27460613          	addi	a2,a2,628 # 4000c1f4 <uxTopReadyPriority>
40000f88:	4208                	lw	a0,0(a2)
40000f8a:	8f49                	or	a4,a4,a0
40000f8c:	c218                	sw	a4,0(a2)
40000f8e:	0000b717          	auipc	a4,0xb
40000f92:	36e70713          	addi	a4,a4,878 # 4000c2fc <pxReadyTasksLists>
40000f96:	00269613          	slli	a2,a3,0x2
40000f9a:	9636                	add	a2,a2,a3
40000f9c:	00261693          	slli	a3,a2,0x2
40000fa0:	96ba                	add	a3,a3,a4
40000fa2:	42d4                	lw	a3,4(a3)
40000fa4:	c794                	sw	a3,8(a5)
40000fa6:	4690                	lw	a2,8(a3)
40000fa8:	c7d0                	sw	a2,12(a5)
40000faa:	c24c                	sw	a1,4(a2)
40000fac:	c68c                	sw	a1,8(a3)
40000fae:	57cc                	lw	a1,44(a5)
40000fb0:	00259693          	slli	a3,a1,0x2
40000fb4:	00b68533          	add	a0,a3,a1
40000fb8:	00251613          	slli	a2,a0,0x2
40000fbc:	963a                	add	a2,a2,a4
40000fbe:	cbd0                	sw	a2,20(a5)
40000fc0:	4210                	lw	a2,0(a2)
40000fc2:	0605                	addi	a2,a2,1
40000fc4:	00251693          	slli	a3,a0,0x2
40000fc8:	9736                	add	a4,a4,a3
40000fca:	c310                	sw	a2,0(a4)
40000fcc:	0000b797          	auipc	a5,0xb
40000fd0:	23c7a783          	lw	a5,572(a5) # 4000c208 <pxDelayedTaskList>
40000fd4:	439c                	lw	a5,0(a5)
40000fd6:	dfb5                	beqz	a5,40000f52 <xTaskIncrementTick+0x7e>
40000fd8:	0000b797          	auipc	a5,0xb
40000fdc:	2307a783          	lw	a5,560(a5) # 4000c208 <pxDelayedTaskList>
40000fe0:	47dc                	lw	a5,12(a5)
40000fe2:	47dc                	lw	a5,12(a5)
40000fe4:	43d8                	lw	a4,4(a5)
40000fe6:	f6e46ce3          	bltu	s0,a4,40000f5e <xTaskIncrementTick+0x8a>
40000fea:	4bd8                	lw	a4,20(a5)
40000fec:	4790                	lw	a2,8(a5)
40000fee:	47d4                	lw	a3,12(a5)
40000ff0:	c614                	sw	a3,8(a2)
40000ff2:	4790                	lw	a2,8(a5)
40000ff4:	c2d0                	sw	a2,4(a3)
40000ff6:	4354                	lw	a3,4(a4)
40000ff8:	00478593          	addi	a1,a5,4
40000ffc:	f6b686e3          	beq	a3,a1,40000f68 <xTaskIncrementTick+0x94>
40001000:	0007aa23          	sw	zero,20(a5)
40001004:	4314                	lw	a3,0(a4)
40001006:	16fd                	addi	a3,a3,-1
40001008:	c314                	sw	a3,0(a4)
4000100a:	5798                	lw	a4,40(a5)
4000100c:	d735                	beqz	a4,40000f78 <xTaskIncrementTick+0xa4>
4000100e:	4fd0                	lw	a2,28(a5)
40001010:	5394                	lw	a3,32(a5)
40001012:	c614                	sw	a3,8(a2)
40001014:	4fd0                	lw	a2,28(a5)
40001016:	c2d0                	sw	a2,4(a3)
40001018:	4350                	lw	a2,4(a4)
4000101a:	01878693          	addi	a3,a5,24
4000101e:	f4d618e3          	bne	a2,a3,40000f6e <xTaskIncrementTick+0x9a>
40001022:	5394                	lw	a3,32(a5)
40001024:	c354                	sw	a3,4(a4)
40001026:	b7a1                	j	40000f6e <xTaskIncrementTick+0x9a>
40001028:	806ff0ef          	jal	ra,4000002e <vApplicationTickHook>
4000102c:	bf19                	j	40000f42 <xTaskIncrementTick+0x6e>
4000102e:	0000b717          	auipc	a4,0xb
40001032:	1be70713          	addi	a4,a4,446 # 4000c1ec <xPendedTicks>
40001036:	431c                	lw	a5,0(a4)
40001038:	0785                	addi	a5,a5,1
4000103a:	c31c                	sw	a5,0(a4)
4000103c:	ff3fe0ef          	jal	ra,4000002e <vApplicationTickHook>
40001040:	b709                	j	40000f42 <xTaskIncrementTick+0x6e>

40001042 <xTaskResumeAll>:
40001042:	1141                	addi	sp,sp,-16
40001044:	c606                	sw	ra,12(sp)
40001046:	c422                	sw	s0,8(sp)
40001048:	0000b797          	auipc	a5,0xb
4000104c:	18c7a783          	lw	a5,396(a5) # 4000c1d4 <uxSchedulerSuspended>
40001050:	c7f5                	beqz	a5,4000113c <xTaskResumeAll+0xfa>
40001052:	30047073          	csrci	mstatus,8
40001056:	0000b717          	auipc	a4,0xb
4000105a:	15a70713          	addi	a4,a4,346 # 4000c1b0 <xCriticalNesting>
4000105e:	431c                	lw	a5,0(a4)
40001060:	0785                	addi	a5,a5,1
40001062:	c31c                	sw	a5,0(a4)
40001064:	0000b797          	auipc	a5,0xb
40001068:	17078793          	addi	a5,a5,368 # 4000c1d4 <uxSchedulerSuspended>
4000106c:	4398                	lw	a4,0(a5)
4000106e:	177d                	addi	a4,a4,-1
40001070:	c398                	sw	a4,0(a5)
40001072:	439c                	lw	a5,0(a5)
40001074:	0e079963          	bnez	a5,40001166 <xTaskResumeAll+0x124>
40001078:	0000b797          	auipc	a5,0xb
4000107c:	1847a783          	lw	a5,388(a5) # 4000c1fc <uxCurrentNumberOfTasks>
40001080:	c3fd                	beqz	a5,40001166 <xTaskResumeAll+0x124>
40001082:	4781                	li	a5,0
40001084:	9181a703          	lw	a4,-1768(gp) # 4000c2c0 <xPendingReadyList>
40001088:	c379                	beqz	a4,4000114e <xTaskResumeAll+0x10c>
4000108a:	9241a783          	lw	a5,-1756(gp) # 4000c2cc <xPendingReadyList+0xc>
4000108e:	47dc                	lw	a5,12(a5)
40001090:	5798                	lw	a4,40(a5)
40001092:	4fd0                	lw	a2,28(a5)
40001094:	5394                	lw	a3,32(a5)
40001096:	c614                	sw	a3,8(a2)
40001098:	4fd0                	lw	a2,28(a5)
4000109a:	c2d0                	sw	a2,4(a3)
4000109c:	4350                	lw	a2,4(a4)
4000109e:	01878693          	addi	a3,a5,24
400010a2:	0ad60063          	beq	a2,a3,40001142 <xTaskResumeAll+0x100>
400010a6:	0207a423          	sw	zero,40(a5)
400010aa:	4314                	lw	a3,0(a4)
400010ac:	16fd                	addi	a3,a3,-1
400010ae:	c314                	sw	a3,0(a4)
400010b0:	4bd8                	lw	a4,20(a5)
400010b2:	4790                	lw	a2,8(a5)
400010b4:	47d4                	lw	a3,12(a5)
400010b6:	c614                	sw	a3,8(a2)
400010b8:	4790                	lw	a2,8(a5)
400010ba:	c2d0                	sw	a2,4(a3)
400010bc:	4350                	lw	a2,4(a4)
400010be:	00478693          	addi	a3,a5,4
400010c2:	08d60363          	beq	a2,a3,40001148 <xTaskResumeAll+0x106>
400010c6:	0007aa23          	sw	zero,20(a5)
400010ca:	4310                	lw	a2,0(a4)
400010cc:	167d                	addi	a2,a2,-1
400010ce:	c310                	sw	a2,0(a4)
400010d0:	57cc                	lw	a1,44(a5)
400010d2:	4705                	li	a4,1
400010d4:	00b71733          	sll	a4,a4,a1
400010d8:	0000b617          	auipc	a2,0xb
400010dc:	11c60613          	addi	a2,a2,284 # 4000c1f4 <uxTopReadyPriority>
400010e0:	4208                	lw	a0,0(a2)
400010e2:	8f49                	or	a4,a4,a0
400010e4:	c218                	sw	a4,0(a2)
400010e6:	0000b617          	auipc	a2,0xb
400010ea:	21660613          	addi	a2,a2,534 # 4000c2fc <pxReadyTasksLists>
400010ee:	00259713          	slli	a4,a1,0x2
400010f2:	972e                	add	a4,a4,a1
400010f4:	070a                	slli	a4,a4,0x2
400010f6:	9732                	add	a4,a4,a2
400010f8:	4358                	lw	a4,4(a4)
400010fa:	c798                	sw	a4,8(a5)
400010fc:	470c                	lw	a1,8(a4)
400010fe:	c7cc                	sw	a1,12(a5)
40001100:	c1d4                	sw	a3,4(a1)
40001102:	c714                	sw	a3,8(a4)
40001104:	57cc                	lw	a1,44(a5)
40001106:	00259713          	slli	a4,a1,0x2
4000110a:	00b706b3          	add	a3,a4,a1
4000110e:	068a                	slli	a3,a3,0x2
40001110:	96b2                	add	a3,a3,a2
40001112:	cbd4                	sw	a3,20(a5)
40001114:	4294                	lw	a3,0(a3)
40001116:	0685                	addi	a3,a3,1
40001118:	972e                	add	a4,a4,a1
4000111a:	070a                	slli	a4,a4,0x2
4000111c:	963a                	add	a2,a2,a4
4000111e:	c214                	sw	a3,0(a2)
40001120:	57d4                	lw	a3,44(a5)
40001122:	0000b717          	auipc	a4,0xb
40001126:	0ea72703          	lw	a4,234(a4) # 4000c20c <pxCurrentTCB>
4000112a:	5758                	lw	a4,44(a4)
4000112c:	f4e6ece3          	bltu	a3,a4,40001084 <xTaskResumeAll+0x42>
40001130:	4705                	li	a4,1
40001132:	0000b697          	auipc	a3,0xb
40001136:	0ae6ab23          	sw	a4,182(a3) # 4000c1e8 <xYieldPending>
4000113a:	b7a9                	j	40001084 <xTaskResumeAll+0x42>
4000113c:	ef5fe0ef          	jal	ra,40000030 <vAssertCalled>
40001140:	bf09                	j	40001052 <xTaskResumeAll+0x10>
40001142:	5394                	lw	a3,32(a5)
40001144:	c354                	sw	a3,4(a4)
40001146:	b785                	j	400010a6 <xTaskResumeAll+0x64>
40001148:	47d0                	lw	a2,12(a5)
4000114a:	c350                	sw	a2,4(a4)
4000114c:	bfad                	j	400010c6 <xTaskResumeAll+0x84>
4000114e:	c399                	beqz	a5,40001154 <xTaskResumeAll+0x112>
40001150:	85bff0ef          	jal	ra,400009aa <prvResetNextTaskUnblockTime>
40001154:	0000b417          	auipc	s0,0xb
40001158:	09842403          	lw	s0,152(s0) # 4000c1ec <xPendedTicks>
4000115c:	e415                	bnez	s0,40001188 <xTaskResumeAll+0x146>
4000115e:	0000b797          	auipc	a5,0xb
40001162:	08a7a783          	lw	a5,138(a5) # 4000c1e8 <xYieldPending>
40001166:	0000b717          	auipc	a4,0xb
4000116a:	04a70713          	addi	a4,a4,74 # 4000c1b0 <xCriticalNesting>
4000116e:	431c                	lw	a5,0(a4)
40001170:	17fd                	addi	a5,a5,-1
40001172:	c31c                	sw	a5,0(a4)
40001174:	e399                	bnez	a5,4000117a <xTaskResumeAll+0x138>
40001176:	30046073          	csrsi	mstatus,8
4000117a:	4501                	li	a0,0
4000117c:	40b2                	lw	ra,12(sp)
4000117e:	4422                	lw	s0,8(sp)
40001180:	0141                	addi	sp,sp,16
40001182:	8082                	ret
40001184:	147d                	addi	s0,s0,-1
40001186:	c809                	beqz	s0,40001198 <xTaskResumeAll+0x156>
40001188:	33b1                	jal	40000ed4 <xTaskIncrementTick>
4000118a:	dd6d                	beqz	a0,40001184 <xTaskResumeAll+0x142>
4000118c:	4785                	li	a5,1
4000118e:	0000b717          	auipc	a4,0xb
40001192:	04f72d23          	sw	a5,90(a4) # 4000c1e8 <xYieldPending>
40001196:	b7fd                	j	40001184 <xTaskResumeAll+0x142>
40001198:	0000b797          	auipc	a5,0xb
4000119c:	0407aa23          	sw	zero,84(a5) # 4000c1ec <xPendedTicks>
400011a0:	bf7d                	j	4000115e <xTaskResumeAll+0x11c>

400011a2 <xTaskDelayUntil>:
400011a2:	1141                	addi	sp,sp,-16
400011a4:	c606                	sw	ra,12(sp)
400011a6:	c422                	sw	s0,8(sp)
400011a8:	c226                	sw	s1,4(sp)
400011aa:	84aa                	mv	s1,a0
400011ac:	842e                	mv	s0,a1
400011ae:	c50d                	beqz	a0,400011d8 <xTaskDelayUntil+0x36>
400011b0:	c41d                	beqz	s0,400011de <xTaskDelayUntil+0x3c>
400011b2:	0000b797          	auipc	a5,0xb
400011b6:	0227a783          	lw	a5,34(a5) # 4000c1d4 <uxSchedulerSuspended>
400011ba:	e78d                	bnez	a5,400011e4 <xTaskDelayUntil+0x42>
400011bc:	39e1                	jal	40000e94 <vTaskSuspendAll>
400011be:	0000b517          	auipc	a0,0xb
400011c2:	03a52503          	lw	a0,58(a0) # 4000c1f8 <xTickCount>
400011c6:	4098                	lw	a4,0(s1)
400011c8:	943a                	add	s0,s0,a4
400011ca:	02e57763          	bgeu	a0,a4,400011f8 <xTaskDelayUntil+0x56>
400011ce:	00e46e63          	bltu	s0,a4,400011ea <xTaskDelayUntil+0x48>
400011d2:	c080                	sw	s0,0(s1)
400011d4:	4401                	li	s0,0
400011d6:	a825                	j	4000120e <xTaskDelayUntil+0x6c>
400011d8:	e59fe0ef          	jal	ra,40000030 <vAssertCalled>
400011dc:	bfd1                	j	400011b0 <xTaskDelayUntil+0xe>
400011de:	e53fe0ef          	jal	ra,40000030 <vAssertCalled>
400011e2:	bfc1                	j	400011b2 <xTaskDelayUntil+0x10>
400011e4:	e4dfe0ef          	jal	ra,40000030 <vAssertCalled>
400011e8:	bfd1                	j	400011bc <xTaskDelayUntil+0x1a>
400011ea:	00856563          	bltu	a0,s0,400011f4 <xTaskDelayUntil+0x52>
400011ee:	c080                	sw	s0,0(s1)
400011f0:	4401                	li	s0,0
400011f2:	a831                	j	4000120e <xTaskDelayUntil+0x6c>
400011f4:	c080                	sw	s0,0(s1)
400011f6:	a031                	j	40001202 <xTaskDelayUntil+0x60>
400011f8:	00e46463          	bltu	s0,a4,40001200 <xTaskDelayUntil+0x5e>
400011fc:	02857363          	bgeu	a0,s0,40001222 <xTaskDelayUntil+0x80>
40001200:	c080                	sw	s0,0(s1)
40001202:	4581                	li	a1,0
40001204:	40a40533          	sub	a0,s0,a0
40001208:	aabff0ef          	jal	ra,40000cb2 <prvAddCurrentTaskToDelayedList>
4000120c:	4405                	li	s0,1
4000120e:	3d15                	jal	40001042 <xTaskResumeAll>
40001210:	e119                	bnez	a0,40001216 <xTaskDelayUntil+0x74>
40001212:	00000073          	ecall
40001216:	8522                	mv	a0,s0
40001218:	40b2                	lw	ra,12(sp)
4000121a:	4422                	lw	s0,8(sp)
4000121c:	4492                	lw	s1,4(sp)
4000121e:	0141                	addi	sp,sp,16
40001220:	8082                	ret
40001222:	c080                	sw	s0,0(s1)
40001224:	4401                	li	s0,0
40001226:	b7e5                	j	4000120e <xTaskDelayUntil+0x6c>

40001228 <vTaskSwitchContext>:
40001228:	0000b797          	auipc	a5,0xb
4000122c:	fac7a783          	lw	a5,-84(a5) # 4000c1d4 <uxSchedulerSuspended>
40001230:	c799                	beqz	a5,4000123e <vTaskSwitchContext+0x16>
40001232:	4785                	li	a5,1
40001234:	0000b717          	auipc	a4,0xb
40001238:	faf72a23          	sw	a5,-76(a4) # 4000c1e8 <xYieldPending>
4000123c:	8082                	ret
4000123e:	1141                	addi	sp,sp,-16
40001240:	c606                	sw	ra,12(sp)
40001242:	c422                	sw	s0,8(sp)
40001244:	0000b797          	auipc	a5,0xb
40001248:	fa07a223          	sw	zero,-92(a5) # 4000c1e8 <xYieldPending>
4000124c:	0000b797          	auipc	a5,0xb
40001250:	fc07a783          	lw	a5,-64(a5) # 4000c20c <pxCurrentTCB>
40001254:	5b98                	lw	a4,48(a5)
40001256:	4314                	lw	a3,0(a4)
40001258:	a5a5a7b7          	lui	a5,0xa5a5a
4000125c:	5a578793          	addi	a5,a5,1445 # a5a5a5a5 <_bss_lma+0x25a59b05>
40001260:	00f69963          	bne	a3,a5,40001272 <vTaskSwitchContext+0x4a>
40001264:	4354                	lw	a3,4(a4)
40001266:	a5a5a7b7          	lui	a5,0xa5a5a
4000126a:	5a578793          	addi	a5,a5,1445 # a5a5a5a5 <_bss_lma+0x25a59b05>
4000126e:	08f68163          	beq	a3,a5,400012f0 <vTaskSwitchContext+0xc8>
40001272:	0000b797          	auipc	a5,0xb
40001276:	f9a78793          	addi	a5,a5,-102 # 4000c20c <pxCurrentTCB>
4000127a:	4388                	lw	a0,0(a5)
4000127c:	438c                	lw	a1,0(a5)
4000127e:	03458593          	addi	a1,a1,52
40001282:	da7fe0ef          	jal	ra,40000028 <vApplicationStackOverflowHook>
40001286:	0000b517          	auipc	a0,0xb
4000128a:	f6e52503          	lw	a0,-146(a0) # 4000c1f4 <uxTopReadyPriority>
4000128e:	55d000ef          	jal	ra,40001fea <__clzsi2>
40001292:	447d                	li	s0,31
40001294:	8c09                	sub	s0,s0,a0
40001296:	00241793          	slli	a5,s0,0x2
4000129a:	97a2                	add	a5,a5,s0
4000129c:	078a                	slli	a5,a5,0x2
4000129e:	0000b717          	auipc	a4,0xb
400012a2:	05e70713          	addi	a4,a4,94 # 4000c2fc <pxReadyTasksLists>
400012a6:	97ba                	add	a5,a5,a4
400012a8:	439c                	lw	a5,0(a5)
400012aa:	c3b5                	beqz	a5,4000130e <vTaskSwitchContext+0xe6>
400012ac:	00241713          	slli	a4,s0,0x2
400012b0:	9722                	add	a4,a4,s0
400012b2:	070a                	slli	a4,a4,0x2
400012b4:	0000b797          	auipc	a5,0xb
400012b8:	04878793          	addi	a5,a5,72 # 4000c2fc <pxReadyTasksLists>
400012bc:	97ba                	add	a5,a5,a4
400012be:	43d8                	lw	a4,4(a5)
400012c0:	4358                	lw	a4,4(a4)
400012c2:	c3d8                	sw	a4,4(a5)
400012c4:	07a1                	addi	a5,a5,8
400012c6:	04f70763          	beq	a4,a5,40001314 <vTaskSwitchContext+0xec>
400012ca:	00241793          	slli	a5,s0,0x2
400012ce:	97a2                	add	a5,a5,s0
400012d0:	078a                	slli	a5,a5,0x2
400012d2:	0000b717          	auipc	a4,0xb
400012d6:	02a70713          	addi	a4,a4,42 # 4000c2fc <pxReadyTasksLists>
400012da:	97ba                	add	a5,a5,a4
400012dc:	43dc                	lw	a5,4(a5)
400012de:	47dc                	lw	a5,12(a5)
400012e0:	0000b717          	auipc	a4,0xb
400012e4:	f2f72623          	sw	a5,-212(a4) # 4000c20c <pxCurrentTCB>
400012e8:	40b2                	lw	ra,12(sp)
400012ea:	4422                	lw	s0,8(sp)
400012ec:	0141                	addi	sp,sp,16
400012ee:	8082                	ret
400012f0:	4714                	lw	a3,8(a4)
400012f2:	a5a5a7b7          	lui	a5,0xa5a5a
400012f6:	5a578793          	addi	a5,a5,1445 # a5a5a5a5 <_bss_lma+0x25a59b05>
400012fa:	f6f69ce3          	bne	a3,a5,40001272 <vTaskSwitchContext+0x4a>
400012fe:	4758                	lw	a4,12(a4)
40001300:	a5a5a7b7          	lui	a5,0xa5a5a
40001304:	5a578793          	addi	a5,a5,1445 # a5a5a5a5 <_bss_lma+0x25a59b05>
40001308:	f6f715e3          	bne	a4,a5,40001272 <vTaskSwitchContext+0x4a>
4000130c:	bfad                	j	40001286 <vTaskSwitchContext+0x5e>
4000130e:	d23fe0ef          	jal	ra,40000030 <vAssertCalled>
40001312:	bf69                	j	400012ac <vTaskSwitchContext+0x84>
40001314:	4354                	lw	a3,4(a4)
40001316:	00241793          	slli	a5,s0,0x2
4000131a:	97a2                	add	a5,a5,s0
4000131c:	078a                	slli	a5,a5,0x2
4000131e:	0000b717          	auipc	a4,0xb
40001322:	fde70713          	addi	a4,a4,-34 # 4000c2fc <pxReadyTasksLists>
40001326:	97ba                	add	a5,a5,a4
40001328:	c3d4                	sw	a3,4(a5)
4000132a:	b745                	j	400012ca <vTaskSwitchContext+0xa2>

4000132c <vTaskPlaceOnEventList>:
4000132c:	1141                	addi	sp,sp,-16
4000132e:	c606                	sw	ra,12(sp)
40001330:	c422                	sw	s0,8(sp)
40001332:	c226                	sw	s1,4(sp)
40001334:	842a                	mv	s0,a0
40001336:	84ae                	mv	s1,a1
40001338:	c115                	beqz	a0,4000135c <vTaskPlaceOnEventList+0x30>
4000133a:	0000b597          	auipc	a1,0xb
4000133e:	ed25a583          	lw	a1,-302(a1) # 4000c20c <pxCurrentTCB>
40001342:	05e1                	addi	a1,a1,24
40001344:	8522                	mv	a0,s0
40001346:	f6ffe0ef          	jal	ra,400002b4 <vListInsert>
4000134a:	4585                	li	a1,1
4000134c:	8526                	mv	a0,s1
4000134e:	965ff0ef          	jal	ra,40000cb2 <prvAddCurrentTaskToDelayedList>
40001352:	40b2                	lw	ra,12(sp)
40001354:	4422                	lw	s0,8(sp)
40001356:	4492                	lw	s1,4(sp)
40001358:	0141                	addi	sp,sp,16
4000135a:	8082                	ret
4000135c:	cd5fe0ef          	jal	ra,40000030 <vAssertCalled>
40001360:	bfe9                	j	4000133a <vTaskPlaceOnEventList+0xe>

40001362 <vTaskPlaceOnEventListRestricted>:
40001362:	1141                	addi	sp,sp,-16
40001364:	c606                	sw	ra,12(sp)
40001366:	c422                	sw	s0,8(sp)
40001368:	c226                	sw	s1,4(sp)
4000136a:	c04a                	sw	s2,0(sp)
4000136c:	842a                	mv	s0,a0
4000136e:	892e                	mv	s2,a1
40001370:	84b2                	mv	s1,a2
40001372:	c131                	beqz	a0,400013b6 <vTaskPlaceOnEventListRestricted+0x54>
40001374:	4058                	lw	a4,4(s0)
40001376:	0000b797          	auipc	a5,0xb
4000137a:	e9678793          	addi	a5,a5,-362 # 4000c20c <pxCurrentTCB>
4000137e:	4394                	lw	a3,0(a5)
40001380:	ced8                	sw	a4,28(a3)
40001382:	4394                	lw	a3,0(a5)
40001384:	4710                	lw	a2,8(a4)
40001386:	d290                	sw	a2,32(a3)
40001388:	4394                	lw	a3,0(a5)
4000138a:	06e1                	addi	a3,a3,24
4000138c:	c254                	sw	a3,4(a2)
4000138e:	4394                	lw	a3,0(a5)
40001390:	06e1                	addi	a3,a3,24
40001392:	c714                	sw	a3,8(a4)
40001394:	439c                	lw	a5,0(a5)
40001396:	d780                	sw	s0,40(a5)
40001398:	401c                	lw	a5,0(s0)
4000139a:	0785                	addi	a5,a5,1
4000139c:	c01c                	sw	a5,0(s0)
4000139e:	c091                	beqz	s1,400013a2 <vTaskPlaceOnEventListRestricted+0x40>
400013a0:	597d                	li	s2,-1
400013a2:	85a6                	mv	a1,s1
400013a4:	854a                	mv	a0,s2
400013a6:	90dff0ef          	jal	ra,40000cb2 <prvAddCurrentTaskToDelayedList>
400013aa:	40b2                	lw	ra,12(sp)
400013ac:	4422                	lw	s0,8(sp)
400013ae:	4492                	lw	s1,4(sp)
400013b0:	4902                	lw	s2,0(sp)
400013b2:	0141                	addi	sp,sp,16
400013b4:	8082                	ret
400013b6:	c7bfe0ef          	jal	ra,40000030 <vAssertCalled>
400013ba:	bf6d                	j	40001374 <vTaskPlaceOnEventListRestricted+0x12>

400013bc <xTaskRemoveFromEventList>:
400013bc:	1141                	addi	sp,sp,-16
400013be:	c606                	sw	ra,12(sp)
400013c0:	c422                	sw	s0,8(sp)
400013c2:	455c                	lw	a5,12(a0)
400013c4:	47c0                	lw	s0,12(a5)
400013c6:	c061                	beqz	s0,40001486 <xTaskRemoveFromEventList+0xca>
400013c8:	541c                	lw	a5,40(s0)
400013ca:	4c54                	lw	a3,28(s0)
400013cc:	5018                	lw	a4,32(s0)
400013ce:	c698                	sw	a4,8(a3)
400013d0:	4c54                	lw	a3,28(s0)
400013d2:	c354                	sw	a3,4(a4)
400013d4:	43d8                	lw	a4,4(a5)
400013d6:	01840693          	addi	a3,s0,24
400013da:	0ad70963          	beq	a4,a3,4000148c <xTaskRemoveFromEventList+0xd0>
400013de:	02042423          	sw	zero,40(s0)
400013e2:	4398                	lw	a4,0(a5)
400013e4:	177d                	addi	a4,a4,-1
400013e6:	c398                	sw	a4,0(a5)
400013e8:	0000b797          	auipc	a5,0xb
400013ec:	dec7a783          	lw	a5,-532(a5) # 4000c1d4 <uxSchedulerSuspended>
400013f0:	e7c5                	bnez	a5,40001498 <xTaskRemoveFromEventList+0xdc>
400013f2:	485c                	lw	a5,20(s0)
400013f4:	4414                	lw	a3,8(s0)
400013f6:	4458                	lw	a4,12(s0)
400013f8:	c698                	sw	a4,8(a3)
400013fa:	4414                	lw	a3,8(s0)
400013fc:	c354                	sw	a3,4(a4)
400013fe:	43d4                	lw	a3,4(a5)
40001400:	00440713          	addi	a4,s0,4
40001404:	08e68763          	beq	a3,a4,40001492 <xTaskRemoveFromEventList+0xd6>
40001408:	00042a23          	sw	zero,20(s0)
4000140c:	4394                	lw	a3,0(a5)
4000140e:	16fd                	addi	a3,a3,-1
40001410:	c394                	sw	a3,0(a5)
40001412:	5450                	lw	a2,44(s0)
40001414:	4785                	li	a5,1
40001416:	00c797b3          	sll	a5,a5,a2
4000141a:	0000b697          	auipc	a3,0xb
4000141e:	dda68693          	addi	a3,a3,-550 # 4000c1f4 <uxTopReadyPriority>
40001422:	428c                	lw	a1,0(a3)
40001424:	8fcd                	or	a5,a5,a1
40001426:	c29c                	sw	a5,0(a3)
40001428:	0000b697          	auipc	a3,0xb
4000142c:	ed468693          	addi	a3,a3,-300 # 4000c2fc <pxReadyTasksLists>
40001430:	00261793          	slli	a5,a2,0x2
40001434:	97b2                	add	a5,a5,a2
40001436:	078a                	slli	a5,a5,0x2
40001438:	97b6                	add	a5,a5,a3
4000143a:	43dc                	lw	a5,4(a5)
4000143c:	c41c                	sw	a5,8(s0)
4000143e:	4790                	lw	a2,8(a5)
40001440:	c450                	sw	a2,12(s0)
40001442:	c258                	sw	a4,4(a2)
40001444:	c798                	sw	a4,8(a5)
40001446:	5450                	lw	a2,44(s0)
40001448:	00261793          	slli	a5,a2,0x2
4000144c:	00c78733          	add	a4,a5,a2
40001450:	070a                	slli	a4,a4,0x2
40001452:	9736                	add	a4,a4,a3
40001454:	c858                	sw	a4,20(s0)
40001456:	4318                	lw	a4,0(a4)
40001458:	0705                	addi	a4,a4,1
4000145a:	97b2                	add	a5,a5,a2
4000145c:	078a                	slli	a5,a5,0x2
4000145e:	96be                	add	a3,a3,a5
40001460:	c298                	sw	a4,0(a3)
40001462:	5458                	lw	a4,44(s0)
40001464:	0000b797          	auipc	a5,0xb
40001468:	da87a783          	lw	a5,-600(a5) # 4000c20c <pxCurrentTCB>
4000146c:	57dc                	lw	a5,44(a5)
4000146e:	04e7f263          	bgeu	a5,a4,400014b2 <xTaskRemoveFromEventList+0xf6>
40001472:	4785                	li	a5,1
40001474:	0000b717          	auipc	a4,0xb
40001478:	d6f72a23          	sw	a5,-652(a4) # 4000c1e8 <xYieldPending>
4000147c:	4505                	li	a0,1
4000147e:	40b2                	lw	ra,12(sp)
40001480:	4422                	lw	s0,8(sp)
40001482:	0141                	addi	sp,sp,16
40001484:	8082                	ret
40001486:	babfe0ef          	jal	ra,40000030 <vAssertCalled>
4000148a:	bf3d                	j	400013c8 <xTaskRemoveFromEventList+0xc>
4000148c:	5018                	lw	a4,32(s0)
4000148e:	c3d8                	sw	a4,4(a5)
40001490:	b7b9                	j	400013de <xTaskRemoveFromEventList+0x22>
40001492:	4454                	lw	a3,12(s0)
40001494:	c3d4                	sw	a3,4(a5)
40001496:	bf8d                	j	40001408 <xTaskRemoveFromEventList+0x4c>
40001498:	91818793          	addi	a5,gp,-1768 # 4000c2c0 <xPendingReadyList>
4000149c:	43d8                	lw	a4,4(a5)
4000149e:	cc58                	sw	a4,28(s0)
400014a0:	4710                	lw	a2,8(a4)
400014a2:	d010                	sw	a2,32(s0)
400014a4:	c254                	sw	a3,4(a2)
400014a6:	c714                	sw	a3,8(a4)
400014a8:	d41c                	sw	a5,40(s0)
400014aa:	4398                	lw	a4,0(a5)
400014ac:	0705                	addi	a4,a4,1
400014ae:	c398                	sw	a4,0(a5)
400014b0:	bf4d                	j	40001462 <xTaskRemoveFromEventList+0xa6>
400014b2:	4501                	li	a0,0
400014b4:	b7e9                	j	4000147e <xTaskRemoveFromEventList+0xc2>

400014b6 <vTaskInternalSetTimeOutState>:
400014b6:	0000b797          	auipc	a5,0xb
400014ba:	d2e7a783          	lw	a5,-722(a5) # 4000c1e4 <xNumOfOverflows>
400014be:	c11c                	sw	a5,0(a0)
400014c0:	0000b797          	auipc	a5,0xb
400014c4:	d387a783          	lw	a5,-712(a5) # 4000c1f8 <xTickCount>
400014c8:	c15c                	sw	a5,4(a0)
400014ca:	8082                	ret

400014cc <xTaskCheckForTimeOut>:
400014cc:	1141                	addi	sp,sp,-16
400014ce:	c606                	sw	ra,12(sp)
400014d0:	c422                	sw	s0,8(sp)
400014d2:	c226                	sw	s1,4(sp)
400014d4:	842a                	mv	s0,a0
400014d6:	84ae                	mv	s1,a1
400014d8:	cd39                	beqz	a0,40001536 <xTaskCheckForTimeOut+0x6a>
400014da:	c0ad                	beqz	s1,4000153c <xTaskCheckForTimeOut+0x70>
400014dc:	30047073          	csrci	mstatus,8
400014e0:	0000b717          	auipc	a4,0xb
400014e4:	cd070713          	addi	a4,a4,-816 # 4000c1b0 <xCriticalNesting>
400014e8:	431c                	lw	a5,0(a4)
400014ea:	0785                	addi	a5,a5,1
400014ec:	c31c                	sw	a5,0(a4)
400014ee:	0000b717          	auipc	a4,0xb
400014f2:	d0a72703          	lw	a4,-758(a4) # 4000c1f8 <xTickCount>
400014f6:	405c                	lw	a5,4(s0)
400014f8:	40f70633          	sub	a2,a4,a5
400014fc:	0000b697          	auipc	a3,0xb
40001500:	d106a683          	lw	a3,-752(a3) # 4000c20c <pxCurrentTCB>
40001504:	0516c683          	lbu	a3,81(a3)
40001508:	ce8d                	beqz	a3,40001542 <xTaskCheckForTimeOut+0x76>
4000150a:	0000b797          	auipc	a5,0xb
4000150e:	d027a783          	lw	a5,-766(a5) # 4000c20c <pxCurrentTCB>
40001512:	040788a3          	sb	zero,81(a5)
40001516:	4505                	li	a0,1
40001518:	0000b717          	auipc	a4,0xb
4000151c:	c9870713          	addi	a4,a4,-872 # 4000c1b0 <xCriticalNesting>
40001520:	431c                	lw	a5,0(a4)
40001522:	17fd                	addi	a5,a5,-1
40001524:	c31c                	sw	a5,0(a4)
40001526:	e399                	bnez	a5,4000152c <xTaskCheckForTimeOut+0x60>
40001528:	30046073          	csrsi	mstatus,8
4000152c:	40b2                	lw	ra,12(sp)
4000152e:	4422                	lw	s0,8(sp)
40001530:	4492                	lw	s1,4(sp)
40001532:	0141                	addi	sp,sp,16
40001534:	8082                	ret
40001536:	afbfe0ef          	jal	ra,40000030 <vAssertCalled>
4000153a:	b745                	j	400014da <xTaskCheckForTimeOut+0xe>
4000153c:	af5fe0ef          	jal	ra,40000030 <vAssertCalled>
40001540:	bf71                	j	400014dc <xTaskCheckForTimeOut+0x10>
40001542:	4094                	lw	a3,0(s1)
40001544:	55fd                	li	a1,-1
40001546:	02b68c63          	beq	a3,a1,4000157e <xTaskCheckForTimeOut+0xb2>
4000154a:	4008                	lw	a0,0(s0)
4000154c:	0000b597          	auipc	a1,0xb
40001550:	c985a583          	lw	a1,-872(a1) # 4000c1e4 <xNumOfOverflows>
40001554:	00b50863          	beq	a0,a1,40001564 <xTaskCheckForTimeOut+0x98>
40001558:	00f76663          	bltu	a4,a5,40001564 <xTaskCheckForTimeOut+0x98>
4000155c:	0004a023          	sw	zero,0(s1)
40001560:	4505                	li	a0,1
40001562:	bf5d                	j	40001518 <xTaskCheckForTimeOut+0x4c>
40001564:	00d66663          	bltu	a2,a3,40001570 <xTaskCheckForTimeOut+0xa4>
40001568:	0004a023          	sw	zero,0(s1)
4000156c:	4505                	li	a0,1
4000156e:	b76d                	j	40001518 <xTaskCheckForTimeOut+0x4c>
40001570:	8f99                	sub	a5,a5,a4
40001572:	97b6                	add	a5,a5,a3
40001574:	c09c                	sw	a5,0(s1)
40001576:	8522                	mv	a0,s0
40001578:	3f3d                	jal	400014b6 <vTaskInternalSetTimeOutState>
4000157a:	4501                	li	a0,0
4000157c:	bf71                	j	40001518 <xTaskCheckForTimeOut+0x4c>
4000157e:	4501                	li	a0,0
40001580:	bf61                	j	40001518 <xTaskCheckForTimeOut+0x4c>

40001582 <vTaskMissedYield>:
40001582:	4785                	li	a5,1
40001584:	0000b717          	auipc	a4,0xb
40001588:	c6f72223          	sw	a5,-924(a4) # 4000c1e8 <xYieldPending>
4000158c:	8082                	ret

4000158e <xTaskGetCurrentTaskHandle>:
4000158e:	0000b517          	auipc	a0,0xb
40001592:	c7e52503          	lw	a0,-898(a0) # 4000c20c <pxCurrentTCB>
40001596:	8082                	ret

40001598 <xTaskGetSchedulerState>:
40001598:	0000b797          	auipc	a5,0xb
4000159c:	c587a783          	lw	a5,-936(a5) # 4000c1f0 <xSchedulerRunning>
400015a0:	cb91                	beqz	a5,400015b4 <xTaskGetSchedulerState+0x1c>
400015a2:	0000b797          	auipc	a5,0xb
400015a6:	c327a783          	lw	a5,-974(a5) # 4000c1d4 <uxSchedulerSuspended>
400015aa:	c399                	beqz	a5,400015b0 <xTaskGetSchedulerState+0x18>
400015ac:	4501                	li	a0,0
400015ae:	8082                	ret
400015b0:	4509                	li	a0,2
400015b2:	8082                	ret
400015b4:	4505                	li	a0,1
400015b6:	8082                	ret

400015b8 <xTaskPriorityDisinherit>:
400015b8:	c171                	beqz	a0,4000167c <xTaskPriorityDisinherit+0xc4>
400015ba:	1141                	addi	sp,sp,-16
400015bc:	c606                	sw	ra,12(sp)
400015be:	c422                	sw	s0,8(sp)
400015c0:	c226                	sw	s1,4(sp)
400015c2:	842a                	mv	s0,a0
400015c4:	0000b797          	auipc	a5,0xb
400015c8:	c487a783          	lw	a5,-952(a5) # 4000c20c <pxCurrentTCB>
400015cc:	00a78463          	beq	a5,a0,400015d4 <xTaskPriorityDisinherit+0x1c>
400015d0:	a61fe0ef          	jal	ra,40000030 <vAssertCalled>
400015d4:	443c                	lw	a5,72(s0)
400015d6:	cf99                	beqz	a5,400015f4 <xTaskPriorityDisinherit+0x3c>
400015d8:	443c                	lw	a5,72(s0)
400015da:	17fd                	addi	a5,a5,-1
400015dc:	c43c                	sw	a5,72(s0)
400015de:	5454                	lw	a3,44(s0)
400015e0:	4078                	lw	a4,68(s0)
400015e2:	08e68f63          	beq	a3,a4,40001680 <xTaskPriorityDisinherit+0xc8>
400015e6:	cb91                	beqz	a5,400015fa <xTaskPriorityDisinherit+0x42>
400015e8:	4501                	li	a0,0
400015ea:	40b2                	lw	ra,12(sp)
400015ec:	4422                	lw	s0,8(sp)
400015ee:	4492                	lw	s1,4(sp)
400015f0:	0141                	addi	sp,sp,16
400015f2:	8082                	ret
400015f4:	a3dfe0ef          	jal	ra,40000030 <vAssertCalled>
400015f8:	b7c5                	j	400015d8 <xTaskPriorityDisinherit+0x20>
400015fa:	00440493          	addi	s1,s0,4
400015fe:	8526                	mv	a0,s1
40001600:	ce3fe0ef          	jal	ra,400002e2 <uxListRemove>
40001604:	ed11                	bnez	a0,40001620 <xTaskPriorityDisinherit+0x68>
40001606:	5458                	lw	a4,44(s0)
40001608:	4785                	li	a5,1
4000160a:	00e797b3          	sll	a5,a5,a4
4000160e:	fff7c793          	not	a5,a5
40001612:	0000b717          	auipc	a4,0xb
40001616:	be270713          	addi	a4,a4,-1054 # 4000c1f4 <uxTopReadyPriority>
4000161a:	4314                	lw	a3,0(a4)
4000161c:	8ff5                	and	a5,a5,a3
4000161e:	c31c                	sw	a5,0(a4)
40001620:	4078                	lw	a4,68(s0)
40001622:	d458                	sw	a4,44(s0)
40001624:	479d                	li	a5,7
40001626:	8f99                	sub	a5,a5,a4
40001628:	cc1c                	sw	a5,24(s0)
4000162a:	4785                	li	a5,1
4000162c:	00e797b3          	sll	a5,a5,a4
40001630:	0000b697          	auipc	a3,0xb
40001634:	bc468693          	addi	a3,a3,-1084 # 4000c1f4 <uxTopReadyPriority>
40001638:	4290                	lw	a2,0(a3)
4000163a:	8fd1                	or	a5,a5,a2
4000163c:	c29c                	sw	a5,0(a3)
4000163e:	0000b697          	auipc	a3,0xb
40001642:	cbe68693          	addi	a3,a3,-834 # 4000c2fc <pxReadyTasksLists>
40001646:	00271793          	slli	a5,a4,0x2
4000164a:	97ba                	add	a5,a5,a4
4000164c:	078a                	slli	a5,a5,0x2
4000164e:	97b6                	add	a5,a5,a3
40001650:	43dc                	lw	a5,4(a5)
40001652:	c41c                	sw	a5,8(s0)
40001654:	4798                	lw	a4,8(a5)
40001656:	c458                	sw	a4,12(s0)
40001658:	c344                	sw	s1,4(a4)
4000165a:	c784                	sw	s1,8(a5)
4000165c:	5450                	lw	a2,44(s0)
4000165e:	00261793          	slli	a5,a2,0x2
40001662:	00c78733          	add	a4,a5,a2
40001666:	070a                	slli	a4,a4,0x2
40001668:	9736                	add	a4,a4,a3
4000166a:	c858                	sw	a4,20(s0)
4000166c:	4318                	lw	a4,0(a4)
4000166e:	0705                	addi	a4,a4,1
40001670:	97b2                	add	a5,a5,a2
40001672:	078a                	slli	a5,a5,0x2
40001674:	96be                	add	a3,a3,a5
40001676:	c298                	sw	a4,0(a3)
40001678:	4505                	li	a0,1
4000167a:	bf85                	j	400015ea <xTaskPriorityDisinherit+0x32>
4000167c:	4501                	li	a0,0
4000167e:	8082                	ret
40001680:	4501                	li	a0,0
40001682:	b7a5                	j	400015ea <xTaskPriorityDisinherit+0x32>

40001684 <prvGetNextExpireTime>:
40001684:	0000b717          	auipc	a4,0xb
40001688:	b9c72703          	lw	a4,-1124(a4) # 4000c220 <pxCurrentTimerList>
4000168c:	431c                	lw	a5,0(a4)
4000168e:	e799                	bnez	a5,4000169c <prvGetNextExpireTime+0x18>
40001690:	4785                	li	a5,1
40001692:	c11c                	sw	a5,0(a0)
40001694:	e791                	bnez	a5,400016a0 <prvGetNextExpireTime+0x1c>
40001696:	475c                	lw	a5,12(a4)
40001698:	4388                	lw	a0,0(a5)
4000169a:	8082                	ret
4000169c:	4781                	li	a5,0
4000169e:	bfd5                	j	40001692 <prvGetNextExpireTime+0xe>
400016a0:	4501                	li	a0,0
400016a2:	8082                	ret

400016a4 <prvInsertTimerInActiveList>:
400016a4:	1141                	addi	sp,sp,-16
400016a6:	c606                	sw	ra,12(sp)
400016a8:	c14c                	sw	a1,4(a0)
400016aa:	c908                	sw	a0,16(a0)
400016ac:	02b66463          	bltu	a2,a1,400016d4 <prvInsertTimerInActiveList+0x30>
400016b0:	8e15                	sub	a2,a2,a3
400016b2:	4d1c                	lw	a5,24(a0)
400016b4:	00f66663          	bltu	a2,a5,400016c0 <prvInsertTimerInActiveList+0x1c>
400016b8:	4505                	li	a0,1
400016ba:	40b2                	lw	ra,12(sp)
400016bc:	0141                	addi	sp,sp,16
400016be:	8082                	ret
400016c0:	00450593          	addi	a1,a0,4
400016c4:	0000b517          	auipc	a0,0xb
400016c8:	b5852503          	lw	a0,-1192(a0) # 4000c21c <pxOverflowTimerList>
400016cc:	be9fe0ef          	jal	ra,400002b4 <vListInsert>
400016d0:	4501                	li	a0,0
400016d2:	b7e5                	j	400016ba <prvInsertTimerInActiveList+0x16>
400016d4:	00d67463          	bgeu	a2,a3,400016dc <prvInsertTimerInActiveList+0x38>
400016d8:	00d5fc63          	bgeu	a1,a3,400016f0 <prvInsertTimerInActiveList+0x4c>
400016dc:	00450593          	addi	a1,a0,4
400016e0:	0000b517          	auipc	a0,0xb
400016e4:	b4052503          	lw	a0,-1216(a0) # 4000c220 <pxCurrentTimerList>
400016e8:	bcdfe0ef          	jal	ra,400002b4 <vListInsert>
400016ec:	4501                	li	a0,0
400016ee:	b7f1                	j	400016ba <prvInsertTimerInActiveList+0x16>
400016f0:	4505                	li	a0,1
400016f2:	b7e1                	j	400016ba <prvInsertTimerInActiveList+0x16>

400016f4 <prvReloadTimer>:
400016f4:	1141                	addi	sp,sp,-16
400016f6:	c606                	sw	ra,12(sp)
400016f8:	c422                	sw	s0,8(sp)
400016fa:	c226                	sw	s1,4(sp)
400016fc:	c04a                	sw	s2,0(sp)
400016fe:	842a                	mv	s0,a0
40001700:	84ae                	mv	s1,a1
40001702:	8932                	mv	s2,a2
40001704:	a031                	j	40001710 <prvReloadTimer+0x1c>
40001706:	4c1c                	lw	a5,24(s0)
40001708:	94be                	add	s1,s1,a5
4000170a:	501c                	lw	a5,32(s0)
4000170c:	8522                	mv	a0,s0
4000170e:	9782                	jalr	a5
40001710:	4c0c                	lw	a1,24(s0)
40001712:	86a6                	mv	a3,s1
40001714:	864a                	mv	a2,s2
40001716:	95a6                	add	a1,a1,s1
40001718:	8522                	mv	a0,s0
4000171a:	3769                	jal	400016a4 <prvInsertTimerInActiveList>
4000171c:	f56d                	bnez	a0,40001706 <prvReloadTimer+0x12>
4000171e:	40b2                	lw	ra,12(sp)
40001720:	4422                	lw	s0,8(sp)
40001722:	4492                	lw	s1,4(sp)
40001724:	4902                	lw	s2,0(sp)
40001726:	0141                	addi	sp,sp,16
40001728:	8082                	ret

4000172a <prvProcessExpiredTimer>:
4000172a:	1141                	addi	sp,sp,-16
4000172c:	c606                	sw	ra,12(sp)
4000172e:	c422                	sw	s0,8(sp)
40001730:	c226                	sw	s1,4(sp)
40001732:	c04a                	sw	s2,0(sp)
40001734:	84aa                	mv	s1,a0
40001736:	892e                	mv	s2,a1
40001738:	0000b797          	auipc	a5,0xb
4000173c:	ae87a783          	lw	a5,-1304(a5) # 4000c220 <pxCurrentTimerList>
40001740:	47dc                	lw	a5,12(a5)
40001742:	47c0                	lw	s0,12(a5)
40001744:	00440513          	addi	a0,s0,4
40001748:	b9bfe0ef          	jal	ra,400002e2 <uxListRemove>
4000174c:	02444783          	lbu	a5,36(s0)
40001750:	0047f713          	andi	a4,a5,4
40001754:	ef09                	bnez	a4,4000176e <prvProcessExpiredTimer+0x44>
40001756:	9bf9                	andi	a5,a5,-2
40001758:	02f40223          	sb	a5,36(s0)
4000175c:	501c                	lw	a5,32(s0)
4000175e:	8522                	mv	a0,s0
40001760:	9782                	jalr	a5
40001762:	40b2                	lw	ra,12(sp)
40001764:	4422                	lw	s0,8(sp)
40001766:	4492                	lw	s1,4(sp)
40001768:	4902                	lw	s2,0(sp)
4000176a:	0141                	addi	sp,sp,16
4000176c:	8082                	ret
4000176e:	864a                	mv	a2,s2
40001770:	85a6                	mv	a1,s1
40001772:	8522                	mv	a0,s0
40001774:	3741                	jal	400016f4 <prvReloadTimer>
40001776:	b7dd                	j	4000175c <prvProcessExpiredTimer+0x32>

40001778 <prvSwitchTimerLists>:
40001778:	0000b797          	auipc	a5,0xb
4000177c:	aa87a783          	lw	a5,-1368(a5) # 4000c220 <pxCurrentTimerList>
40001780:	4398                	lw	a4,0(a5)
40001782:	cb15                	beqz	a4,400017b6 <prvSwitchTimerLists+0x3e>
40001784:	1141                	addi	sp,sp,-16
40001786:	c606                	sw	ra,12(sp)
40001788:	47dc                	lw	a5,12(a5)
4000178a:	55fd                	li	a1,-1
4000178c:	4388                	lw	a0,0(a5)
4000178e:	3f71                	jal	4000172a <prvProcessExpiredTimer>
40001790:	0000b797          	auipc	a5,0xb
40001794:	a907a783          	lw	a5,-1392(a5) # 4000c220 <pxCurrentTimerList>
40001798:	4398                	lw	a4,0(a5)
4000179a:	f77d                	bnez	a4,40001788 <prvSwitchTimerLists+0x10>
4000179c:	0000b717          	auipc	a4,0xb
400017a0:	a8070713          	addi	a4,a4,-1408 # 4000c21c <pxOverflowTimerList>
400017a4:	4314                	lw	a3,0(a4)
400017a6:	0000b617          	auipc	a2,0xb
400017aa:	a6d62d23          	sw	a3,-1414(a2) # 4000c220 <pxCurrentTimerList>
400017ae:	c31c                	sw	a5,0(a4)
400017b0:	40b2                	lw	ra,12(sp)
400017b2:	0141                	addi	sp,sp,16
400017b4:	8082                	ret
400017b6:	0000b717          	auipc	a4,0xb
400017ba:	a6670713          	addi	a4,a4,-1434 # 4000c21c <pxOverflowTimerList>
400017be:	4314                	lw	a3,0(a4)
400017c0:	0000b617          	auipc	a2,0xb
400017c4:	a6d62023          	sw	a3,-1440(a2) # 4000c220 <pxCurrentTimerList>
400017c8:	c31c                	sw	a5,0(a4)
400017ca:	8082                	ret

400017cc <prvSampleTimeNow>:
400017cc:	1141                	addi	sp,sp,-16
400017ce:	c606                	sw	ra,12(sp)
400017d0:	c422                	sw	s0,8(sp)
400017d2:	c226                	sw	s1,4(sp)
400017d4:	84aa                	mv	s1,a0
400017d6:	eceff0ef          	jal	ra,40000ea4 <xTaskGetTickCount>
400017da:	842a                	mv	s0,a0
400017dc:	0000b797          	auipc	a5,0xb
400017e0:	a347a783          	lw	a5,-1484(a5) # 4000c210 <xLastTime.0>
400017e4:	00f56e63          	bltu	a0,a5,40001800 <prvSampleTimeNow+0x34>
400017e8:	0004a023          	sw	zero,0(s1)
400017ec:	0000b797          	auipc	a5,0xb
400017f0:	a287a223          	sw	s0,-1500(a5) # 4000c210 <xLastTime.0>
400017f4:	8522                	mv	a0,s0
400017f6:	40b2                	lw	ra,12(sp)
400017f8:	4422                	lw	s0,8(sp)
400017fa:	4492                	lw	s1,4(sp)
400017fc:	0141                	addi	sp,sp,16
400017fe:	8082                	ret
40001800:	3fa5                	jal	40001778 <prvSwitchTimerLists>
40001802:	4785                	li	a5,1
40001804:	c09c                	sw	a5,0(s1)
40001806:	b7dd                	j	400017ec <prvSampleTimeNow+0x20>

40001808 <prvProcessTimerOrBlockTask>:
40001808:	1101                	addi	sp,sp,-32
4000180a:	ce06                	sw	ra,28(sp)
4000180c:	cc22                	sw	s0,24(sp)
4000180e:	ca26                	sw	s1,20(sp)
40001810:	c84a                	sw	s2,16(sp)
40001812:	892a                	mv	s2,a0
40001814:	842e                	mv	s0,a1
40001816:	e7eff0ef          	jal	ra,40000e94 <vTaskSuspendAll>
4000181a:	0068                	addi	a0,sp,12
4000181c:	3f45                	jal	400017cc <prvSampleTimeNow>
4000181e:	47b2                	lw	a5,12(sp)
40001820:	e7a1                	bnez	a5,40001868 <prvProcessTimerOrBlockTask+0x60>
40001822:	84aa                	mv	s1,a0
40001824:	e805                	bnez	s0,40001854 <prvProcessTimerOrBlockTask+0x4c>
40001826:	03257163          	bgeu	a0,s2,40001848 <prvProcessTimerOrBlockTask+0x40>
4000182a:	8622                	mv	a2,s0
4000182c:	409905b3          	sub	a1,s2,s1
40001830:	0000b517          	auipc	a0,0xb
40001834:	9e852503          	lw	a0,-1560(a0) # 4000c218 <xTimerQueue>
40001838:	906ff0ef          	jal	ra,4000093e <vQueueWaitForMessageRestricted>
4000183c:	807ff0ef          	jal	ra,40001042 <xTaskResumeAll>
40001840:	e515                	bnez	a0,4000186c <prvProcessTimerOrBlockTask+0x64>
40001842:	00000073          	ecall
40001846:	a01d                	j	4000186c <prvProcessTimerOrBlockTask+0x64>
40001848:	ffaff0ef          	jal	ra,40001042 <xTaskResumeAll>
4000184c:	85a6                	mv	a1,s1
4000184e:	854a                	mv	a0,s2
40001850:	3de9                	jal	4000172a <prvProcessExpiredTimer>
40001852:	a829                	j	4000186c <prvProcessTimerOrBlockTask+0x64>
40001854:	0000b717          	auipc	a4,0xb
40001858:	9c872703          	lw	a4,-1592(a4) # 4000c21c <pxOverflowTimerList>
4000185c:	4318                	lw	a4,0(a4)
4000185e:	e319                	bnez	a4,40001864 <prvProcessTimerOrBlockTask+0x5c>
40001860:	4405                	li	s0,1
40001862:	b7e1                	j	4000182a <prvProcessTimerOrBlockTask+0x22>
40001864:	843e                	mv	s0,a5
40001866:	b7d1                	j	4000182a <prvProcessTimerOrBlockTask+0x22>
40001868:	fdaff0ef          	jal	ra,40001042 <xTaskResumeAll>
4000186c:	40f2                	lw	ra,28(sp)
4000186e:	4462                	lw	s0,24(sp)
40001870:	44d2                	lw	s1,20(sp)
40001872:	4942                	lw	s2,16(sp)
40001874:	6105                	addi	sp,sp,32
40001876:	8082                	ret

40001878 <prvProcessReceivedCommands>:
40001878:	7179                	addi	sp,sp,-48
4000187a:	d606                	sw	ra,44(sp)
4000187c:	d422                	sw	s0,40(sp)
4000187e:	d226                	sw	s1,36(sp)
40001880:	a021                	j	40001888 <prvProcessReceivedCommands+0x10>
40001882:	47c2                	lw	a5,16(sp)
40001884:	0207d363          	bgez	a5,400018aa <prvProcessReceivedCommands+0x32>
40001888:	4601                	li	a2,0
4000188a:	080c                	addi	a1,sp,16
4000188c:	0000b517          	auipc	a0,0xb
40001890:	98c52503          	lw	a0,-1652(a0) # 4000c218 <xTimerQueue>
40001894:	ed5fe0ef          	jal	ra,40000768 <xQueueReceive>
40001898:	c569                	beqz	a0,40001962 <prvProcessReceivedCommands+0xea>
4000189a:	47c2                	lw	a5,16(sp)
4000189c:	fe07d3e3          	bgez	a5,40001882 <prvProcessReceivedCommands+0xa>
400018a0:	45f2                	lw	a1,28(sp)
400018a2:	4562                	lw	a0,24(sp)
400018a4:	47d2                	lw	a5,20(sp)
400018a6:	9782                	jalr	a5
400018a8:	bfe9                	j	40001882 <prvProcessReceivedCommands+0xa>
400018aa:	4462                	lw	s0,24(sp)
400018ac:	485c                	lw	a5,20(s0)
400018ae:	c789                	beqz	a5,400018b8 <prvProcessReceivedCommands+0x40>
400018b0:	00440513          	addi	a0,s0,4
400018b4:	a2ffe0ef          	jal	ra,400002e2 <uxListRemove>
400018b8:	0068                	addi	a0,sp,12
400018ba:	3f09                	jal	400017cc <prvSampleTimeNow>
400018bc:	84aa                	mv	s1,a0
400018be:	47c2                	lw	a5,16(sp)
400018c0:	4725                	li	a4,9
400018c2:	fcf763e3          	bltu	a4,a5,40001888 <prvProcessReceivedCommands+0x10>
400018c6:	078a                	slli	a5,a5,0x2
400018c8:	3ffff717          	auipc	a4,0x3ffff
400018cc:	87c70713          	addi	a4,a4,-1924 # 80000144 <_etext+0x70>
400018d0:	97ba                	add	a5,a5,a4
400018d2:	439c                	lw	a5,0(a5)
400018d4:	97ba                	add	a5,a5,a4
400018d6:	8782                	jr	a5
400018d8:	02444783          	lbu	a5,36(s0)
400018dc:	0017e793          	ori	a5,a5,1
400018e0:	02f40223          	sb	a5,36(s0)
400018e4:	46d2                	lw	a3,20(sp)
400018e6:	4c0c                	lw	a1,24(s0)
400018e8:	862a                	mv	a2,a0
400018ea:	95b6                	add	a1,a1,a3
400018ec:	8522                	mv	a0,s0
400018ee:	3b5d                	jal	400016a4 <prvInsertTimerInActiveList>
400018f0:	dd41                	beqz	a0,40001888 <prvProcessReceivedCommands+0x10>
400018f2:	02444783          	lbu	a5,36(s0)
400018f6:	0047f713          	andi	a4,a5,4
400018fa:	eb01                	bnez	a4,4000190a <prvProcessReceivedCommands+0x92>
400018fc:	9bf9                	andi	a5,a5,-2
400018fe:	02f40223          	sb	a5,36(s0)
40001902:	501c                	lw	a5,32(s0)
40001904:	8522                	mv	a0,s0
40001906:	9782                	jalr	a5
40001908:	b741                	j	40001888 <prvProcessReceivedCommands+0x10>
4000190a:	4c1c                	lw	a5,24(s0)
4000190c:	8626                	mv	a2,s1
4000190e:	45d2                	lw	a1,20(sp)
40001910:	95be                	add	a1,a1,a5
40001912:	8522                	mv	a0,s0
40001914:	33c5                	jal	400016f4 <prvReloadTimer>
40001916:	b7f5                	j	40001902 <prvProcessReceivedCommands+0x8a>
40001918:	02444783          	lbu	a5,36(s0)
4000191c:	9bf9                	andi	a5,a5,-2
4000191e:	02f40223          	sb	a5,36(s0)
40001922:	b79d                	j	40001888 <prvProcessReceivedCommands+0x10>
40001924:	02444783          	lbu	a5,36(s0)
40001928:	0017e793          	ori	a5,a5,1
4000192c:	02f40223          	sb	a5,36(s0)
40001930:	47d2                	lw	a5,20(sp)
40001932:	cc1c                	sw	a5,24(s0)
40001934:	cb81                	beqz	a5,40001944 <prvProcessReceivedCommands+0xcc>
40001936:	4c0c                	lw	a1,24(s0)
40001938:	86a6                	mv	a3,s1
4000193a:	8626                	mv	a2,s1
4000193c:	95a6                	add	a1,a1,s1
4000193e:	8522                	mv	a0,s0
40001940:	3395                	jal	400016a4 <prvInsertTimerInActiveList>
40001942:	b799                	j	40001888 <prvProcessReceivedCommands+0x10>
40001944:	eecfe0ef          	jal	ra,40000030 <vAssertCalled>
40001948:	b7fd                	j	40001936 <prvProcessReceivedCommands+0xbe>
4000194a:	02444783          	lbu	a5,36(s0)
4000194e:	0027f713          	andi	a4,a5,2
40001952:	c709                	beqz	a4,4000195c <prvProcessReceivedCommands+0xe4>
40001954:	9bf9                	andi	a5,a5,-2
40001956:	02f40223          	sb	a5,36(s0)
4000195a:	b73d                	j	40001888 <prvProcessReceivedCommands+0x10>
4000195c:	8522                	mv	a0,s0
4000195e:	24fd                	jal	40001c4c <vPortFree>
40001960:	b725                	j	40001888 <prvProcessReceivedCommands+0x10>
40001962:	50b2                	lw	ra,44(sp)
40001964:	5422                	lw	s0,40(sp)
40001966:	5492                	lw	s1,36(sp)
40001968:	6145                	addi	sp,sp,48
4000196a:	8082                	ret

4000196c <prvTimerTask>:
4000196c:	1101                	addi	sp,sp,-32
4000196e:	ce06                	sw	ra,28(sp)
40001970:	0068                	addi	a0,sp,12
40001972:	3b09                	jal	40001684 <prvGetNextExpireTime>
40001974:	45b2                	lw	a1,12(sp)
40001976:	3d49                	jal	40001808 <prvProcessTimerOrBlockTask>
40001978:	3701                	jal	40001878 <prvProcessReceivedCommands>
4000197a:	bfdd                	j	40001970 <prvTimerTask+0x4>

4000197c <prvCheckForValidListAndQueue>:
4000197c:	30047073          	csrci	mstatus,8
40001980:	0000b717          	auipc	a4,0xb
40001984:	83070713          	addi	a4,a4,-2000 # 4000c1b0 <xCriticalNesting>
40001988:	431c                	lw	a5,0(a4)
4000198a:	0785                	addi	a5,a5,1
4000198c:	c31c                	sw	a5,0(a4)
4000198e:	0000b797          	auipc	a5,0xb
40001992:	88a7a783          	lw	a5,-1910(a5) # 4000c218 <xTimerQueue>
40001996:	cf81                	beqz	a5,400019ae <prvCheckForValidListAndQueue+0x32>
40001998:	0000b717          	auipc	a4,0xb
4000199c:	81870713          	addi	a4,a4,-2024 # 4000c1b0 <xCriticalNesting>
400019a0:	431c                	lw	a5,0(a4)
400019a2:	17fd                	addi	a5,a5,-1
400019a4:	c31c                	sw	a5,0(a4)
400019a6:	e7bd                	bnez	a5,40001a14 <prvCheckForValidListAndQueue+0x98>
400019a8:	30046073          	csrsi	mstatus,8
400019ac:	8082                	ret
400019ae:	1141                	addi	sp,sp,-16
400019b0:	c606                	sw	ra,12(sp)
400019b2:	9f418513          	addi	a0,gp,-1548 # 4000c39c <xActiveTimerList1>
400019b6:	8e5fe0ef          	jal	ra,4000029a <vListInitialise>
400019ba:	9e018513          	addi	a0,gp,-1568 # 4000c388 <xActiveTimerList2>
400019be:	8ddfe0ef          	jal	ra,4000029a <vListInitialise>
400019c2:	9f418793          	addi	a5,gp,-1548 # 4000c39c <xActiveTimerList1>
400019c6:	0000b717          	auipc	a4,0xb
400019ca:	84f72d23          	sw	a5,-1958(a4) # 4000c220 <pxCurrentTimerList>
400019ce:	9e018793          	addi	a5,gp,-1568 # 4000c388 <xActiveTimerList2>
400019d2:	0000b717          	auipc	a4,0xb
400019d6:	84f72523          	sw	a5,-1974(a4) # 4000c21c <pxOverflowTimerList>
400019da:	4601                	li	a2,0
400019dc:	45c1                	li	a1,16
400019de:	4519                	li	a0,6
400019e0:	bc1fe0ef          	jal	ra,400005a0 <xQueueGenericCreate>
400019e4:	0000b797          	auipc	a5,0xb
400019e8:	82a7aa23          	sw	a0,-1996(a5) # 4000c218 <xTimerQueue>
400019ec:	c519                	beqz	a0,400019fa <prvCheckForValidListAndQueue+0x7e>
400019ee:	3fffe597          	auipc	a1,0x3fffe
400019f2:	77e58593          	addi	a1,a1,1918 # 8000016c <_etext+0x98>
400019f6:	ed3fe0ef          	jal	ra,400008c8 <vQueueAddToRegistry>
400019fa:	0000a717          	auipc	a4,0xa
400019fe:	7b670713          	addi	a4,a4,1974 # 4000c1b0 <xCriticalNesting>
40001a02:	431c                	lw	a5,0(a4)
40001a04:	17fd                	addi	a5,a5,-1
40001a06:	c31c                	sw	a5,0(a4)
40001a08:	e399                	bnez	a5,40001a0e <prvCheckForValidListAndQueue+0x92>
40001a0a:	30046073          	csrsi	mstatus,8
40001a0e:	40b2                	lw	ra,12(sp)
40001a10:	0141                	addi	sp,sp,16
40001a12:	8082                	ret
40001a14:	8082                	ret

40001a16 <xTimerCreateTimerTask>:
40001a16:	1141                	addi	sp,sp,-16
40001a18:	c606                	sw	ra,12(sp)
40001a1a:	c422                	sw	s0,8(sp)
40001a1c:	3785                	jal	4000197c <prvCheckForValidListAndQueue>
40001a1e:	0000a797          	auipc	a5,0xa
40001a22:	7fa7a783          	lw	a5,2042(a5) # 4000c218 <xTimerQueue>
40001a26:	cf85                	beqz	a5,40001a5e <xTimerCreateTimerTask+0x48>
40001a28:	0000a797          	auipc	a5,0xa
40001a2c:	7ec78793          	addi	a5,a5,2028 # 4000c214 <xTimerTaskHandle>
40001a30:	4719                	li	a4,6
40001a32:	4681                	li	a3,0
40001a34:	06e00613          	li	a2,110
40001a38:	3fffe597          	auipc	a1,0x3fffe
40001a3c:	73c58593          	addi	a1,a1,1852 # 80000174 <_etext+0xa0>
40001a40:	00000517          	auipc	a0,0x0
40001a44:	f2c50513          	addi	a0,a0,-212 # 4000196c <prvTimerTask>
40001a48:	b54ff0ef          	jal	ra,40000d9c <xTaskCreate>
40001a4c:	842a                	mv	s0,a0
40001a4e:	e119                	bnez	a0,40001a54 <xTimerCreateTimerTask+0x3e>
40001a50:	de0fe0ef          	jal	ra,40000030 <vAssertCalled>
40001a54:	8522                	mv	a0,s0
40001a56:	40b2                	lw	ra,12(sp)
40001a58:	4422                	lw	s0,8(sp)
40001a5a:	0141                	addi	sp,sp,16
40001a5c:	8082                	ret
40001a5e:	4401                	li	s0,0
40001a60:	bfc5                	j	40001a50 <xTimerCreateTimerTask+0x3a>

40001a62 <prvHeapInit>:
40001a62:	0000b717          	auipc	a4,0xb
40001a66:	94e70713          	addi	a4,a4,-1714 # 4000c3b0 <ucHeap>
40001a6a:	00f77793          	andi	a5,a4,15
40001a6e:	cbb9                	beqz	a5,40001ac4 <prvHeapInit+0x62>
40001a70:	0000b697          	auipc	a3,0xb
40001a74:	94f68693          	addi	a3,a3,-1713 # 4000c3bf <ucHeap+0xf>
40001a78:	9ac1                	andi	a3,a3,-16
40001a7a:	67c1                	lui	a5,0x10
40001a7c:	bf478793          	addi	a5,a5,-1036 # fbf4 <__stack_size+0xfac8>
40001a80:	8f95                	sub	a5,a5,a3
40001a82:	97ba                	add	a5,a5,a4
40001a84:	8736                	mv	a4,a3
40001a86:	0000a697          	auipc	a3,0xa
40001a8a:	7b268693          	addi	a3,a3,1970 # 4000c238 <xStart>
40001a8e:	c298                	sw	a4,0(a3)
40001a90:	0006a223          	sw	zero,4(a3)
40001a94:	97ba                	add	a5,a5,a4
40001a96:	17c1                	addi	a5,a5,-16
40001a98:	9bc1                	andi	a5,a5,-16
40001a9a:	0000a697          	auipc	a3,0xa
40001a9e:	78f6ad23          	sw	a5,1946(a3) # 4000c234 <pxEnd>
40001aa2:	0007a223          	sw	zero,4(a5)
40001aa6:	0007a023          	sw	zero,0(a5)
40001aaa:	40e786b3          	sub	a3,a5,a4
40001aae:	c354                	sw	a3,4(a4)
40001ab0:	c31c                	sw	a5,0(a4)
40001ab2:	0000a797          	auipc	a5,0xa
40001ab6:	76d7ad23          	sw	a3,1914(a5) # 4000c22c <xMinimumEverFreeBytesRemaining>
40001aba:	0000a797          	auipc	a5,0xa
40001abe:	76d7ab23          	sw	a3,1910(a5) # 4000c230 <xFreeBytesRemaining>
40001ac2:	8082                	ret
40001ac4:	67c1                	lui	a5,0x10
40001ac6:	bf478793          	addi	a5,a5,-1036 # fbf4 <__stack_size+0xfac8>
40001aca:	bf75                	j	40001a86 <prvHeapInit+0x24>

40001acc <prvInsertBlockIntoFreeList>:
40001acc:	0000a797          	auipc	a5,0xa
40001ad0:	76c78793          	addi	a5,a5,1900 # 4000c238 <xStart>
40001ad4:	873e                	mv	a4,a5
40001ad6:	439c                	lw	a5,0(a5)
40001ad8:	fea7eee3          	bltu	a5,a0,40001ad4 <prvInsertBlockIntoFreeList+0x8>
40001adc:	4354                	lw	a3,4(a4)
40001ade:	00d70633          	add	a2,a4,a3
40001ae2:	00a60c63          	beq	a2,a0,40001afa <prvInsertBlockIntoFreeList+0x2e>
40001ae6:	4154                	lw	a3,4(a0)
40001ae8:	00d50633          	add	a2,a0,a3
40001aec:	00c78c63          	beq	a5,a2,40001b04 <prvInsertBlockIntoFreeList+0x38>
40001af0:	c11c                	sw	a5,0(a0)
40001af2:	00e50363          	beq	a0,a4,40001af8 <prvInsertBlockIntoFreeList+0x2c>
40001af6:	c308                	sw	a0,0(a4)
40001af8:	8082                	ret
40001afa:	4150                	lw	a2,4(a0)
40001afc:	96b2                	add	a3,a3,a2
40001afe:	c354                	sw	a3,4(a4)
40001b00:	853a                	mv	a0,a4
40001b02:	b7d5                	j	40001ae6 <prvInsertBlockIntoFreeList+0x1a>
40001b04:	0000a617          	auipc	a2,0xa
40001b08:	73062603          	lw	a2,1840(a2) # 4000c234 <pxEnd>
40001b0c:	00c78963          	beq	a5,a2,40001b1e <prvInsertBlockIntoFreeList+0x52>
40001b10:	43dc                	lw	a5,4(a5)
40001b12:	96be                	add	a3,a3,a5
40001b14:	c154                	sw	a3,4(a0)
40001b16:	431c                	lw	a5,0(a4)
40001b18:	439c                	lw	a5,0(a5)
40001b1a:	c11c                	sw	a5,0(a0)
40001b1c:	bfd9                	j	40001af2 <prvInsertBlockIntoFreeList+0x26>
40001b1e:	c110                	sw	a2,0(a0)
40001b20:	bfc9                	j	40001af2 <prvInsertBlockIntoFreeList+0x26>

40001b22 <pvPortMalloc>:
40001b22:	1101                	addi	sp,sp,-32
40001b24:	ce06                	sw	ra,28(sp)
40001b26:	cc22                	sw	s0,24(sp)
40001b28:	ca26                	sw	s1,20(sp)
40001b2a:	c84a                	sw	s2,16(sp)
40001b2c:	c64e                	sw	s3,12(sp)
40001b2e:	84aa                	mv	s1,a0
40001b30:	b64ff0ef          	jal	ra,40000e94 <vTaskSuspendAll>
40001b34:	0000a797          	auipc	a5,0xa
40001b38:	7007a783          	lw	a5,1792(a5) # 4000c234 <pxEnd>
40001b3c:	c395                	beqz	a5,40001b60 <pvPortMalloc+0x3e>
40001b3e:	c485                	beqz	s1,40001b66 <pvPortMalloc+0x44>
40001b40:	00f4f793          	andi	a5,s1,15
40001b44:	02000713          	li	a4,32
40001b48:	8f1d                	sub	a4,a4,a5
40001b4a:	fdf78793          	addi	a5,a5,-33
40001b4e:	0097eb63          	bltu	a5,s1,40001b64 <pvPortMalloc+0x42>
40001b52:	94ba                	add	s1,s1,a4
40001b54:	0004d963          	bgez	s1,40001b66 <pvPortMalloc+0x44>
40001b58:	ceaff0ef          	jal	ra,40001042 <xTaskResumeAll>
40001b5c:	4901                	li	s2,0
40001b5e:	a025                	j	40001b86 <pvPortMalloc+0x64>
40001b60:	3709                	jal	40001a62 <prvHeapInit>
40001b62:	bff1                	j	40001b3e <pvPortMalloc+0x1c>
40001b64:	4481                	li	s1,0
40001b66:	cc89                	beqz	s1,40001b80 <pvPortMalloc+0x5e>
40001b68:	0000a797          	auipc	a5,0xa
40001b6c:	6c87a783          	lw	a5,1736(a5) # 4000c230 <xFreeBytesRemaining>
40001b70:	0297e863          	bltu	a5,s1,40001ba0 <pvPortMalloc+0x7e>
40001b74:	0000a717          	auipc	a4,0xa
40001b78:	6c470713          	addi	a4,a4,1732 # 4000c238 <xStart>
40001b7c:	4300                	lw	s0,0(a4)
40001b7e:	a03d                	j	40001bac <pvPortMalloc+0x8a>
40001b80:	cc2ff0ef          	jal	ra,40001042 <xTaskResumeAll>
40001b84:	4901                	li	s2,0
40001b86:	c9cfe0ef          	jal	ra,40000022 <vApplicationMallocFailedHook>
40001b8a:	00f97793          	andi	a5,s2,15
40001b8e:	efc5                	bnez	a5,40001c46 <pvPortMalloc+0x124>
40001b90:	854a                	mv	a0,s2
40001b92:	40f2                	lw	ra,28(sp)
40001b94:	4462                	lw	s0,24(sp)
40001b96:	44d2                	lw	s1,20(sp)
40001b98:	4942                	lw	s2,16(sp)
40001b9a:	49b2                	lw	s3,12(sp)
40001b9c:	6105                	addi	sp,sp,32
40001b9e:	8082                	ret
40001ba0:	ca2ff0ef          	jal	ra,40001042 <xTaskResumeAll>
40001ba4:	4901                	li	s2,0
40001ba6:	b7c5                	j	40001b86 <pvPortMalloc+0x64>
40001ba8:	8722                	mv	a4,s0
40001baa:	843e                	mv	s0,a5
40001bac:	405c                	lw	a5,4(s0)
40001bae:	0097f463          	bgeu	a5,s1,40001bb6 <pvPortMalloc+0x94>
40001bb2:	401c                	lw	a5,0(s0)
40001bb4:	fbf5                	bnez	a5,40001ba8 <pvPortMalloc+0x86>
40001bb6:	0000a797          	auipc	a5,0xa
40001bba:	67e7a783          	lw	a5,1662(a5) # 4000c234 <pxEnd>
40001bbe:	06878d63          	beq	a5,s0,40001c38 <pvPortMalloc+0x116>
40001bc2:	00072903          	lw	s2,0(a4)
40001bc6:	0941                	addi	s2,s2,16
40001bc8:	401c                	lw	a5,0(s0)
40001bca:	c31c                	sw	a5,0(a4)
40001bcc:	405c                	lw	a5,4(s0)
40001bce:	8f85                	sub	a5,a5,s1
40001bd0:	02000713          	li	a4,32
40001bd4:	00f77e63          	bgeu	a4,a5,40001bf0 <pvPortMalloc+0xce>
40001bd8:	009409b3          	add	s3,s0,s1
40001bdc:	00f9f793          	andi	a5,s3,15
40001be0:	e3a5                	bnez	a5,40001c40 <pvPortMalloc+0x11e>
40001be2:	405c                	lw	a5,4(s0)
40001be4:	8f85                	sub	a5,a5,s1
40001be6:	00f9a223          	sw	a5,4(s3)
40001bea:	c044                	sw	s1,4(s0)
40001bec:	854e                	mv	a0,s3
40001bee:	3df9                	jal	40001acc <prvInsertBlockIntoFreeList>
40001bf0:	4058                	lw	a4,4(s0)
40001bf2:	0000a697          	auipc	a3,0xa
40001bf6:	63e68693          	addi	a3,a3,1598 # 4000c230 <xFreeBytesRemaining>
40001bfa:	429c                	lw	a5,0(a3)
40001bfc:	8f99                	sub	a5,a5,a4
40001bfe:	c29c                	sw	a5,0(a3)
40001c00:	0000a697          	auipc	a3,0xa
40001c04:	62c6a683          	lw	a3,1580(a3) # 4000c22c <xMinimumEverFreeBytesRemaining>
40001c08:	00d7f663          	bgeu	a5,a3,40001c14 <pvPortMalloc+0xf2>
40001c0c:	0000a697          	auipc	a3,0xa
40001c10:	62f6a023          	sw	a5,1568(a3) # 4000c22c <xMinimumEverFreeBytesRemaining>
40001c14:	800007b7          	lui	a5,0x80000
40001c18:	8f5d                	or	a4,a4,a5
40001c1a:	c058                	sw	a4,4(s0)
40001c1c:	00042023          	sw	zero,0(s0)
40001c20:	0000a717          	auipc	a4,0xa
40001c24:	60870713          	addi	a4,a4,1544 # 4000c228 <xNumberOfSuccessfulAllocations>
40001c28:	431c                	lw	a5,0(a4)
40001c2a:	0785                	addi	a5,a5,1 # 80000001 <_bss_lma+0xfffff561>
40001c2c:	c31c                	sw	a5,0(a4)
40001c2e:	c14ff0ef          	jal	ra,40001042 <xTaskResumeAll>
40001c32:	f4091ce3          	bnez	s2,40001b8a <pvPortMalloc+0x68>
40001c36:	bf81                	j	40001b86 <pvPortMalloc+0x64>
40001c38:	c0aff0ef          	jal	ra,40001042 <xTaskResumeAll>
40001c3c:	4901                	li	s2,0
40001c3e:	b7a1                	j	40001b86 <pvPortMalloc+0x64>
40001c40:	bf0fe0ef          	jal	ra,40000030 <vAssertCalled>
40001c44:	bf79                	j	40001be2 <pvPortMalloc+0xc0>
40001c46:	beafe0ef          	jal	ra,40000030 <vAssertCalled>
40001c4a:	b799                	j	40001b90 <pvPortMalloc+0x6e>

40001c4c <vPortFree>:
40001c4c:	cd35                	beqz	a0,40001cc8 <vPortFree+0x7c>
40001c4e:	1141                	addi	sp,sp,-16
40001c50:	c606                	sw	ra,12(sp)
40001c52:	c422                	sw	s0,8(sp)
40001c54:	c226                	sw	s1,4(sp)
40001c56:	842a                	mv	s0,a0
40001c58:	ff050493          	addi	s1,a0,-16
40001c5c:	ff452783          	lw	a5,-12(a0)
40001c60:	0207d363          	bgez	a5,40001c86 <vPortFree+0x3a>
40001c64:	ff042783          	lw	a5,-16(s0)
40001c68:	c399                	beqz	a5,40001c6e <vPortFree+0x22>
40001c6a:	bc6fe0ef          	jal	ra,40000030 <vAssertCalled>
40001c6e:	ff442783          	lw	a5,-12(s0)
40001c72:	0007d563          	bgez	a5,40001c7c <vPortFree+0x30>
40001c76:	ff042703          	lw	a4,-16(s0)
40001c7a:	cb09                	beqz	a4,40001c8c <vPortFree+0x40>
40001c7c:	40b2                	lw	ra,12(sp)
40001c7e:	4422                	lw	s0,8(sp)
40001c80:	4492                	lw	s1,4(sp)
40001c82:	0141                	addi	sp,sp,16
40001c84:	8082                	ret
40001c86:	baafe0ef          	jal	ra,40000030 <vAssertCalled>
40001c8a:	bfe9                	j	40001c64 <vPortFree+0x18>
40001c8c:	80000737          	lui	a4,0x80000
40001c90:	fff74713          	not	a4,a4
40001c94:	8ff9                	and	a5,a5,a4
40001c96:	fef42a23          	sw	a5,-12(s0)
40001c9a:	9faff0ef          	jal	ra,40000e94 <vTaskSuspendAll>
40001c9e:	ff442683          	lw	a3,-12(s0)
40001ca2:	0000a717          	auipc	a4,0xa
40001ca6:	58e70713          	addi	a4,a4,1422 # 4000c230 <xFreeBytesRemaining>
40001caa:	431c                	lw	a5,0(a4)
40001cac:	97b6                	add	a5,a5,a3
40001cae:	c31c                	sw	a5,0(a4)
40001cb0:	8526                	mv	a0,s1
40001cb2:	3d29                	jal	40001acc <prvInsertBlockIntoFreeList>
40001cb4:	0000a717          	auipc	a4,0xa
40001cb8:	57070713          	addi	a4,a4,1392 # 4000c224 <xNumberOfSuccessfulFrees>
40001cbc:	431c                	lw	a5,0(a4)
40001cbe:	0785                	addi	a5,a5,1
40001cc0:	c31c                	sw	a5,0(a4)
40001cc2:	b80ff0ef          	jal	ra,40001042 <xTaskResumeAll>
40001cc6:	bf5d                	j	40001c7c <vPortFree+0x30>
40001cc8:	8082                	ret

40001cca <xPortStartScheduler>:
40001cca:	1141                	addi	sp,sp,-16
40001ccc:	c606                	sw	ra,12(sp)
40001cce:	6609                	lui	a2,0x2
40001cd0:	0ee00593          	li	a1,238
40001cd4:	0001a517          	auipc	a0,0x1a
40001cd8:	2dc50513          	addi	a0,a0,732 # 4001bfb0 <xISRStack>
40001cdc:	2941                	jal	4000216c <memset>
40001cde:	d14fe0ef          	jal	ra,400001f2 <vPortSetupTimerInterrupt>
40001ce2:	2889                	jal	40001d34 <xPortStartFirstTask>
40001ce4:	4501                	li	a0,0
40001ce6:	40b2                	lw	ra,12(sp)
40001ce8:	0141                	addi	sp,sp,16
40001cea:	8082                	ret

40001cec <pxPortInitialiseStack>:
40001cec:	300022f3          	csrr	t0,mstatus
40001cf0:	ff72f293          	andi	t0,t0,-9
40001cf4:	18800313          	li	t1,392
40001cf8:	0312                	slli	t1,t1,0x4
40001cfa:	0062e2b3          	or	t0,t0,t1
40001cfe:	1571                	addi	a0,a0,-4
40001d00:	00552023          	sw	t0,0(a0)
40001d04:	1571                	addi	a0,a0,-4
40001d06:	00052023          	sw	zero,0(a0)
40001d0a:	fa850513          	addi	a0,a0,-88
40001d0e:	c110                	sw	a2,0(a0)
40001d10:	1521                	addi	a0,a0,-24
40001d12:	0000a297          	auipc	t0,0xa
40001d16:	52e2a283          	lw	t0,1326(t0) # 4000c240 <xTaskReturnAddress>
40001d1a:	00552023          	sw	t0,0(a0)
40001d1e:	4281                	li	t0,0

40001d20 <chip_specific_stack_frame>:
40001d20:	00028763          	beqz	t0,40001d2e <chip_specific_stack_frame+0xe>
40001d24:	1571                	addi	a0,a0,-4
40001d26:	00052023          	sw	zero,0(a0)
40001d2a:	12fd                	addi	t0,t0,-1
40001d2c:	bfd5                	j	40001d20 <chip_specific_stack_frame>
40001d2e:	1571                	addi	a0,a0,-4
40001d30:	c10c                	sw	a1,0(a0)
40001d32:	8082                	ret

40001d34 <xPortStartFirstTask>:
40001d34:	0000a117          	auipc	sp,0xa
40001d38:	4d812103          	lw	sp,1240(sp) # 4000c20c <pxCurrentTCB>
40001d3c:	4102                	lw	sp,0(sp)
40001d3e:	4082                	lw	ra,0(sp)
40001d40:	43c2                	lw	t2,16(sp)
40001d42:	4452                	lw	s0,20(sp)
40001d44:	44e2                	lw	s1,24(sp)
40001d46:	4572                	lw	a0,28(sp)
40001d48:	5582                	lw	a1,32(sp)
40001d4a:	5612                	lw	a2,36(sp)
40001d4c:	56a2                	lw	a3,40(sp)
40001d4e:	5732                	lw	a4,44(sp)
40001d50:	57c2                	lw	a5,48(sp)
40001d52:	5852                	lw	a6,52(sp)
40001d54:	58e2                	lw	a7,56(sp)
40001d56:	5972                	lw	s2,60(sp)
40001d58:	4986                	lw	s3,64(sp)
40001d5a:	4a16                	lw	s4,68(sp)
40001d5c:	4aa6                	lw	s5,72(sp)
40001d5e:	4b36                	lw	s6,76(sp)
40001d60:	4bc6                	lw	s7,80(sp)
40001d62:	4c56                	lw	s8,84(sp)
40001d64:	4ce6                	lw	s9,88(sp)
40001d66:	4d76                	lw	s10,92(sp)
40001d68:	5d86                	lw	s11,96(sp)
40001d6a:	5e16                	lw	t3,100(sp)
40001d6c:	5ea6                	lw	t4,104(sp)
40001d6e:	5f36                	lw	t5,108(sp)
40001d70:	5fc6                	lw	t6,112(sp)
40001d72:	52d6                	lw	t0,116(sp)
40001d74:	0000a317          	auipc	t1,0xa
40001d78:	43832303          	lw	t1,1080(t1) # 4000c1ac <pxCriticalNesting>
40001d7c:	00532023          	sw	t0,0(t1)
40001d80:	52e6                	lw	t0,120(sp)
40001d82:	02a1                	addi	t0,t0,8
40001d84:	30029073          	csrw	mstatus,t0
40001d88:	42a2                	lw	t0,8(sp)
40001d8a:	4332                	lw	t1,12(sp)
40001d8c:	07c10113          	addi	sp,sp,124
40001d90:	8082                	ret

40001d92 <freertos_risc_v_application_exception_handler>:
40001d92:	342022f3          	csrr	t0,mcause
40001d96:	34102373          	csrr	t1,mepc
40001d9a:	300023f3          	csrr	t2,mstatus
40001d9e:	a001                	j	40001d9e <freertos_risc_v_application_exception_handler+0xc>

40001da0 <freertos_risc_v_application_interrupt_handler>:
40001da0:	342022f3          	csrr	t0,mcause
40001da4:	34102373          	csrr	t1,mepc
40001da8:	300023f3          	csrr	t2,mstatus
40001dac:	a001                	j	40001dac <freertos_risc_v_application_interrupt_handler+0xc>
	...

40001e00 <freertos_risc_v_trap_handler>:
40001e00:	f8410113          	addi	sp,sp,-124
40001e04:	c206                	sw	ra,4(sp)
40001e06:	c416                	sw	t0,8(sp)
40001e08:	c61a                	sw	t1,12(sp)
40001e0a:	c81e                	sw	t2,16(sp)
40001e0c:	ca22                	sw	s0,20(sp)
40001e0e:	cc26                	sw	s1,24(sp)
40001e10:	ce2a                	sw	a0,28(sp)
40001e12:	d02e                	sw	a1,32(sp)
40001e14:	d232                	sw	a2,36(sp)
40001e16:	d436                	sw	a3,40(sp)
40001e18:	d63a                	sw	a4,44(sp)
40001e1a:	d83e                	sw	a5,48(sp)
40001e1c:	da42                	sw	a6,52(sp)
40001e1e:	dc46                	sw	a7,56(sp)
40001e20:	de4a                	sw	s2,60(sp)
40001e22:	c0ce                	sw	s3,64(sp)
40001e24:	c2d2                	sw	s4,68(sp)
40001e26:	c4d6                	sw	s5,72(sp)
40001e28:	c6da                	sw	s6,76(sp)
40001e2a:	c8de                	sw	s7,80(sp)
40001e2c:	cae2                	sw	s8,84(sp)
40001e2e:	cce6                	sw	s9,88(sp)
40001e30:	ceea                	sw	s10,92(sp)
40001e32:	d0ee                	sw	s11,96(sp)
40001e34:	d2f2                	sw	t3,100(sp)
40001e36:	d4f6                	sw	t4,104(sp)
40001e38:	d6fa                	sw	t5,108(sp)
40001e3a:	d8fe                	sw	t6,112(sp)
40001e3c:	0000a297          	auipc	t0,0xa
40001e40:	3742a283          	lw	t0,884(t0) # 4000c1b0 <xCriticalNesting>
40001e44:	da96                	sw	t0,116(sp)
40001e46:	300022f3          	csrr	t0,mstatus
40001e4a:	dc96                	sw	t0,120(sp)
40001e4c:	0000a297          	auipc	t0,0xa
40001e50:	3c02a283          	lw	t0,960(t0) # 4000c20c <pxCurrentTCB>
40001e54:	0022a023          	sw	sp,0(t0)
40001e58:	34202573          	csrr	a0,mcause
40001e5c:	341025f3          	csrr	a1,mepc
40001e60:	00055663          	bgez	a0,40001e6c <synchronous_exception>

40001e64 <asynchronous_interrupt>:
40001e64:	c02e                	sw	a1,0(sp)
40001e66:	8201a103          	lw	sp,-2016(gp) # 4000c1c8 <xISRStackTop>
40001e6a:	a031                	j	40001e76 <application_interrupt_handler>

40001e6c <synchronous_exception>:
40001e6c:	0591                	addi	a1,a1,4
40001e6e:	c02e                	sw	a1,0(sp)
40001e70:	8201a103          	lw	sp,-2016(gp) # 4000c1c8 <xISRStackTop>
40001e74:	a019                	j	40001e7a <handle_exception>

40001e76 <application_interrupt_handler>:
40001e76:	372d                	jal	40001da0 <freertos_risc_v_application_interrupt_handler>
40001e78:	a809                	j	40001e8a <processed_source>

40001e7a <handle_exception>:
40001e7a:	42ad                	li	t0,11
40001e7c:	00551563          	bne	a0,t0,40001e86 <application_exception_handler>
40001e80:	ba8ff0ef          	jal	ra,40001228 <vTaskSwitchContext>
40001e84:	a019                	j	40001e8a <processed_source>

40001e86 <application_exception_handler>:
40001e86:	3731                	jal	40001d92 <freertos_risc_v_application_exception_handler>
40001e88:	a009                	j	40001e8a <processed_source>

40001e8a <processed_source>:
40001e8a:	0000a317          	auipc	t1,0xa
40001e8e:	38232303          	lw	t1,898(t1) # 4000c20c <pxCurrentTCB>
40001e92:	00032103          	lw	sp,0(t1)
40001e96:	4282                	lw	t0,0(sp)
40001e98:	34129073          	csrw	mepc,t0
40001e9c:	52e6                	lw	t0,120(sp)
40001e9e:	30029073          	csrw	mstatus,t0
40001ea2:	52d6                	lw	t0,116(sp)
40001ea4:	0000a317          	auipc	t1,0xa
40001ea8:	30832303          	lw	t1,776(t1) # 4000c1ac <pxCriticalNesting>
40001eac:	00532023          	sw	t0,0(t1)
40001eb0:	4092                	lw	ra,4(sp)
40001eb2:	42a2                	lw	t0,8(sp)
40001eb4:	4332                	lw	t1,12(sp)
40001eb6:	43c2                	lw	t2,16(sp)
40001eb8:	4452                	lw	s0,20(sp)
40001eba:	44e2                	lw	s1,24(sp)
40001ebc:	4572                	lw	a0,28(sp)
40001ebe:	5582                	lw	a1,32(sp)
40001ec0:	5612                	lw	a2,36(sp)
40001ec2:	56a2                	lw	a3,40(sp)
40001ec4:	5732                	lw	a4,44(sp)
40001ec6:	57c2                	lw	a5,48(sp)
40001ec8:	5852                	lw	a6,52(sp)
40001eca:	58e2                	lw	a7,56(sp)
40001ecc:	5972                	lw	s2,60(sp)
40001ece:	4986                	lw	s3,64(sp)
40001ed0:	4a16                	lw	s4,68(sp)
40001ed2:	4aa6                	lw	s5,72(sp)
40001ed4:	4b36                	lw	s6,76(sp)
40001ed6:	4bc6                	lw	s7,80(sp)
40001ed8:	4c56                	lw	s8,84(sp)
40001eda:	4ce6                	lw	s9,88(sp)
40001edc:	4d76                	lw	s10,92(sp)
40001ede:	5d86                	lw	s11,96(sp)
40001ee0:	5e16                	lw	t3,100(sp)
40001ee2:	5ea6                	lw	t4,104(sp)
40001ee4:	5f36                	lw	t5,108(sp)
40001ee6:	5fc6                	lw	t6,112(sp)
40001ee8:	07c10113          	addi	sp,sp,124
40001eec:	30200073          	mret
	...

40001fea <__clzsi2>:
40001fea:	67c1                	lui	a5,0x10
40001fec:	02f57663          	bgeu	a0,a5,40002018 <__clzsi2+0x2e>
40001ff0:	10053793          	sltiu	a5,a0,256
40001ff4:	0017c793          	xori	a5,a5,1
40001ff8:	078e                	slli	a5,a5,0x3
40001ffa:	80000737          	lui	a4,0x80000
40001ffe:	02000693          	li	a3,32
40002002:	8e9d                	sub	a3,a3,a5
40002004:	00f55533          	srl	a0,a0,a5
40002008:	17c70793          	addi	a5,a4,380 # 8000017c <_bss_lma+0xfffff6dc>
4000200c:	97aa                	add	a5,a5,a0
4000200e:	0007c503          	lbu	a0,0(a5) # 10000 <__stack_size+0xfed4>
40002012:	40a68533          	sub	a0,a3,a0
40002016:	8082                	ret
40002018:	01000737          	lui	a4,0x1000
4000201c:	47c1                	li	a5,16
4000201e:	fce56ee3          	bltu	a0,a4,40001ffa <__clzsi2+0x10>
40002022:	47e1                	li	a5,24
40002024:	bfd9                	j	40001ffa <__clzsi2+0x10>

40002026 <memcpy>:
40002026:	00b547b3          	xor	a5,a0,a1
4000202a:	8b8d                	andi	a5,a5,3
4000202c:	00c508b3          	add	a7,a0,a2
40002030:	e7b1                	bnez	a5,4000207c <memcpy+0x56>
40002032:	478d                	li	a5,3
40002034:	04c7f463          	bgeu	a5,a2,4000207c <memcpy+0x56>
40002038:	00357793          	andi	a5,a0,3
4000203c:	872a                	mv	a4,a0
4000203e:	ebb9                	bnez	a5,40002094 <memcpy+0x6e>
40002040:	ffc8f613          	andi	a2,a7,-4
40002044:	40e606b3          	sub	a3,a2,a4
40002048:	02000793          	li	a5,32
4000204c:	06d7c863          	blt	a5,a3,400020bc <memcpy+0x96>
40002050:	86ae                	mv	a3,a1
40002052:	87ba                	mv	a5,a4
40002054:	02c77163          	bgeu	a4,a2,40002076 <memcpy+0x50>
40002058:	0006a803          	lw	a6,0(a3)
4000205c:	0791                	addi	a5,a5,4
4000205e:	0691                	addi	a3,a3,4
40002060:	ff07ae23          	sw	a6,-4(a5)
40002064:	fec7eae3          	bltu	a5,a2,40002058 <memcpy+0x32>
40002068:	fff60793          	addi	a5,a2,-1 # 1fff <__stack_size+0x1ed3>
4000206c:	8f99                	sub	a5,a5,a4
4000206e:	9bf1                	andi	a5,a5,-4
40002070:	0791                	addi	a5,a5,4
40002072:	973e                	add	a4,a4,a5
40002074:	95be                	add	a1,a1,a5
40002076:	01176663          	bltu	a4,a7,40002082 <memcpy+0x5c>
4000207a:	8082                	ret
4000207c:	872a                	mv	a4,a0
4000207e:	03157e63          	bgeu	a0,a7,400020ba <memcpy+0x94>
40002082:	0005c783          	lbu	a5,0(a1)
40002086:	0705                	addi	a4,a4,1 # 1000001 <__stack_size+0xfffed5>
40002088:	0585                	addi	a1,a1,1
4000208a:	fef70fa3          	sb	a5,-1(a4)
4000208e:	fee89ae3          	bne	a7,a4,40002082 <memcpy+0x5c>
40002092:	8082                	ret
40002094:	0005c683          	lbu	a3,0(a1)
40002098:	0705                	addi	a4,a4,1
4000209a:	00377793          	andi	a5,a4,3
4000209e:	fed70fa3          	sb	a3,-1(a4)
400020a2:	0585                	addi	a1,a1,1
400020a4:	dfd1                	beqz	a5,40002040 <memcpy+0x1a>
400020a6:	0005c683          	lbu	a3,0(a1)
400020aa:	0705                	addi	a4,a4,1
400020ac:	00377793          	andi	a5,a4,3
400020b0:	fed70fa3          	sb	a3,-1(a4)
400020b4:	0585                	addi	a1,a1,1
400020b6:	fff9                	bnez	a5,40002094 <memcpy+0x6e>
400020b8:	b761                	j	40002040 <memcpy+0x1a>
400020ba:	8082                	ret
400020bc:	1141                	addi	sp,sp,-16
400020be:	c622                	sw	s0,12(sp)
400020c0:	02000413          	li	s0,32
400020c4:	0005a383          	lw	t2,0(a1)
400020c8:	0045a283          	lw	t0,4(a1)
400020cc:	0085af83          	lw	t6,8(a1)
400020d0:	00c5af03          	lw	t5,12(a1)
400020d4:	0105ae83          	lw	t4,16(a1)
400020d8:	0145ae03          	lw	t3,20(a1)
400020dc:	0185a303          	lw	t1,24(a1)
400020e0:	01c5a803          	lw	a6,28(a1)
400020e4:	5194                	lw	a3,32(a1)
400020e6:	02470713          	addi	a4,a4,36
400020ea:	40e607b3          	sub	a5,a2,a4
400020ee:	fc772e23          	sw	t2,-36(a4)
400020f2:	fe572023          	sw	t0,-32(a4)
400020f6:	fff72223          	sw	t6,-28(a4)
400020fa:	ffe72423          	sw	t5,-24(a4)
400020fe:	ffd72623          	sw	t4,-20(a4)
40002102:	ffc72823          	sw	t3,-16(a4)
40002106:	fe672a23          	sw	t1,-12(a4)
4000210a:	ff072c23          	sw	a6,-8(a4)
4000210e:	fed72e23          	sw	a3,-4(a4)
40002112:	02458593          	addi	a1,a1,36
40002116:	faf447e3          	blt	s0,a5,400020c4 <memcpy+0x9e>
4000211a:	86ae                	mv	a3,a1
4000211c:	87ba                	mv	a5,a4
4000211e:	02c77163          	bgeu	a4,a2,40002140 <memcpy+0x11a>
40002122:	0006a803          	lw	a6,0(a3)
40002126:	0791                	addi	a5,a5,4
40002128:	0691                	addi	a3,a3,4
4000212a:	ff07ae23          	sw	a6,-4(a5)
4000212e:	fec7eae3          	bltu	a5,a2,40002122 <memcpy+0xfc>
40002132:	fff60793          	addi	a5,a2,-1
40002136:	8f99                	sub	a5,a5,a4
40002138:	9bf1                	andi	a5,a5,-4
4000213a:	0791                	addi	a5,a5,4
4000213c:	973e                	add	a4,a4,a5
4000213e:	95be                	add	a1,a1,a5
40002140:	01176563          	bltu	a4,a7,4000214a <memcpy+0x124>
40002144:	4432                	lw	s0,12(sp)
40002146:	0141                	addi	sp,sp,16
40002148:	8082                	ret
4000214a:	0005c783          	lbu	a5,0(a1)
4000214e:	0705                	addi	a4,a4,1
40002150:	0585                	addi	a1,a1,1
40002152:	fef70fa3          	sb	a5,-1(a4)
40002156:	fee887e3          	beq	a7,a4,40002144 <memcpy+0x11e>
4000215a:	0005c783          	lbu	a5,0(a1)
4000215e:	0705                	addi	a4,a4,1
40002160:	0585                	addi	a1,a1,1
40002162:	fef70fa3          	sb	a5,-1(a4)
40002166:	fee892e3          	bne	a7,a4,4000214a <memcpy+0x124>
4000216a:	bfe9                	j	40002144 <memcpy+0x11e>

4000216c <memset>:
4000216c:	433d                	li	t1,15
4000216e:	872a                	mv	a4,a0
40002170:	02c37363          	bgeu	t1,a2,40002196 <memset+0x2a>
40002174:	00f77793          	andi	a5,a4,15
40002178:	efbd                	bnez	a5,400021f6 <memset+0x8a>
4000217a:	e5ad                	bnez	a1,400021e4 <memset+0x78>
4000217c:	ff067693          	andi	a3,a2,-16
40002180:	8a3d                	andi	a2,a2,15
40002182:	96ba                	add	a3,a3,a4
40002184:	c30c                	sw	a1,0(a4)
40002186:	c34c                	sw	a1,4(a4)
40002188:	c70c                	sw	a1,8(a4)
4000218a:	c74c                	sw	a1,12(a4)
4000218c:	0741                	addi	a4,a4,16
4000218e:	fed76be3          	bltu	a4,a3,40002184 <memset+0x18>
40002192:	e211                	bnez	a2,40002196 <memset+0x2a>
40002194:	8082                	ret
40002196:	40c306b3          	sub	a3,t1,a2
4000219a:	068a                	slli	a3,a3,0x2
4000219c:	00000297          	auipc	t0,0x0
400021a0:	9696                	add	a3,a3,t0
400021a2:	00a68067          	jr	10(a3)
400021a6:	00b70723          	sb	a1,14(a4)
400021aa:	00b706a3          	sb	a1,13(a4)
400021ae:	00b70623          	sb	a1,12(a4)
400021b2:	00b705a3          	sb	a1,11(a4)
400021b6:	00b70523          	sb	a1,10(a4)
400021ba:	00b704a3          	sb	a1,9(a4)
400021be:	00b70423          	sb	a1,8(a4)
400021c2:	00b703a3          	sb	a1,7(a4)
400021c6:	00b70323          	sb	a1,6(a4)
400021ca:	00b702a3          	sb	a1,5(a4)
400021ce:	00b70223          	sb	a1,4(a4)
400021d2:	00b701a3          	sb	a1,3(a4)
400021d6:	00b70123          	sb	a1,2(a4)
400021da:	00b700a3          	sb	a1,1(a4)
400021de:	00b70023          	sb	a1,0(a4)
400021e2:	8082                	ret
400021e4:	0ff5f593          	zext.b	a1,a1
400021e8:	00859693          	slli	a3,a1,0x8
400021ec:	8dd5                	or	a1,a1,a3
400021ee:	01059693          	slli	a3,a1,0x10
400021f2:	8dd5                	or	a1,a1,a3
400021f4:	b761                	j	4000217c <memset+0x10>
400021f6:	00279693          	slli	a3,a5,0x2
400021fa:	00000297          	auipc	t0,0x0
400021fe:	9696                	add	a3,a3,t0
40002200:	8286                	mv	t0,ra
40002202:	fa8680e7          	jalr	-88(a3)
40002206:	8096                	mv	ra,t0
40002208:	17c1                	addi	a5,a5,-16
4000220a:	8f1d                	sub	a4,a4,a5
4000220c:	963e                	add	a2,a2,a5
4000220e:	f8c374e3          	bgeu	t1,a2,40002196 <memset+0x2a>
40002212:	b7a5                	j	4000217a <memset+0xe>

40002214 <sprintf>:
40002214:	8e2a                	mv	t3,a0
40002216:	7135                	addi	sp,sp,-160
40002218:	80c1a503          	lw	a0,-2036(gp) # 4000c1b4 <_impure_ptr>
4000221c:	08810e93          	addi	t4,sp,136
40002220:	cb3e                	sw	a5,148(sp)
40002222:	80000337          	lui	t1,0x80000
40002226:	77c1                	lui	a5,0xffff0
40002228:	fff34313          	not	t1,t1
4000222c:	c532                	sw	a2,136(sp)
4000222e:	c736                	sw	a3,140(sp)
40002230:	20878793          	addi	a5,a5,520 # ffff0208 <_bss_lma+0x7ffef768>
40002234:	862e                	mv	a2,a1
40002236:	86f6                	mv	a3,t4
40002238:	002c                	addi	a1,sp,8
4000223a:	de86                	sw	ra,124(sp)
4000223c:	ca3e                	sw	a5,20(sp)
4000223e:	c93a                	sw	a4,144(sp)
40002240:	cd42                	sw	a6,152(sp)
40002242:	cf46                	sw	a7,156(sp)
40002244:	c472                	sw	t3,8(sp)
40002246:	cc72                	sw	t3,24(sp)
40002248:	c81a                	sw	t1,16(sp)
4000224a:	ce1a                	sw	t1,28(sp)
4000224c:	c276                	sw	t4,4(sp)
4000224e:	288d                	jal	400022c0 <_svfprintf_r>
40002250:	47a2                	lw	a5,8(sp)
40002252:	00078023          	sb	zero,0(a5)
40002256:	50f6                	lw	ra,124(sp)
40002258:	610d                	addi	sp,sp,160
4000225a:	8082                	ret

4000225c <strlen>:
4000225c:	00357793          	andi	a5,a0,3
40002260:	872a                	mv	a4,a0
40002262:	ef9d                	bnez	a5,400022a0 <strlen+0x44>
40002264:	7f7f86b7          	lui	a3,0x7f7f8
40002268:	f7f68693          	addi	a3,a3,-129 # 7f7f7f7f <_stack_top+0x3f7d9e73>
4000226c:	55fd                	li	a1,-1
4000226e:	4310                	lw	a2,0(a4)
40002270:	0711                	addi	a4,a4,4
40002272:	00d677b3          	and	a5,a2,a3
40002276:	97b6                	add	a5,a5,a3
40002278:	8fd1                	or	a5,a5,a2
4000227a:	8fd5                	or	a5,a5,a3
4000227c:	feb789e3          	beq	a5,a1,4000226e <strlen+0x12>
40002280:	ffc74683          	lbu	a3,-4(a4)
40002284:	40a707b3          	sub	a5,a4,a0
40002288:	ca8d                	beqz	a3,400022ba <strlen+0x5e>
4000228a:	ffd74683          	lbu	a3,-3(a4)
4000228e:	c29d                	beqz	a3,400022b4 <strlen+0x58>
40002290:	ffe74503          	lbu	a0,-2(a4)
40002294:	00a03533          	snez	a0,a0
40002298:	953e                	add	a0,a0,a5
4000229a:	1579                	addi	a0,a0,-2
4000229c:	8082                	ret
4000229e:	d2f9                	beqz	a3,40002264 <strlen+0x8>
400022a0:	00074783          	lbu	a5,0(a4)
400022a4:	0705                	addi	a4,a4,1
400022a6:	00377693          	andi	a3,a4,3
400022aa:	fbf5                	bnez	a5,4000229e <strlen+0x42>
400022ac:	8f09                	sub	a4,a4,a0
400022ae:	fff70513          	addi	a0,a4,-1
400022b2:	8082                	ret
400022b4:	ffd78513          	addi	a0,a5,-3
400022b8:	8082                	ret
400022ba:	ffc78513          	addi	a0,a5,-4
400022be:	8082                	ret

400022c0 <_svfprintf_r>:
400022c0:	7141                	addi	sp,sp,-496
400022c2:	1e112623          	sw	ra,492(sp)
400022c6:	1e812423          	sw	s0,488(sp)
400022ca:	c42e                	sw	a1,8(sp)
400022cc:	842e                	mv	s0,a1
400022ce:	c632                	sw	a2,12(sp)
400022d0:	cc36                	sw	a3,24(sp)
400022d2:	1e912223          	sw	s1,484(sp)
400022d6:	1f212023          	sw	s2,480(sp)
400022da:	1d312e23          	sw	s3,476(sp)
400022de:	1d412c23          	sw	s4,472(sp)
400022e2:	1d512a23          	sw	s5,468(sp)
400022e6:	1d612823          	sw	s6,464(sp)
400022ea:	1d712623          	sw	s7,460(sp)
400022ee:	1d812423          	sw	s8,456(sp)
400022f2:	1d912223          	sw	s9,452(sp)
400022f6:	1da12023          	sw	s10,448(sp)
400022fa:	1bb12e23          	sw	s11,444(sp)
400022fe:	d82a                	sw	a0,48(sp)
40002300:	7f5030ef          	jal	ra,400062f4 <_localeconv_r>
40002304:	411c                	lw	a5,0(a0)
40002306:	853e                	mv	a0,a5
40002308:	dc3e                	sw	a5,56(sp)
4000230a:	3f89                	jal	4000225c <strlen>
4000230c:	00c45783          	lhu	a5,12(s0)
40002310:	d982                	sw	zero,240(sp)
40002312:	db82                	sw	zero,244(sp)
40002314:	dd82                	sw	zero,248(sp)
40002316:	df82                	sw	zero,252(sp)
40002318:	0807f793          	andi	a5,a5,128
4000231c:	da2a                	sw	a0,52(sp)
4000231e:	42b2                	lw	t0,12(sp)
40002320:	c781                	beqz	a5,40002328 <_svfprintf_r+0x68>
40002322:	481c                	lw	a5,16(s0)
40002324:	5e078be3          	beqz	a5,4000311a <_svfprintf_r+0xe5a>
40002328:	800007b7          	lui	a5,0x80000
4000232c:	2c078793          	addi	a5,a5,704 # 800002c0 <_bss_lma+0xfffff820>
40002330:	ce3e                	sw	a5,28(sp)
40002332:	800007b7          	lui	a5,0x80000
40002336:	4c478793          	addi	a5,a5,1220 # 800004c4 <_bss_lma+0xfffffa24>
4000233a:	8c16                	mv	s8,t0
4000233c:	c63e                	sw	a5,12(sp)
4000233e:	000c4783          	lbu	a5,0(s8)
40002342:	10c10b13          	addi	s6,sp,268
40002346:	d3da                	sw	s6,228(sp)
40002348:	d782                	sw	zero,236(sp)
4000234a:	d582                	sw	zero,232(sp)
4000234c:	d202                	sw	zero,36(sp)
4000234e:	de02                	sw	zero,60(sp)
40002350:	c282                	sw	zero,68(sp)
40002352:	c082                	sw	zero,64(sp)
40002354:	c682                	sw	zero,76(sp)
40002356:	c482                	sw	zero,72(sp)
40002358:	c802                	sw	zero,16(sp)
4000235a:	59c2                	lw	s3,48(sp)
4000235c:	845a                	mv	s0,s6
4000235e:	18078163          	beqz	a5,400024e0 <_svfprintf_r+0x220>
40002362:	84e2                	mv	s1,s8
40002364:	02500713          	li	a4,37
40002368:	2ce78a63          	beq	a5,a4,4000263c <_svfprintf_r+0x37c>
4000236c:	0014c783          	lbu	a5,1(s1)
40002370:	0485                	addi	s1,s1,1
40002372:	fbfd                	bnez	a5,40002368 <_svfprintf_r+0xa8>
40002374:	41848933          	sub	s2,s1,s8
40002378:	17848463          	beq	s1,s8,400024e0 <_svfprintf_r+0x220>
4000237c:	573e                	lw	a4,236(sp)
4000237e:	57ae                	lw	a5,232(sp)
40002380:	01842023          	sw	s8,0(s0)
40002384:	974a                	add	a4,a4,s2
40002386:	0785                	addi	a5,a5,1
40002388:	01242223          	sw	s2,4(s0)
4000238c:	d7ba                	sw	a4,236(sp)
4000238e:	d5be                	sw	a5,232(sp)
40002390:	471d                	li	a4,7
40002392:	0421                	addi	s0,s0,8
40002394:	2af74b63          	blt	a4,a5,4000264a <_svfprintf_r+0x38a>
40002398:	4742                	lw	a4,16(sp)
4000239a:	0004c783          	lbu	a5,0(s1)
4000239e:	974a                	add	a4,a4,s2
400023a0:	c83a                	sw	a4,16(sp)
400023a2:	12078f63          	beqz	a5,400024e0 <_svfprintf_r+0x220>
400023a6:	0014c883          	lbu	a7,1(s1)
400023aa:	0c0103a3          	sb	zero,199(sp)
400023ae:	0485                	addi	s1,s1,1
400023b0:	597d                	li	s2,-1
400023b2:	4a01                	li	s4,0
400023b4:	4b81                	li	s7,0
400023b6:	05a00c93          	li	s9,90
400023ba:	0485                	addi	s1,s1,1
400023bc:	fe088793          	addi	a5,a7,-32
400023c0:	02fceb63          	bltu	s9,a5,400023f6 <_svfprintf_r+0x136>
400023c4:	4772                	lw	a4,28(sp)
400023c6:	078a                	slli	a5,a5,0x2
400023c8:	97ba                	add	a5,a5,a4
400023ca:	439c                	lw	a5,0(a5)
400023cc:	8782                	jr	a5
400023ce:	4a01                	li	s4,0
400023d0:	fd088793          	addi	a5,a7,-48
400023d4:	46a5                	li	a3,9
400023d6:	0004c883          	lbu	a7,0(s1)
400023da:	002a1713          	slli	a4,s4,0x2
400023de:	9a3a                	add	s4,s4,a4
400023e0:	0a06                	slli	s4,s4,0x1
400023e2:	9a3e                	add	s4,s4,a5
400023e4:	fd088793          	addi	a5,a7,-48
400023e8:	0485                	addi	s1,s1,1
400023ea:	fef6f6e3          	bgeu	a3,a5,400023d6 <_svfprintf_r+0x116>
400023ee:	fe088793          	addi	a5,a7,-32
400023f2:	fcfcf9e3          	bgeu	s9,a5,400023c4 <_svfprintf_r+0x104>
400023f6:	0e088563          	beqz	a7,400024e0 <_svfprintf_r+0x220>
400023fa:	15110623          	sb	a7,332(sp)
400023fe:	0c0103a3          	sb	zero,199(sp)
40002402:	4c85                	li	s9,1
40002404:	4d05                	li	s10,1
40002406:	14c10c13          	addi	s8,sp,332
4000240a:	ca02                	sw	zero,20(sp)
4000240c:	4901                	li	s2,0
4000240e:	d402                	sw	zero,40(sp)
40002410:	d602                	sw	zero,44(sp)
40002412:	d002                	sw	zero,32(sp)
40002414:	002bff93          	andi	t6,s7,2
40002418:	000f8363          	beqz	t6,4000241e <_svfprintf_r+0x15e>
4000241c:	0c89                	addi	s9,s9,2
4000241e:	084bfd93          	andi	s11,s7,132
40002422:	000d9663          	bnez	s11,4000242e <_svfprintf_r+0x16e>
40002426:	419a0733          	sub	a4,s4,s9
4000242a:	08e045e3          	bgtz	a4,40002cb4 <_svfprintf_r+0x9f4>
4000242e:	0c714703          	lbu	a4,199(sp)
40002432:	c305                	beqz	a4,40002452 <_svfprintf_r+0x192>
40002434:	563e                	lw	a2,236(sp)
40002436:	572e                	lw	a4,232(sp)
40002438:	0c710593          	addi	a1,sp,199
4000243c:	0605                	addi	a2,a2,1
4000243e:	c00c                	sw	a1,0(s0)
40002440:	0705                	addi	a4,a4,1
40002442:	4585                	li	a1,1
40002444:	c04c                	sw	a1,4(s0)
40002446:	d7b2                	sw	a2,236(sp)
40002448:	d5ba                	sw	a4,232(sp)
4000244a:	461d                	li	a2,7
4000244c:	0421                	addi	s0,s0,8
4000244e:	2ce64763          	blt	a2,a4,4000271c <_svfprintf_r+0x45c>
40002452:	020f8063          	beqz	t6,40002472 <_svfprintf_r+0x1b2>
40002456:	563e                	lw	a2,236(sp)
40002458:	572e                	lw	a4,232(sp)
4000245a:	01bc                	addi	a5,sp,200
4000245c:	0609                	addi	a2,a2,2
4000245e:	0705                	addi	a4,a4,1
40002460:	4589                	li	a1,2
40002462:	c01c                	sw	a5,0(s0)
40002464:	c04c                	sw	a1,4(s0)
40002466:	d7b2                	sw	a2,236(sp)
40002468:	d5ba                	sw	a4,232(sp)
4000246a:	461d                	li	a2,7
4000246c:	0421                	addi	s0,s0,8
4000246e:	0ee640e3          	blt	a2,a4,40002d4e <_svfprintf_r+0xa8e>
40002472:	08000713          	li	a4,128
40002476:	6eed8d63          	beq	s11,a4,40002b70 <_svfprintf_r+0x8b0>
4000247a:	41a90933          	sub	s2,s2,s10
4000247e:	79204563          	bgtz	s2,40002c08 <_svfprintf_r+0x948>
40002482:	100bf713          	andi	a4,s7,256
40002486:	5c071f63          	bnez	a4,40002a64 <_svfprintf_r+0x7a4>
4000248a:	573e                	lw	a4,236(sp)
4000248c:	562e                	lw	a2,232(sp)
4000248e:	01842023          	sw	s8,0(s0)
40002492:	976a                	add	a4,a4,s10
40002494:	0605                	addi	a2,a2,1
40002496:	01a42223          	sw	s10,4(s0)
4000249a:	d7ba                	sw	a4,236(sp)
4000249c:	d5b2                	sw	a2,232(sp)
4000249e:	459d                	li	a1,7
400024a0:	34c5c263          	blt	a1,a2,400027e4 <_svfprintf_r+0x524>
400024a4:	0421                	addi	s0,s0,8
400024a6:	004bf793          	andi	a5,s7,4
400024aa:	c789                	beqz	a5,400024b4 <_svfprintf_r+0x1f4>
400024ac:	419a0933          	sub	s2,s4,s9
400024b0:	0b204ae3          	bgtz	s2,40002d64 <_svfprintf_r+0xaa4>
400024b4:	8352                	mv	t1,s4
400024b6:	019a5363          	bge	s4,s9,400024bc <_svfprintf_r+0x1fc>
400024ba:	8366                	mv	t1,s9
400024bc:	47c2                	lw	a5,16(sp)
400024be:	979a                	add	a5,a5,t1
400024c0:	c83e                	sw	a5,16(sp)
400024c2:	7c071763          	bnez	a4,40002c90 <_svfprintf_r+0x9d0>
400024c6:	47d2                	lw	a5,20(sp)
400024c8:	d582                	sw	zero,232(sp)
400024ca:	c789                	beqz	a5,400024d4 <_svfprintf_r+0x214>
400024cc:	45d2                	lw	a1,20(sp)
400024ce:	854e                	mv	a0,s3
400024d0:	2fd010ef          	jal	ra,40003fcc <_free_r>
400024d4:	845a                	mv	s0,s6
400024d6:	8c26                	mv	s8,s1
400024d8:	000c4783          	lbu	a5,0(s8)
400024dc:	e80793e3          	bnez	a5,40002362 <_svfprintf_r+0xa2>
400024e0:	57be                	lw	a5,236(sp)
400024e2:	c399                	beqz	a5,400024e8 <_svfprintf_r+0x228>
400024e4:	3840106f          	j	40003868 <_svfprintf_r+0x15a8>
400024e8:	47a2                	lw	a5,8(sp)
400024ea:	00c7d783          	lhu	a5,12(a5)
400024ee:	0407f793          	andi	a5,a5,64
400024f2:	c399                	beqz	a5,400024f8 <_svfprintf_r+0x238>
400024f4:	11f0106f          	j	40003e12 <_svfprintf_r+0x1b52>
400024f8:	1ec12083          	lw	ra,492(sp)
400024fc:	1e812403          	lw	s0,488(sp)
40002500:	4542                	lw	a0,16(sp)
40002502:	1e412483          	lw	s1,484(sp)
40002506:	1e012903          	lw	s2,480(sp)
4000250a:	1dc12983          	lw	s3,476(sp)
4000250e:	1d812a03          	lw	s4,472(sp)
40002512:	1d412a83          	lw	s5,468(sp)
40002516:	1d012b03          	lw	s6,464(sp)
4000251a:	1cc12b83          	lw	s7,460(sp)
4000251e:	1c812c03          	lw	s8,456(sp)
40002522:	1c412c83          	lw	s9,452(sp)
40002526:	1c012d03          	lw	s10,448(sp)
4000252a:	1bc12d83          	lw	s11,444(sp)
4000252e:	617d                	addi	sp,sp,496
40002530:	8082                	ret
40002532:	854e                	mv	a0,s3
40002534:	5c1030ef          	jal	ra,400062f4 <_localeconv_r>
40002538:	415c                	lw	a5,4(a0)
4000253a:	853e                	mv	a0,a5
4000253c:	c4be                	sw	a5,72(sp)
4000253e:	3b39                	jal	4000225c <strlen>
40002540:	87aa                	mv	a5,a0
40002542:	854e                	mv	a0,s3
40002544:	8abe                	mv	s5,a5
40002546:	c6be                	sw	a5,76(sp)
40002548:	5ad030ef          	jal	ra,400062f4 <_localeconv_r>
4000254c:	4518                	lw	a4,8(a0)
4000254e:	c0ba                	sw	a4,64(sp)
40002550:	300a93e3          	bnez	s5,40003056 <_svfprintf_r+0xd96>
40002554:	0004c883          	lbu	a7,0(s1)
40002558:	b58d                	j	400023ba <_svfprintf_r+0xfa>
4000255a:	0004c883          	lbu	a7,0(s1)
4000255e:	020beb93          	ori	s7,s7,32
40002562:	bda1                	j	400023ba <_svfprintf_r+0xfa>
40002564:	010beb93          	ori	s7,s7,16
40002568:	020bf713          	andi	a4,s7,32
4000256c:	2a070863          	beqz	a4,4000281c <_svfprintf_r+0x55c>
40002570:	47e2                	lw	a5,24(sp)
40002572:	00778a93          	addi	s5,a5,7
40002576:	ff8afa93          	andi	s5,s5,-8
4000257a:	004aa703          	lw	a4,4(s5)
4000257e:	000aac83          	lw	s9,0(s5)
40002582:	008a8793          	addi	a5,s5,8
40002586:	cc3e                	sw	a5,24(sp)
40002588:	8d3a                	mv	s10,a4
4000258a:	2a074e63          	bltz	a4,40002846 <_svfprintf_r+0x586>
4000258e:	577d                	li	a4,-1
40002590:	8dde                	mv	s11,s7
40002592:	00e90863          	beq	s2,a4,400025a2 <_svfprintf_r+0x2e2>
40002596:	01ace733          	or	a4,s9,s10
4000259a:	f7fbfd93          	andi	s11,s7,-129
4000259e:	2c070ee3          	beqz	a4,4000307a <_svfprintf_r+0xdba>
400025a2:	560d17e3          	bnez	s10,40003310 <_svfprintf_r+0x1050>
400025a6:	47a5                	li	a5,9
400025a8:	5797e4e3          	bltu	a5,s9,40003310 <_svfprintf_r+0x1050>
400025ac:	030c8c93          	addi	s9,s9,48
400025b0:	1b9107a3          	sb	s9,431(sp)
400025b4:	8bee                	mv	s7,s11
400025b6:	4d05                	li	s10,1
400025b8:	1af10c13          	addi	s8,sp,431
400025bc:	0c714703          	lbu	a4,199(sp)
400025c0:	8cea                	mv	s9,s10
400025c2:	012d5363          	bge	s10,s2,400025c8 <_svfprintf_r+0x308>
400025c6:	8cca                	mv	s9,s2
400025c8:	ca02                	sw	zero,20(sp)
400025ca:	d402                	sw	zero,40(sp)
400025cc:	d602                	sw	zero,44(sp)
400025ce:	d002                	sw	zero,32(sp)
400025d0:	e40702e3          	beqz	a4,40002414 <_svfprintf_r+0x154>
400025d4:	0c85                	addi	s9,s9,1
400025d6:	bd3d                	j	40002414 <_svfprintf_r+0x154>
400025d8:	010beb93          	ori	s7,s7,16
400025dc:	020bf713          	andi	a4,s7,32
400025e0:	20070c63          	beqz	a4,400027f8 <_svfprintf_r+0x538>
400025e4:	47e2                	lw	a5,24(sp)
400025e6:	00778a93          	addi	s5,a5,7
400025ea:	ff8afa93          	andi	s5,s5,-8
400025ee:	000aac83          	lw	s9,0(s5)
400025f2:	004aad03          	lw	s10,4(s5)
400025f6:	008a8793          	addi	a5,s5,8
400025fa:	cc3e                	sw	a5,24(sp)
400025fc:	bffbfd93          	andi	s11,s7,-1025
40002600:	4681                	li	a3,0
40002602:	4781                	li	a5,0
40002604:	0cf103a3          	sb	a5,199(sp)
40002608:	57fd                	li	a5,-1
4000260a:	24f90f63          	beq	s2,a5,40002868 <_svfprintf_r+0x5a8>
4000260e:	01ace733          	or	a4,s9,s10
40002612:	f7fdfb93          	andi	s7,s11,-129
40002616:	68071d63          	bnez	a4,40002cb0 <_svfprintf_r+0x9f0>
4000261a:	50091763          	bnez	s2,40002b28 <_svfprintf_r+0x868>
4000261e:	180699e3          	bnez	a3,40002fb0 <_svfprintf_r+0xcf0>
40002622:	001dfd13          	andi	s10,s11,1
40002626:	1b010c13          	addi	s8,sp,432
4000262a:	f80d09e3          	beqz	s10,400025bc <_svfprintf_r+0x2fc>
4000262e:	03000713          	li	a4,48
40002632:	1ae107a3          	sb	a4,431(sp)
40002636:	1af10c13          	addi	s8,sp,431
4000263a:	b749                	j	400025bc <_svfprintf_r+0x2fc>
4000263c:	41848933          	sub	s2,s1,s8
40002640:	d3849ee3          	bne	s1,s8,4000237c <_svfprintf_r+0xbc>
40002644:	0004c783          	lbu	a5,0(s1)
40002648:	bba9                	j	400023a2 <_svfprintf_r+0xe2>
4000264a:	45a2                	lw	a1,8(sp)
4000264c:	11d0                	addi	a2,sp,228
4000264e:	854e                	mv	a0,s3
40002650:	540040ef          	jal	ra,40006b90 <__ssprint_r>
40002654:	e8051ae3          	bnez	a0,400024e8 <_svfprintf_r+0x228>
40002658:	845a                	mv	s0,s6
4000265a:	bb3d                	j	40002398 <_svfprintf_r+0xd8>
4000265c:	008bf713          	andi	a4,s7,8
40002660:	1a071fe3          	bnez	a4,4000301e <_svfprintf_r+0xd5e>
40002664:	47e2                	lw	a5,24(sp)
40002666:	1908                	addi	a0,sp,176
40002668:	ca46                	sw	a7,20(sp)
4000266a:	00778a93          	addi	s5,a5,7
4000266e:	ff8afa93          	andi	s5,s5,-8
40002672:	000aa583          	lw	a1,0(s5)
40002676:	004aa603          	lw	a2,4(s5)
4000267a:	008a8793          	addi	a5,s5,8
4000267e:	cc3e                	sw	a5,24(sp)
40002680:	5c7080ef          	jal	ra,4000b446 <__extenddftf2>
40002684:	55ca                	lw	a1,176(sp)
40002686:	565a                	lw	a2,180(sp)
40002688:	56ea                	lw	a3,184(sp)
4000268a:	577a                	lw	a4,188(sp)
4000268c:	48d2                	lw	a7,20(sp)
4000268e:	1988                	addi	a0,sp,240
40002690:	ca46                	sw	a7,20(sp)
40002692:	dfba                	sw	a4,252(sp)
40002694:	d9ae                	sw	a1,240(sp)
40002696:	dbb2                	sw	a2,244(sp)
40002698:	ddb6                	sw	a3,248(sp)
4000269a:	411030ef          	jal	ra,400062aa <_ldcheck>
4000269e:	c7aa                	sw	a0,204(sp)
400026a0:	4709                	li	a4,2
400026a2:	48d2                	lw	a7,20(sp)
400026a4:	60e504e3          	beq	a0,a4,400034ac <_svfprintf_r+0x11ec>
400026a8:	4705                	li	a4,1
400026aa:	6ee50ce3          	beq	a0,a4,400035a2 <_svfprintf_r+0x12e2>
400026ae:	06100713          	li	a4,97
400026b2:	00e89463          	bne	a7,a4,400026ba <_svfprintf_r+0x3fa>
400026b6:	4ac0106f          	j	40003b62 <_svfprintf_r+0x18a2>
400026ba:	04100713          	li	a4,65
400026be:	00e89463          	bne	a7,a4,400026c6 <_svfprintf_r+0x406>
400026c2:	5f80106f          	j	40003cba <_svfprintf_r+0x19fa>
400026c6:	577d                	li	a4,-1
400026c8:	00e91463          	bne	s2,a4,400026d0 <_svfprintf_r+0x410>
400026cc:	1c60106f          	j	40003892 <_svfprintf_r+0x15d2>
400026d0:	fdf8f713          	andi	a4,a7,-33
400026d4:	04700693          	li	a3,71
400026d8:	00d71463          	bne	a4,a3,400026e0 <_svfprintf_r+0x420>
400026dc:	73e0106f          	j	40003e1a <_svfprintf_r+0x1b5a>
400026e0:	5dfe                	lw	s11,252(sp)
400026e2:	100be793          	ori	a5,s7,256
400026e6:	ccbe                	sw	a5,88(sp)
400026e8:	d65e                	sw	s7,44(sp)
400026ea:	5f4e                	lw	t5,240(sp)
400026ec:	5ede                	lw	t4,244(sp)
400026ee:	5e6e                	lw	t3,248(sp)
400026f0:	000dd463          	bgez	s11,400026f8 <_svfprintf_r+0x438>
400026f4:	5460106f          	j	40003c3a <_svfprintf_r+0x197a>
400026f8:	d082                	sw	zero,96(sp)
400026fa:	ca02                	sw	zero,20(sp)
400026fc:	fbf88793          	addi	a5,a7,-65
40002700:	02500713          	li	a4,37
40002704:	00f77463          	bgeu	a4,a5,4000270c <_svfprintf_r+0x44c>
40002708:	7a30006f          	j	400036aa <_svfprintf_r+0x13ea>
4000270c:	80000737          	lui	a4,0x80000
40002710:	078a                	slli	a5,a5,0x2
40002712:	42c70713          	addi	a4,a4,1068 # 8000042c <_bss_lma+0xfffff98c>
40002716:	97ba                	add	a5,a5,a4
40002718:	439c                	lw	a5,0(a5)
4000271a:	8782                	jr	a5
4000271c:	45a2                	lw	a1,8(sp)
4000271e:	11d0                	addi	a2,sp,228
40002720:	854e                	mv	a0,s3
40002722:	cac6                	sw	a7,84(sp)
40002724:	c8fe                	sw	t6,80(sp)
40002726:	46a040ef          	jal	ra,40006b90 <__ssprint_r>
4000272a:	56051a63          	bnez	a0,40002c9e <_svfprintf_r+0x9de>
4000272e:	48d6                	lw	a7,84(sp)
40002730:	4fc6                	lw	t6,80(sp)
40002732:	845a                	mv	s0,s6
40002734:	bb39                	j	40002452 <_svfprintf_r+0x192>
40002736:	5792                	lw	a5,36(sp)
40002738:	4585                	li	a1,1
4000273a:	00840d13          	addi	s10,s0,8
4000273e:	7af5d563          	bge	a1,a5,40002ee8 <_svfprintf_r+0xc28>
40002742:	573e                	lw	a4,236(sp)
40002744:	562e                	lw	a2,232(sp)
40002746:	4585                	li	a1,1
40002748:	0705                	addi	a4,a4,1
4000274a:	0605                	addi	a2,a2,1
4000274c:	c04c                	sw	a1,4(s0)
4000274e:	01842023          	sw	s8,0(s0)
40002752:	d7ba                	sw	a4,236(sp)
40002754:	d5b2                	sw	a2,232(sp)
40002756:	459d                	li	a1,7
40002758:	06c5c1e3          	blt	a1,a2,40002fba <_svfprintf_r+0xcfa>
4000275c:	57d2                	lw	a5,52(sp)
4000275e:	00160913          	addi	s2,a2,1
40002762:	d5ca                	sw	s2,232(sp)
40002764:	00e78db3          	add	s11,a5,a4
40002768:	5762                	lw	a4,56(sp)
4000276a:	00fd2223          	sw	a5,4(s10)
4000276e:	d7ee                	sw	s11,236(sp)
40002770:	00ed2023          	sw	a4,0(s10)
40002774:	471d                	li	a4,7
40002776:	0d21                	addi	s10,s10,8
40002778:	05274de3          	blt	a4,s2,40002fd2 <_svfprintf_r+0xd12>
4000277c:	574e                	lw	a4,240(sp)
4000277e:	110c                	addi	a1,sp,160
40002780:	1908                	addi	a0,sp,176
40002782:	d93a                	sw	a4,176(sp)
40002784:	575e                	lw	a4,244(sp)
40002786:	d102                	sw	zero,160(sp)
40002788:	d302                	sw	zero,164(sp)
4000278a:	db3a                	sw	a4,180(sp)
4000278c:	576e                	lw	a4,248(sp)
4000278e:	d502                	sw	zero,168(sp)
40002790:	d702                	sw	zero,172(sp)
40002792:	dd3a                	sw	a4,184(sp)
40002794:	577e                	lw	a4,252(sp)
40002796:	df3a                	sw	a4,188(sp)
40002798:	6a9060ef          	jal	ra,40009640 <__eqtf2>
4000279c:	5792                	lw	a5,36(sp)
4000279e:	fff78413          	addi	s0,a5,-1
400027a2:	78050063          	beqz	a0,40002f22 <_svfprintf_r+0xc62>
400027a6:	001c0293          	addi	t0,s8,1
400027aa:	0905                	addi	s2,s2,1
400027ac:	9da2                	add	s11,s11,s0
400027ae:	005d2023          	sw	t0,0(s10)
400027b2:	008d2223          	sw	s0,4(s10)
400027b6:	d7ee                	sw	s11,236(sp)
400027b8:	d5ca                	sw	s2,232(sp)
400027ba:	471d                	li	a4,7
400027bc:	0d21                	addi	s10,s10,8
400027be:	75274763          	blt	a4,s2,40002f0c <_svfprintf_r+0xc4c>
400027c2:	4796                	lw	a5,68(sp)
400027c4:	09cc                	addi	a1,sp,212
400027c6:	00190613          	addi	a2,s2,1
400027ca:	01b78733          	add	a4,a5,s11
400027ce:	00bd2023          	sw	a1,0(s10)
400027d2:	00fd2223          	sw	a5,4(s10)
400027d6:	d7ba                	sw	a4,236(sp)
400027d8:	d5b2                	sw	a2,232(sp)
400027da:	459d                	li	a1,7
400027dc:	008d0413          	addi	s0,s10,8
400027e0:	ccc5d3e3          	bge	a1,a2,400024a6 <_svfprintf_r+0x1e6>
400027e4:	45a2                	lw	a1,8(sp)
400027e6:	11d0                	addi	a2,sp,228
400027e8:	854e                	mv	a0,s3
400027ea:	3a6040ef          	jal	ra,40006b90 <__ssprint_r>
400027ee:	4a051863          	bnez	a0,40002c9e <_svfprintf_r+0x9de>
400027f2:	573e                	lw	a4,236(sp)
400027f4:	845a                	mv	s0,s6
400027f6:	b945                	j	400024a6 <_svfprintf_r+0x1e6>
400027f8:	47e2                	lw	a5,24(sp)
400027fa:	010bf713          	andi	a4,s7,16
400027fe:	0007ac83          	lw	s9,0(a5)
40002802:	0791                	addi	a5,a5,4
40002804:	cc3e                	sw	a5,24(sp)
40002806:	000719e3          	bnez	a4,40003018 <_svfprintf_r+0xd58>
4000280a:	040bf713          	andi	a4,s7,64
4000280e:	000701e3          	beqz	a4,40003010 <_svfprintf_r+0xd50>
40002812:	0cc2                	slli	s9,s9,0x10
40002814:	010cdc93          	srli	s9,s9,0x10
40002818:	4d01                	li	s10,0
4000281a:	b3cd                	j	400025fc <_svfprintf_r+0x33c>
4000281c:	47e2                	lw	a5,24(sp)
4000281e:	010bf713          	andi	a4,s7,16
40002822:	0007ac83          	lw	s9,0(a5)
40002826:	0791                	addi	a5,a5,4
40002828:	cc3e                	sw	a5,24(sp)
4000282a:	7c071e63          	bnez	a4,40003006 <_svfprintf_r+0xd46>
4000282e:	040bf713          	andi	a4,s7,64
40002832:	7c070663          	beqz	a4,40002ffe <_svfprintf_r+0xd3e>
40002836:	0cc2                	slli	s9,s9,0x10
40002838:	410cdc93          	srai	s9,s9,0x10
4000283c:	41fcdd13          	srai	s10,s9,0x1f
40002840:	876a                	mv	a4,s10
40002842:	d40756e3          	bgez	a4,4000258e <_svfprintf_r+0x2ce>
40002846:	02d00793          	li	a5,45
4000284a:	01903733          	snez	a4,s9
4000284e:	41a00d33          	neg	s10,s10
40002852:	0cf103a3          	sb	a5,199(sp)
40002856:	57fd                	li	a5,-1
40002858:	40ed0d33          	sub	s10,s10,a4
4000285c:	41900cb3          	neg	s9,s9
40002860:	8dde                	mv	s11,s7
40002862:	4685                	li	a3,1
40002864:	daf915e3          	bne	s2,a5,4000260e <_svfprintf_r+0x34e>
40002868:	4785                	li	a5,1
4000286a:	d2f68ce3          	beq	a3,a5,400025a2 <_svfprintf_r+0x2e2>
4000286e:	4789                	li	a5,2
40002870:	2cf68563          	beq	a3,a5,40002b3a <_svfprintf_r+0x87a>
40002874:	1b010c13          	addi	s8,sp,432
40002878:	01dd1713          	slli	a4,s10,0x1d
4000287c:	007cf793          	andi	a5,s9,7
40002880:	003cdc93          	srli	s9,s9,0x3
40002884:	03078793          	addi	a5,a5,48
40002888:	01976cb3          	or	s9,a4,s9
4000288c:	003d5d13          	srli	s10,s10,0x3
40002890:	fefc0fa3          	sb	a5,-1(s8)
40002894:	01ace733          	or	a4,s9,s10
40002898:	86e2                	mv	a3,s8
4000289a:	1c7d                	addi	s8,s8,-1
4000289c:	ff71                	bnez	a4,40002878 <_svfprintf_r+0x5b8>
4000289e:	001df713          	andi	a4,s11,1
400028a2:	2c070263          	beqz	a4,40002b66 <_svfprintf_r+0x8a6>
400028a6:	03000713          	li	a4,48
400028aa:	2ae78e63          	beq	a5,a4,40002b66 <_svfprintf_r+0x8a6>
400028ae:	16f9                	addi	a3,a3,-2
400028b0:	1b1c                	addi	a5,sp,432
400028b2:	feec0fa3          	sb	a4,-1(s8)
400028b6:	40d78d33          	sub	s10,a5,a3
400028ba:	8bee                	mv	s7,s11
400028bc:	8c36                	mv	s8,a3
400028be:	b9fd                	j	400025bc <_svfprintf_r+0x2fc>
400028c0:	47e2                	lw	a5,24(sp)
400028c2:	0c0103a3          	sb	zero,199(sp)
400028c6:	0007ac03          	lw	s8,0(a5)
400028ca:	00478a93          	addi	s5,a5,4
400028ce:	420c0fe3          	beqz	s8,4000350c <_svfprintf_r+0x124c>
400028d2:	577d                	li	a4,-1
400028d4:	06e904e3          	beq	s2,a4,4000313c <_svfprintf_r+0xe7c>
400028d8:	864a                	mv	a2,s2
400028da:	4581                	li	a1,0
400028dc:	8562                	mv	a0,s8
400028de:	cc46                	sw	a7,24(sp)
400028e0:	002040ef          	jal	ra,400068e2 <memchr>
400028e4:	ca2a                	sw	a0,20(sp)
400028e6:	48e2                	lw	a7,24(sp)
400028e8:	e119                	bnez	a0,400028ee <_svfprintf_r+0x62e>
400028ea:	3880106f          	j	40003c72 <_svfprintf_r+0x19b2>
400028ee:	47d2                	lw	a5,20(sp)
400028f0:	0c714703          	lbu	a4,199(sp)
400028f4:	cc56                	sw	s5,24(sp)
400028f6:	41878d33          	sub	s10,a5,s8
400028fa:	fffd4693          	not	a3,s10
400028fe:	86fd                	srai	a3,a3,0x1f
40002900:	ca02                	sw	zero,20(sp)
40002902:	d402                	sw	zero,40(sp)
40002904:	d602                	sw	zero,44(sp)
40002906:	d002                	sw	zero,32(sp)
40002908:	00dd7cb3          	and	s9,s10,a3
4000290c:	4901                	li	s2,0
4000290e:	cc0713e3          	bnez	a4,400025d4 <_svfprintf_r+0x314>
40002912:	b609                	j	40002414 <_svfprintf_r+0x154>
40002914:	47e2                	lw	a5,24(sp)
40002916:	0c0103a3          	sb	zero,199(sp)
4000291a:	4c85                	li	s9,1
4000291c:	4398                	lw	a4,0(a5)
4000291e:	0791                	addi	a5,a5,4
40002920:	cc3e                	sw	a5,24(sp)
40002922:	14e10623          	sb	a4,332(sp)
40002926:	4d05                	li	s10,1
40002928:	14c10c13          	addi	s8,sp,332
4000292c:	bcf9                	j	4000240a <_svfprintf_r+0x14a>
4000292e:	47e2                	lw	a5,24(sp)
40002930:	0007aa03          	lw	s4,0(a5)
40002934:	0791                	addi	a5,a5,4
40002936:	6a0a5f63          	bgez	s4,40002ff4 <_svfprintf_r+0xd34>
4000293a:	41400a33          	neg	s4,s4
4000293e:	cc3e                	sw	a5,24(sp)
40002940:	0004c883          	lbu	a7,0(s1)
40002944:	004beb93          	ori	s7,s7,4
40002948:	bc8d                	j	400023ba <_svfprintf_r+0xfa>
4000294a:	02b00793          	li	a5,43
4000294e:	0004c883          	lbu	a7,0(s1)
40002952:	0cf103a3          	sb	a5,199(sp)
40002956:	b495                	j	400023ba <_svfprintf_r+0xfa>
40002958:	0004c883          	lbu	a7,0(s1)
4000295c:	080beb93          	ori	s7,s7,128
40002960:	bca9                	j	400023ba <_svfprintf_r+0xfa>
40002962:	0004c883          	lbu	a7,0(s1)
40002966:	02a00793          	li	a5,42
4000296a:	00148713          	addi	a4,s1,1
4000296e:	00f89463          	bne	a7,a5,40002976 <_svfprintf_r+0x6b6>
40002972:	52a0106f          	j	40003e9c <_svfprintf_r+0x1bdc>
40002976:	fd088793          	addi	a5,a7,-48
4000297a:	4625                	li	a2,9
4000297c:	84ba                	mv	s1,a4
4000297e:	4901                	li	s2,0
40002980:	46a5                	li	a3,9
40002982:	a2f66de3          	bltu	a2,a5,400023bc <_svfprintf_r+0xfc>
40002986:	0004c883          	lbu	a7,0(s1)
4000298a:	00291713          	slli	a4,s2,0x2
4000298e:	993a                	add	s2,s2,a4
40002990:	0906                	slli	s2,s2,0x1
40002992:	993e                	add	s2,s2,a5
40002994:	fd088793          	addi	a5,a7,-48
40002998:	0485                	addi	s1,s1,1
4000299a:	fef6f6e3          	bgeu	a3,a5,40002986 <_svfprintf_r+0x6c6>
4000299e:	bc39                	j	400023bc <_svfprintf_r+0xfc>
400029a0:	0004c883          	lbu	a7,0(s1)
400029a4:	001beb93          	ori	s7,s7,1
400029a8:	bc09                	j	400023ba <_svfprintf_r+0xfa>
400029aa:	0c714783          	lbu	a5,199(sp)
400029ae:	0004c883          	lbu	a7,0(s1)
400029b2:	a00794e3          	bnez	a5,400023ba <_svfprintf_r+0xfa>
400029b6:	02000793          	li	a5,32
400029ba:	0cf103a3          	sb	a5,199(sp)
400029be:	baf5                	j	400023ba <_svfprintf_r+0xfa>
400029c0:	010bed93          	ori	s11,s7,16
400029c4:	020df793          	andi	a5,s11,32
400029c8:	5a078963          	beqz	a5,40002f7a <_svfprintf_r+0xcba>
400029cc:	47e2                	lw	a5,24(sp)
400029ce:	4685                	li	a3,1
400029d0:	00778a93          	addi	s5,a5,7
400029d4:	ff8afa93          	andi	s5,s5,-8
400029d8:	008a8793          	addi	a5,s5,8
400029dc:	000aac83          	lw	s9,0(s5)
400029e0:	004aad03          	lw	s10,4(s5)
400029e4:	cc3e                	sw	a5,24(sp)
400029e6:	b931                	j	40002602 <_svfprintf_r+0x342>
400029e8:	0004c883          	lbu	a7,0(s1)
400029ec:	008beb93          	ori	s7,s7,8
400029f0:	b2e9                	j	400023ba <_svfprintf_r+0xfa>
400029f2:	4762                	lw	a4,24(sp)
400029f4:	77e1                	lui	a5,0xffff8
400029f6:	8307c793          	xori	a5,a5,-2000
400029fa:	0cf11423          	sh	a5,200(sp)
400029fe:	00470793          	addi	a5,a4,4
40002a02:	cc3e                	sw	a5,24(sp)
40002a04:	800007b7          	lui	a5,0x80000
40002a08:	28c78793          	addi	a5,a5,652 # 8000028c <_bss_lma+0xfffff7ec>
40002a0c:	00072c83          	lw	s9,0(a4)
40002a10:	4d01                	li	s10,0
40002a12:	002bed93          	ori	s11,s7,2
40002a16:	de3e                	sw	a5,60(sp)
40002a18:	4689                	li	a3,2
40002a1a:	07800893          	li	a7,120
40002a1e:	b6d5                	j	40002602 <_svfprintf_r+0x342>
40002a20:	020bf713          	andi	a4,s7,32
40002a24:	60070763          	beqz	a4,40003032 <_svfprintf_r+0xd72>
40002a28:	47e2                	lw	a5,24(sp)
40002a2a:	46c2                	lw	a3,16(sp)
40002a2c:	439c                	lw	a5,0(a5)
40002a2e:	41f6d713          	srai	a4,a3,0x1f
40002a32:	c394                	sw	a3,0(a5)
40002a34:	c3d8                	sw	a4,4(a5)
40002a36:	47e2                	lw	a5,24(sp)
40002a38:	8c26                	mv	s8,s1
40002a3a:	0791                	addi	a5,a5,4
40002a3c:	cc3e                	sw	a5,24(sp)
40002a3e:	bc69                	j	400024d8 <_svfprintf_r+0x218>
40002a40:	0004c883          	lbu	a7,0(s1)
40002a44:	06c00793          	li	a5,108
40002a48:	6af88263          	beq	a7,a5,400030ec <_svfprintf_r+0xe2c>
40002a4c:	010beb93          	ori	s7,s7,16
40002a50:	b2ad                	j	400023ba <_svfprintf_r+0xfa>
40002a52:	0004c883          	lbu	a7,0(s1)
40002a56:	06800793          	li	a5,104
40002a5a:	68f88263          	beq	a7,a5,400030de <_svfprintf_r+0xe1e>
40002a5e:	040beb93          	ori	s7,s7,64
40002a62:	baa1                	j	400023ba <_svfprintf_r+0xfa>
40002a64:	06500713          	li	a4,101
40002a68:	cd1757e3          	bge	a4,a7,40002736 <_svfprintf_r+0x476>
40002a6c:	574e                	lw	a4,240(sp)
40002a6e:	110c                	addi	a1,sp,160
40002a70:	1908                	addi	a0,sp,176
40002a72:	d93a                	sw	a4,176(sp)
40002a74:	575e                	lw	a4,244(sp)
40002a76:	d102                	sw	zero,160(sp)
40002a78:	d302                	sw	zero,164(sp)
40002a7a:	db3a                	sw	a4,180(sp)
40002a7c:	576e                	lw	a4,248(sp)
40002a7e:	d502                	sw	zero,168(sp)
40002a80:	d702                	sw	zero,172(sp)
40002a82:	dd3a                	sw	a4,184(sp)
40002a84:	577e                	lw	a4,252(sp)
40002a86:	df3a                	sw	a4,188(sp)
40002a88:	3b9060ef          	jal	ra,40009640 <__eqtf2>
40002a8c:	34051863          	bnez	a0,40002ddc <_svfprintf_r+0xb1c>
40002a90:	573e                	lw	a4,236(sp)
40002a92:	562e                	lw	a2,232(sp)
40002a94:	800005b7          	lui	a1,0x80000
40002a98:	2bc58593          	addi	a1,a1,700 # 800002bc <_bss_lma+0xfffff81c>
40002a9c:	c00c                	sw	a1,0(s0)
40002a9e:	0705                	addi	a4,a4,1
40002aa0:	4585                	li	a1,1
40002aa2:	0605                	addi	a2,a2,1
40002aa4:	c04c                	sw	a1,4(s0)
40002aa6:	d7ba                	sw	a4,236(sp)
40002aa8:	d5b2                	sw	a2,232(sp)
40002aaa:	459d                	li	a1,7
40002aac:	0421                	addi	s0,s0,8
40002aae:	1ac5c9e3          	blt	a1,a2,40003460 <_svfprintf_r+0x11a0>
40002ab2:	463e                	lw	a2,204(sp)
40002ab4:	5792                	lw	a5,36(sp)
40002ab6:	52f65a63          	bge	a2,a5,40002fea <_svfprintf_r+0xd2a>
40002aba:	57d2                	lw	a5,52(sp)
40002abc:	562e                	lw	a2,232(sp)
40002abe:	56e2                	lw	a3,56(sp)
40002ac0:	973e                	add	a4,a4,a5
40002ac2:	0605                	addi	a2,a2,1
40002ac4:	c014                	sw	a3,0(s0)
40002ac6:	c05c                	sw	a5,4(s0)
40002ac8:	d7ba                	sw	a4,236(sp)
40002aca:	d5b2                	sw	a2,232(sp)
40002acc:	459d                	li	a1,7
40002ace:	0421                	addi	s0,s0,8
40002ad0:	62c5c563          	blt	a1,a2,400030fa <_svfprintf_r+0xe3a>
40002ad4:	5792                	lw	a5,36(sp)
40002ad6:	fff78913          	addi	s2,a5,-1
40002ada:	9d2056e3          	blez	s2,400024a6 <_svfprintf_r+0x1e6>
40002ade:	80000837          	lui	a6,0x80000
40002ae2:	45c1                	li	a1,16
40002ae4:	562e                	lw	a2,232(sp)
40002ae6:	4c480a93          	addi	s5,a6,1220 # 800004c4 <_bss_lma+0xfffffa24>
40002aea:	1925d6e3          	bge	a1,s2,40003476 <_svfprintf_r+0x11b6>
40002aee:	4c22                	lw	s8,8(sp)
40002af0:	4d41                	li	s10,16
40002af2:	4d9d                	li	s11,7
40002af4:	a021                	j	40002afc <_svfprintf_r+0x83c>
40002af6:	1941                	addi	s2,s2,-16
40002af8:	172d5fe3          	bge	s10,s2,40003476 <_svfprintf_r+0x11b6>
40002afc:	0741                	addi	a4,a4,16
40002afe:	0605                	addi	a2,a2,1
40002b00:	01542023          	sw	s5,0(s0)
40002b04:	01a42223          	sw	s10,4(s0)
40002b08:	d7ba                	sw	a4,236(sp)
40002b0a:	d5b2                	sw	a2,232(sp)
40002b0c:	0421                	addi	s0,s0,8
40002b0e:	fecdd4e3          	bge	s11,a2,40002af6 <_svfprintf_r+0x836>
40002b12:	11d0                	addi	a2,sp,228
40002b14:	85e2                	mv	a1,s8
40002b16:	854e                	mv	a0,s3
40002b18:	078040ef          	jal	ra,40006b90 <__ssprint_r>
40002b1c:	18051163          	bnez	a0,40002c9e <_svfprintf_r+0x9de>
40002b20:	573e                	lw	a4,236(sp)
40002b22:	562e                	lw	a2,232(sp)
40002b24:	845a                	mv	s0,s6
40002b26:	bfc1                	j	40002af6 <_svfprintf_r+0x836>
40002b28:	4705                	li	a4,1
40002b2a:	00e69463          	bne	a3,a4,40002b32 <_svfprintf_r+0x872>
40002b2e:	1c20106f          	j	40003cf0 <_svfprintf_r+0x1a30>
40002b32:	4709                	li	a4,2
40002b34:	8dde                	mv	s11,s7
40002b36:	d2e69fe3          	bne	a3,a4,40002874 <_svfprintf_r+0x5b4>
40002b3a:	56f2                	lw	a3,60(sp)
40002b3c:	1b010c13          	addi	s8,sp,432
40002b40:	00fcf793          	andi	a5,s9,15
40002b44:	97b6                	add	a5,a5,a3
40002b46:	0007c703          	lbu	a4,0(a5)
40002b4a:	004cdc93          	srli	s9,s9,0x4
40002b4e:	01cd1793          	slli	a5,s10,0x1c
40002b52:	0197ecb3          	or	s9,a5,s9
40002b56:	004d5d13          	srli	s10,s10,0x4
40002b5a:	feec0fa3          	sb	a4,-1(s8)
40002b5e:	01ace7b3          	or	a5,s9,s10
40002b62:	1c7d                	addi	s8,s8,-1
40002b64:	fff1                	bnez	a5,40002b40 <_svfprintf_r+0x880>
40002b66:	1b1c                	addi	a5,sp,432
40002b68:	41878d33          	sub	s10,a5,s8
40002b6c:	8bee                	mv	s7,s11
40002b6e:	b4b9                	j	400025bc <_svfprintf_r+0x2fc>
40002b70:	419a0db3          	sub	s11,s4,s9
40002b74:	91b053e3          	blez	s11,4000247a <_svfprintf_r+0x1ba>
40002b78:	80000837          	lui	a6,0x80000
40002b7c:	4541                	li	a0,16
40002b7e:	55be                	lw	a1,236(sp)
40002b80:	562e                	lw	a2,232(sp)
40002b82:	4c480a93          	addi	s5,a6,1220 # 800004c4 <_bss_lma+0xfffffa24>
40002b86:	05b55863          	bge	a0,s11,40002bd6 <_svfprintf_r+0x916>
40002b8a:	87a2                	mv	a5,s0
40002b8c:	4ec1                	li	t4,16
40002b8e:	8456                	mv	s0,s5
40002b90:	4f1d                	li	t5,7
40002b92:	8aca                	mv	s5,s2
40002b94:	8946                	mv	s2,a7
40002b96:	a021                	j	40002b9e <_svfprintf_r+0x8de>
40002b98:	1dc1                	addi	s11,s11,-16
40002b9a:	03beda63          	bge	t4,s11,40002bce <_svfprintf_r+0x90e>
40002b9e:	05c1                	addi	a1,a1,16
40002ba0:	0605                	addi	a2,a2,1
40002ba2:	c380                	sw	s0,0(a5)
40002ba4:	01d7a223          	sw	t4,4(a5)
40002ba8:	d7ae                	sw	a1,236(sp)
40002baa:	d5b2                	sw	a2,232(sp)
40002bac:	07a1                	addi	a5,a5,8
40002bae:	fecf55e3          	bge	t5,a2,40002b98 <_svfprintf_r+0x8d8>
40002bb2:	45a2                	lw	a1,8(sp)
40002bb4:	11d0                	addi	a2,sp,228
40002bb6:	854e                	mv	a0,s3
40002bb8:	7d9030ef          	jal	ra,40006b90 <__ssprint_r>
40002bbc:	e16d                	bnez	a0,40002c9e <_svfprintf_r+0x9de>
40002bbe:	4ec1                	li	t4,16
40002bc0:	1dc1                	addi	s11,s11,-16
40002bc2:	55be                	lw	a1,236(sp)
40002bc4:	562e                	lw	a2,232(sp)
40002bc6:	87da                	mv	a5,s6
40002bc8:	4f1d                	li	t5,7
40002bca:	fdbecae3          	blt	t4,s11,40002b9e <_svfprintf_r+0x8de>
40002bce:	88ca                	mv	a7,s2
40002bd0:	8956                	mv	s2,s5
40002bd2:	8aa2                	mv	s5,s0
40002bd4:	843e                	mv	s0,a5
40002bd6:	95ee                	add	a1,a1,s11
40002bd8:	0605                	addi	a2,a2,1
40002bda:	01542023          	sw	s5,0(s0)
40002bde:	01b42223          	sw	s11,4(s0)
40002be2:	d7ae                	sw	a1,236(sp)
40002be4:	d5b2                	sw	a2,232(sp)
40002be6:	471d                	li	a4,7
40002be8:	0421                	addi	s0,s0,8
40002bea:	88c758e3          	bge	a4,a2,4000247a <_svfprintf_r+0x1ba>
40002bee:	45a2                	lw	a1,8(sp)
40002bf0:	11d0                	addi	a2,sp,228
40002bf2:	854e                	mv	a0,s3
40002bf4:	c8c6                	sw	a7,80(sp)
40002bf6:	79b030ef          	jal	ra,40006b90 <__ssprint_r>
40002bfa:	e155                	bnez	a0,40002c9e <_svfprintf_r+0x9de>
40002bfc:	41a90933          	sub	s2,s2,s10
40002c00:	48c6                	lw	a7,80(sp)
40002c02:	845a                	mv	s0,s6
40002c04:	87205fe3          	blez	s2,40002482 <_svfprintf_r+0x1c2>
40002c08:	80000837          	lui	a6,0x80000
40002c0c:	4741                	li	a4,16
40002c0e:	55be                	lw	a1,236(sp)
40002c10:	562e                	lw	a2,232(sp)
40002c12:	4c480a93          	addi	s5,a6,1220 # 800004c4 <_bss_lma+0xfffffa24>
40002c16:	05275663          	bge	a4,s2,40002c62 <_svfprintf_r+0x9a2>
40002c1a:	87a2                	mv	a5,s0
40002c1c:	4ab2                	lw	s5,12(sp)
40002c1e:	844a                	mv	s0,s2
40002c20:	4741                	li	a4,16
40002c22:	4d9d                	li	s11,7
40002c24:	8946                	mv	s2,a7
40002c26:	a021                	j	40002c2e <_svfprintf_r+0x96e>
40002c28:	1441                	addi	s0,s0,-16
40002c2a:	02875963          	bge	a4,s0,40002c5c <_svfprintf_r+0x99c>
40002c2e:	46b2                	lw	a3,12(sp)
40002c30:	05c1                	addi	a1,a1,16
40002c32:	0605                	addi	a2,a2,1
40002c34:	c394                	sw	a3,0(a5)
40002c36:	c3d8                	sw	a4,4(a5)
40002c38:	d7ae                	sw	a1,236(sp)
40002c3a:	d5b2                	sw	a2,232(sp)
40002c3c:	07a1                	addi	a5,a5,8
40002c3e:	fecdd5e3          	bge	s11,a2,40002c28 <_svfprintf_r+0x968>
40002c42:	45a2                	lw	a1,8(sp)
40002c44:	11d0                	addi	a2,sp,228
40002c46:	854e                	mv	a0,s3
40002c48:	749030ef          	jal	ra,40006b90 <__ssprint_r>
40002c4c:	e929                	bnez	a0,40002c9e <_svfprintf_r+0x9de>
40002c4e:	4741                	li	a4,16
40002c50:	1441                	addi	s0,s0,-16
40002c52:	55be                	lw	a1,236(sp)
40002c54:	562e                	lw	a2,232(sp)
40002c56:	87da                	mv	a5,s6
40002c58:	fc874be3          	blt	a4,s0,40002c2e <_svfprintf_r+0x96e>
40002c5c:	88ca                	mv	a7,s2
40002c5e:	8922                	mv	s2,s0
40002c60:	843e                	mv	s0,a5
40002c62:	95ca                	add	a1,a1,s2
40002c64:	0605                	addi	a2,a2,1
40002c66:	01542023          	sw	s5,0(s0)
40002c6a:	01242223          	sw	s2,4(s0)
40002c6e:	d7ae                	sw	a1,236(sp)
40002c70:	d5b2                	sw	a2,232(sp)
40002c72:	471d                	li	a4,7
40002c74:	0421                	addi	s0,s0,8
40002c76:	80c756e3          	bge	a4,a2,40002482 <_svfprintf_r+0x1c2>
40002c7a:	45a2                	lw	a1,8(sp)
40002c7c:	11d0                	addi	a2,sp,228
40002c7e:	854e                	mv	a0,s3
40002c80:	c8c6                	sw	a7,80(sp)
40002c82:	70f030ef          	jal	ra,40006b90 <__ssprint_r>
40002c86:	ed01                	bnez	a0,40002c9e <_svfprintf_r+0x9de>
40002c88:	48c6                	lw	a7,80(sp)
40002c8a:	845a                	mv	s0,s6
40002c8c:	ff6ff06f          	j	40002482 <_svfprintf_r+0x1c2>
40002c90:	45a2                	lw	a1,8(sp)
40002c92:	11d0                	addi	a2,sp,228
40002c94:	854e                	mv	a0,s3
40002c96:	6fb030ef          	jal	ra,40006b90 <__ssprint_r>
40002c9a:	820506e3          	beqz	a0,400024c6 <_svfprintf_r+0x206>
40002c9e:	4f52                	lw	t5,20(sp)
40002ca0:	840f04e3          	beqz	t5,400024e8 <_svfprintf_r+0x228>
40002ca4:	5542                	lw	a0,48(sp)
40002ca6:	85fa                	mv	a1,t5
40002ca8:	324010ef          	jal	ra,40003fcc <_free_r>
40002cac:	83dff06f          	j	400024e8 <_svfprintf_r+0x228>
40002cb0:	8dde                	mv	s11,s7
40002cb2:	be5d                	j	40002868 <_svfprintf_r+0x5a8>
40002cb4:	80000837          	lui	a6,0x80000
40002cb8:	4541                	li	a0,16
40002cba:	55be                	lw	a1,236(sp)
40002cbc:	562e                	lw	a2,232(sp)
40002cbe:	4d480a93          	addi	s5,a6,1236 # 800004d4 <_bss_lma+0xfffffa34>
40002cc2:	04e55e63          	bge	a0,a4,40002d1e <_svfprintf_r+0xa5e>
40002cc6:	c8a6                	sw	s1,80(sp)
40002cc8:	87a2                	mv	a5,s0
40002cca:	84d6                	mv	s1,s5
40002ccc:	4ec1                	li	t4,16
40002cce:	8aca                	mv	s5,s2
40002cd0:	439d                	li	t2,7
40002cd2:	cafe                	sw	t6,84(sp)
40002cd4:	843a                	mv	s0,a4
40002cd6:	8946                	mv	s2,a7
40002cd8:	a021                	j	40002ce0 <_svfprintf_r+0xa20>
40002cda:	1441                	addi	s0,s0,-16
40002cdc:	028eda63          	bge	t4,s0,40002d10 <_svfprintf_r+0xa50>
40002ce0:	05c1                	addi	a1,a1,16
40002ce2:	0605                	addi	a2,a2,1
40002ce4:	c384                	sw	s1,0(a5)
40002ce6:	01d7a223          	sw	t4,4(a5)
40002cea:	d7ae                	sw	a1,236(sp)
40002cec:	d5b2                	sw	a2,232(sp)
40002cee:	07a1                	addi	a5,a5,8
40002cf0:	fec3d5e3          	bge	t2,a2,40002cda <_svfprintf_r+0xa1a>
40002cf4:	45a2                	lw	a1,8(sp)
40002cf6:	11d0                	addi	a2,sp,228
40002cf8:	854e                	mv	a0,s3
40002cfa:	697030ef          	jal	ra,40006b90 <__ssprint_r>
40002cfe:	f145                	bnez	a0,40002c9e <_svfprintf_r+0x9de>
40002d00:	4ec1                	li	t4,16
40002d02:	1441                	addi	s0,s0,-16
40002d04:	55be                	lw	a1,236(sp)
40002d06:	562e                	lw	a2,232(sp)
40002d08:	87da                	mv	a5,s6
40002d0a:	439d                	li	t2,7
40002d0c:	fc8ecae3          	blt	t4,s0,40002ce0 <_svfprintf_r+0xa20>
40002d10:	88ca                	mv	a7,s2
40002d12:	4fd6                	lw	t6,84(sp)
40002d14:	8956                	mv	s2,s5
40002d16:	8aa6                	mv	s5,s1
40002d18:	44c6                	lw	s1,80(sp)
40002d1a:	8722                	mv	a4,s0
40002d1c:	843e                	mv	s0,a5
40002d1e:	95ba                	add	a1,a1,a4
40002d20:	0605                	addi	a2,a2,1
40002d22:	c058                	sw	a4,4(s0)
40002d24:	01542023          	sw	s5,0(s0)
40002d28:	d7ae                	sw	a1,236(sp)
40002d2a:	d5b2                	sw	a2,232(sp)
40002d2c:	471d                	li	a4,7
40002d2e:	0421                	addi	s0,s0,8
40002d30:	eec75f63          	bge	a4,a2,4000242e <_svfprintf_r+0x16e>
40002d34:	45a2                	lw	a1,8(sp)
40002d36:	11d0                	addi	a2,sp,228
40002d38:	854e                	mv	a0,s3
40002d3a:	cac6                	sw	a7,84(sp)
40002d3c:	c8fe                	sw	t6,80(sp)
40002d3e:	653030ef          	jal	ra,40006b90 <__ssprint_r>
40002d42:	fd31                	bnez	a0,40002c9e <_svfprintf_r+0x9de>
40002d44:	48d6                	lw	a7,84(sp)
40002d46:	4fc6                	lw	t6,80(sp)
40002d48:	845a                	mv	s0,s6
40002d4a:	ee4ff06f          	j	4000242e <_svfprintf_r+0x16e>
40002d4e:	45a2                	lw	a1,8(sp)
40002d50:	11d0                	addi	a2,sp,228
40002d52:	854e                	mv	a0,s3
40002d54:	c8c6                	sw	a7,80(sp)
40002d56:	63b030ef          	jal	ra,40006b90 <__ssprint_r>
40002d5a:	f131                	bnez	a0,40002c9e <_svfprintf_r+0x9de>
40002d5c:	48c6                	lw	a7,80(sp)
40002d5e:	845a                	mv	s0,s6
40002d60:	f12ff06f          	j	40002472 <_svfprintf_r+0x1b2>
40002d64:	80000837          	lui	a6,0x80000
40002d68:	4641                	li	a2,16
40002d6a:	57ae                	lw	a5,232(sp)
40002d6c:	4d480a93          	addi	s5,a6,1236 # 800004d4 <_bss_lma+0xfffffa34>
40002d70:	05265163          	bge	a2,s2,40002db2 <_svfprintf_r+0xaf2>
40002d74:	4ba2                	lw	s7,8(sp)
40002d76:	4d41                	li	s10,16
40002d78:	4d9d                	li	s11,7
40002d7a:	a021                	j	40002d82 <_svfprintf_r+0xac2>
40002d7c:	1941                	addi	s2,s2,-16
40002d7e:	032d5a63          	bge	s10,s2,40002db2 <_svfprintf_r+0xaf2>
40002d82:	0741                	addi	a4,a4,16
40002d84:	0785                	addi	a5,a5,1
40002d86:	01542023          	sw	s5,0(s0)
40002d8a:	01a42223          	sw	s10,4(s0)
40002d8e:	d7ba                	sw	a4,236(sp)
40002d90:	d5be                	sw	a5,232(sp)
40002d92:	0421                	addi	s0,s0,8
40002d94:	fefdd4e3          	bge	s11,a5,40002d7c <_svfprintf_r+0xabc>
40002d98:	11d0                	addi	a2,sp,228
40002d9a:	85de                	mv	a1,s7
40002d9c:	854e                	mv	a0,s3
40002d9e:	5f3030ef          	jal	ra,40006b90 <__ssprint_r>
40002da2:	ee051ee3          	bnez	a0,40002c9e <_svfprintf_r+0x9de>
40002da6:	1941                	addi	s2,s2,-16
40002da8:	573e                	lw	a4,236(sp)
40002daa:	57ae                	lw	a5,232(sp)
40002dac:	845a                	mv	s0,s6
40002dae:	fd2d4ae3          	blt	s10,s2,40002d82 <_svfprintf_r+0xac2>
40002db2:	974a                	add	a4,a4,s2
40002db4:	0785                	addi	a5,a5,1
40002db6:	01542023          	sw	s5,0(s0)
40002dba:	01242223          	sw	s2,4(s0)
40002dbe:	d7ba                	sw	a4,236(sp)
40002dc0:	d5be                	sw	a5,232(sp)
40002dc2:	461d                	li	a2,7
40002dc4:	eef65863          	bge	a2,a5,400024b4 <_svfprintf_r+0x1f4>
40002dc8:	45a2                	lw	a1,8(sp)
40002dca:	11d0                	addi	a2,sp,228
40002dcc:	854e                	mv	a0,s3
40002dce:	5c3030ef          	jal	ra,40006b90 <__ssprint_r>
40002dd2:	ec0516e3          	bnez	a0,40002c9e <_svfprintf_r+0x9de>
40002dd6:	573e                	lw	a4,236(sp)
40002dd8:	edcff06f          	j	400024b4 <_svfprintf_r+0x1f4>
40002ddc:	453e                	lw	a0,204(sp)
40002dde:	60a05163          	blez	a0,400033e0 <_svfprintf_r+0x1120>
40002de2:	5792                	lw	a5,36(sp)
40002de4:	00fc0733          	add	a4,s8,a5
40002de8:	c8ba                	sw	a4,80(sp)
40002dea:	5702                	lw	a4,32(sp)
40002dec:	893a                	mv	s2,a4
40002dee:	28e7c163          	blt	a5,a4,40003070 <_svfprintf_r+0xdb0>
40002df2:	573e                	lw	a4,236(sp)
40002df4:	01205f63          	blez	s2,40002e12 <_svfprintf_r+0xb52>
40002df8:	562e                	lw	a2,232(sp)
40002dfa:	974a                	add	a4,a4,s2
40002dfc:	01842023          	sw	s8,0(s0)
40002e00:	0605                	addi	a2,a2,1
40002e02:	01242223          	sw	s2,4(s0)
40002e06:	d7ba                	sw	a4,236(sp)
40002e08:	d5b2                	sw	a2,232(sp)
40002e0a:	459d                	li	a1,7
40002e0c:	0421                	addi	s0,s0,8
40002e0e:	06c5c0e3          	blt	a1,a2,4000366e <_svfprintf_r+0x13ae>
40002e12:	fff94613          	not	a2,s2
40002e16:	5782                	lw	a5,32(sp)
40002e18:	867d                	srai	a2,a2,0x1f
40002e1a:	00c97833          	and	a6,s2,a2
40002e1e:	41078933          	sub	s2,a5,a6
40002e22:	35204463          	bgtz	s2,4000316a <_svfprintf_r+0xeaa>
40002e26:	5782                	lw	a5,32(sp)
40002e28:	400bf613          	andi	a2,s7,1024
40002e2c:	9c3e                	add	s8,s8,a5
40002e2e:	38061463          	bnez	a2,400031b6 <_svfprintf_r+0xef6>
40002e32:	463e                	lw	a2,204(sp)
40002e34:	5792                	lw	a5,36(sp)
40002e36:	00f64663          	blt	a2,a5,40002e42 <_svfprintf_r+0xb82>
40002e3a:	001bf593          	andi	a1,s7,1
40002e3e:	040585e3          	beqz	a1,40003688 <_svfprintf_r+0x13c8>
40002e42:	57d2                	lw	a5,52(sp)
40002e44:	55ae                	lw	a1,232(sp)
40002e46:	56e2                	lw	a3,56(sp)
40002e48:	973e                	add	a4,a4,a5
40002e4a:	0585                	addi	a1,a1,1
40002e4c:	c014                	sw	a3,0(s0)
40002e4e:	c05c                	sw	a5,4(s0)
40002e50:	d7ba                	sw	a4,236(sp)
40002e52:	d5ae                	sw	a1,232(sp)
40002e54:	451d                	li	a0,7
40002e56:	0421                	addi	s0,s0,8
40002e58:	5eb54ae3          	blt	a0,a1,40003c4c <_svfprintf_r+0x198c>
40002e5c:	5792                	lw	a5,36(sp)
40002e5e:	40c78633          	sub	a2,a5,a2
40002e62:	47c6                	lw	a5,80(sp)
40002e64:	41878933          	sub	s2,a5,s8
40002e68:	01265363          	bge	a2,s2,40002e6e <_svfprintf_r+0xbae>
40002e6c:	8932                	mv	s2,a2
40002e6e:	01205f63          	blez	s2,40002e8c <_svfprintf_r+0xbcc>
40002e72:	55ae                	lw	a1,232(sp)
40002e74:	974a                	add	a4,a4,s2
40002e76:	01842023          	sw	s8,0(s0)
40002e7a:	0585                	addi	a1,a1,1
40002e7c:	01242223          	sw	s2,4(s0)
40002e80:	d7ba                	sw	a4,236(sp)
40002e82:	d5ae                	sw	a1,232(sp)
40002e84:	451d                	li	a0,7
40002e86:	0421                	addi	s0,s0,8
40002e88:	60b543e3          	blt	a0,a1,40003c8e <_svfprintf_r+0x19ce>
40002e8c:	fff94593          	not	a1,s2
40002e90:	85fd                	srai	a1,a1,0x1f
40002e92:	00b97d33          	and	s10,s2,a1
40002e96:	41a60933          	sub	s2,a2,s10
40002e9a:	e1205663          	blez	s2,400024a6 <_svfprintf_r+0x1e6>
40002e9e:	80000837          	lui	a6,0x80000
40002ea2:	45c1                	li	a1,16
40002ea4:	562e                	lw	a2,232(sp)
40002ea6:	4c480a93          	addi	s5,a6,1220 # 800004c4 <_bss_lma+0xfffffa24>
40002eaa:	5d25d663          	bge	a1,s2,40003476 <_svfprintf_r+0x11b6>
40002eae:	4c22                	lw	s8,8(sp)
40002eb0:	4d41                	li	s10,16
40002eb2:	4d9d                	li	s11,7
40002eb4:	a021                	j	40002ebc <_svfprintf_r+0xbfc>
40002eb6:	1941                	addi	s2,s2,-16
40002eb8:	5b2d5f63          	bge	s10,s2,40003476 <_svfprintf_r+0x11b6>
40002ebc:	0741                	addi	a4,a4,16
40002ebe:	0605                	addi	a2,a2,1
40002ec0:	01542023          	sw	s5,0(s0)
40002ec4:	01a42223          	sw	s10,4(s0)
40002ec8:	d7ba                	sw	a4,236(sp)
40002eca:	d5b2                	sw	a2,232(sp)
40002ecc:	0421                	addi	s0,s0,8
40002ece:	fecdd4e3          	bge	s11,a2,40002eb6 <_svfprintf_r+0xbf6>
40002ed2:	11d0                	addi	a2,sp,228
40002ed4:	85e2                	mv	a1,s8
40002ed6:	854e                	mv	a0,s3
40002ed8:	4b9030ef          	jal	ra,40006b90 <__ssprint_r>
40002edc:	dc0511e3          	bnez	a0,40002c9e <_svfprintf_r+0x9de>
40002ee0:	573e                	lw	a4,236(sp)
40002ee2:	562e                	lw	a2,232(sp)
40002ee4:	845a                	mv	s0,s6
40002ee6:	bfc1                	j	40002eb6 <_svfprintf_r+0xbf6>
40002ee8:	001bf713          	andi	a4,s7,1
40002eec:	84071be3          	bnez	a4,40002742 <_svfprintf_r+0x482>
40002ef0:	573e                	lw	a4,236(sp)
40002ef2:	562e                	lw	a2,232(sp)
40002ef4:	01842023          	sw	s8,0(s0)
40002ef8:	00170d93          	addi	s11,a4,1
40002efc:	00160913          	addi	s2,a2,1
40002f00:	c04c                	sw	a1,4(s0)
40002f02:	d7ee                	sw	s11,236(sp)
40002f04:	d5ca                	sw	s2,232(sp)
40002f06:	471d                	li	a4,7
40002f08:	8b275de3          	bge	a4,s2,400027c2 <_svfprintf_r+0x502>
40002f0c:	45a2                	lw	a1,8(sp)
40002f0e:	11d0                	addi	a2,sp,228
40002f10:	854e                	mv	a0,s3
40002f12:	47f030ef          	jal	ra,40006b90 <__ssprint_r>
40002f16:	d80514e3          	bnez	a0,40002c9e <_svfprintf_r+0x9de>
40002f1a:	5dbe                	lw	s11,236(sp)
40002f1c:	592e                	lw	s2,232(sp)
40002f1e:	8d5a                	mv	s10,s6
40002f20:	b04d                	j	400027c2 <_svfprintf_r+0x502>
40002f22:	5792                	lw	a5,36(sp)
40002f24:	4705                	li	a4,1
40002f26:	88f75ee3          	bge	a4,a5,400027c2 <_svfprintf_r+0x502>
40002f2a:	80000837          	lui	a6,0x80000
40002f2e:	4745                	li	a4,17
40002f30:	4c480a93          	addi	s5,a6,1220 # 800004c4 <_bss_lma+0xfffffa24>
40002f34:	66f75163          	bge	a4,a5,40003596 <_svfprintf_r+0x12d6>
40002f38:	87d6                	mv	a5,s5
40002f3a:	4741                	li	a4,16
40002f3c:	8ad2                	mv	s5,s4
40002f3e:	4c1d                	li	s8,7
40002f40:	8a26                	mv	s4,s1
40002f42:	84be                	mv	s1,a5
40002f44:	a021                	j	40002f4c <_svfprintf_r+0xc8c>
40002f46:	1441                	addi	s0,s0,-16
40002f48:	64875363          	bge	a4,s0,4000358e <_svfprintf_r+0x12ce>
40002f4c:	0dc1                	addi	s11,s11,16
40002f4e:	0905                	addi	s2,s2,1
40002f50:	009d2023          	sw	s1,0(s10)
40002f54:	00ed2223          	sw	a4,4(s10)
40002f58:	d7ee                	sw	s11,236(sp)
40002f5a:	d5ca                	sw	s2,232(sp)
40002f5c:	0d21                	addi	s10,s10,8
40002f5e:	ff2c54e3          	bge	s8,s2,40002f46 <_svfprintf_r+0xc86>
40002f62:	45a2                	lw	a1,8(sp)
40002f64:	11d0                	addi	a2,sp,228
40002f66:	854e                	mv	a0,s3
40002f68:	429030ef          	jal	ra,40006b90 <__ssprint_r>
40002f6c:	d20519e3          	bnez	a0,40002c9e <_svfprintf_r+0x9de>
40002f70:	5dbe                	lw	s11,236(sp)
40002f72:	592e                	lw	s2,232(sp)
40002f74:	8d5a                	mv	s10,s6
40002f76:	4741                	li	a4,16
40002f78:	b7f9                	j	40002f46 <_svfprintf_r+0xc86>
40002f7a:	4762                	lw	a4,24(sp)
40002f7c:	010df793          	andi	a5,s11,16
40002f80:	00072c83          	lw	s9,0(a4)
40002f84:	0711                	addi	a4,a4,4
40002f86:	cc3a                	sw	a4,24(sp)
40002f88:	e385                	bnez	a5,40002fa8 <_svfprintf_r+0xce8>
40002f8a:	040df793          	andi	a5,s11,64
40002f8e:	cb81                	beqz	a5,40002f9e <_svfprintf_r+0xcde>
40002f90:	0cc2                	slli	s9,s9,0x10
40002f92:	010cdc93          	srli	s9,s9,0x10
40002f96:	4d01                	li	s10,0
40002f98:	4685                	li	a3,1
40002f9a:	e68ff06f          	j	40002602 <_svfprintf_r+0x342>
40002f9e:	200df793          	andi	a5,s11,512
40002fa2:	c399                	beqz	a5,40002fa8 <_svfprintf_r+0xce8>
40002fa4:	0ffcfc93          	zext.b	s9,s9
40002fa8:	4d01                	li	s10,0
40002faa:	4685                	li	a3,1
40002fac:	e56ff06f          	j	40002602 <_svfprintf_r+0x342>
40002fb0:	4d01                	li	s10,0
40002fb2:	1b010c13          	addi	s8,sp,432
40002fb6:	e06ff06f          	j	400025bc <_svfprintf_r+0x2fc>
40002fba:	45a2                	lw	a1,8(sp)
40002fbc:	11d0                	addi	a2,sp,228
40002fbe:	854e                	mv	a0,s3
40002fc0:	3d1030ef          	jal	ra,40006b90 <__ssprint_r>
40002fc4:	cc051de3          	bnez	a0,40002c9e <_svfprintf_r+0x9de>
40002fc8:	573e                	lw	a4,236(sp)
40002fca:	562e                	lw	a2,232(sp)
40002fcc:	8d5a                	mv	s10,s6
40002fce:	f8eff06f          	j	4000275c <_svfprintf_r+0x49c>
40002fd2:	45a2                	lw	a1,8(sp)
40002fd4:	11d0                	addi	a2,sp,228
40002fd6:	854e                	mv	a0,s3
40002fd8:	3b9030ef          	jal	ra,40006b90 <__ssprint_r>
40002fdc:	cc0511e3          	bnez	a0,40002c9e <_svfprintf_r+0x9de>
40002fe0:	5dbe                	lw	s11,236(sp)
40002fe2:	592e                	lw	s2,232(sp)
40002fe4:	8d5a                	mv	s10,s6
40002fe6:	f96ff06f          	j	4000277c <_svfprintf_r+0x4bc>
40002fea:	001bf613          	andi	a2,s7,1
40002fee:	ca060c63          	beqz	a2,400024a6 <_svfprintf_r+0x1e6>
40002ff2:	b4e1                	j	40002aba <_svfprintf_r+0x7fa>
40002ff4:	0004c883          	lbu	a7,0(s1)
40002ff8:	cc3e                	sw	a5,24(sp)
40002ffa:	bc0ff06f          	j	400023ba <_svfprintf_r+0xfa>
40002ffe:	200bf713          	andi	a4,s7,512
40003002:	040714e3          	bnez	a4,4000384a <_svfprintf_r+0x158a>
40003006:	41fcdd13          	srai	s10,s9,0x1f
4000300a:	876a                	mv	a4,s10
4000300c:	d7eff06f          	j	4000258a <_svfprintf_r+0x2ca>
40003010:	200bf713          	andi	a4,s7,512
40003014:	020716e3          	bnez	a4,40003840 <_svfprintf_r+0x1580>
40003018:	4d01                	li	s10,0
4000301a:	de2ff06f          	j	400025fc <_svfprintf_r+0x33c>
4000301e:	47e2                	lw	a5,24(sp)
40003020:	4398                	lw	a4,0(a5)
40003022:	0791                	addi	a5,a5,4
40003024:	cc3e                	sw	a5,24(sp)
40003026:	430c                	lw	a1,0(a4)
40003028:	4350                	lw	a2,4(a4)
4000302a:	4714                	lw	a3,8(a4)
4000302c:	4758                	lw	a4,12(a4)
4000302e:	e60ff06f          	j	4000268e <_svfprintf_r+0x3ce>
40003032:	010bf713          	andi	a4,s7,16
40003036:	4c071563          	bnez	a4,40003500 <_svfprintf_r+0x1240>
4000303a:	040bf713          	andi	a4,s7,64
4000303e:	64071f63          	bnez	a4,4000369c <_svfprintf_r+0x13dc>
40003042:	200bf793          	andi	a5,s7,512
40003046:	4a078d63          	beqz	a5,40003500 <_svfprintf_r+0x1240>
4000304a:	47e2                	lw	a5,24(sp)
4000304c:	4742                	lw	a4,16(sp)
4000304e:	439c                	lw	a5,0(a5)
40003050:	00e78023          	sb	a4,0(a5)
40003054:	b2cd                	j	40002a36 <_svfprintf_r+0x776>
40003056:	4786                	lw	a5,64(sp)
40003058:	0004c883          	lbu	a7,0(s1)
4000305c:	b4078f63          	beqz	a5,400023ba <_svfprintf_r+0xfa>
40003060:	0007c783          	lbu	a5,0(a5)
40003064:	b4078b63          	beqz	a5,400023ba <_svfprintf_r+0xfa>
40003068:	400beb93          	ori	s7,s7,1024
4000306c:	b4eff06f          	j	400023ba <_svfprintf_r+0xfa>
40003070:	893e                	mv	s2,a5
40003072:	573e                	lw	a4,236(sp)
40003074:	d92042e3          	bgtz	s2,40002df8 <_svfprintf_r+0xb38>
40003078:	bb69                	j	40002e12 <_svfprintf_r+0xb52>
4000307a:	d2091963          	bnez	s2,400025ac <_svfprintf_r+0x2ec>
4000307e:	4d01                	li	s10,0
40003080:	8bee                	mv	s7,s11
40003082:	1b010c13          	addi	s8,sp,432
40003086:	d36ff06f          	j	400025bc <_svfprintf_r+0x2fc>
4000308a:	80000737          	lui	a4,0x80000
4000308e:	2a070793          	addi	a5,a4,672 # 800002a0 <_bss_lma+0xfffff800>
40003092:	de3e                	sw	a5,60(sp)
40003094:	020bf713          	andi	a4,s7,32
40003098:	22070c63          	beqz	a4,400032d0 <_svfprintf_r+0x1010>
4000309c:	47e2                	lw	a5,24(sp)
4000309e:	00778a93          	addi	s5,a5,7
400030a2:	ff8afa93          	andi	s5,s5,-8
400030a6:	000aac83          	lw	s9,0(s5)
400030aa:	004aad03          	lw	s10,4(s5)
400030ae:	008a8793          	addi	a5,s5,8
400030b2:	cc3e                	sw	a5,24(sp)
400030b4:	001bf713          	andi	a4,s7,1
400030b8:	cf01                	beqz	a4,400030d0 <_svfprintf_r+0xe10>
400030ba:	01ace733          	or	a4,s9,s10
400030be:	cb09                	beqz	a4,400030d0 <_svfprintf_r+0xe10>
400030c0:	03000713          	li	a4,48
400030c4:	0ce10423          	sb	a4,200(sp)
400030c8:	0d1104a3          	sb	a7,201(sp)
400030cc:	002beb93          	ori	s7,s7,2
400030d0:	bffbfd93          	andi	s11,s7,-1025
400030d4:	4689                	li	a3,2
400030d6:	d2cff06f          	j	40002602 <_svfprintf_r+0x342>
400030da:	8dde                	mv	s11,s7
400030dc:	b0e5                	j	400029c4 <_svfprintf_r+0x704>
400030de:	0014c883          	lbu	a7,1(s1)
400030e2:	200beb93          	ori	s7,s7,512
400030e6:	0485                	addi	s1,s1,1
400030e8:	ad2ff06f          	j	400023ba <_svfprintf_r+0xfa>
400030ec:	0014c883          	lbu	a7,1(s1)
400030f0:	020beb93          	ori	s7,s7,32
400030f4:	0485                	addi	s1,s1,1
400030f6:	ac4ff06f          	j	400023ba <_svfprintf_r+0xfa>
400030fa:	45a2                	lw	a1,8(sp)
400030fc:	11d0                	addi	a2,sp,228
400030fe:	854e                	mv	a0,s3
40003100:	291030ef          	jal	ra,40006b90 <__ssprint_r>
40003104:	b8051de3          	bnez	a0,40002c9e <_svfprintf_r+0x9de>
40003108:	573e                	lw	a4,236(sp)
4000310a:	845a                	mv	s0,s6
4000310c:	b2e1                	j	40002ad4 <_svfprintf_r+0x814>
4000310e:	80000737          	lui	a4,0x80000
40003112:	28c70793          	addi	a5,a4,652 # 8000028c <_bss_lma+0xfffff7ec>
40003116:	de3e                	sw	a5,60(sp)
40003118:	bfb5                	j	40003094 <_svfprintf_r+0xdd4>
4000311a:	5542                	lw	a0,48(sp)
4000311c:	04000593          	li	a1,64
40003120:	1e8030ef          	jal	ra,40006308 <_malloc_r>
40003124:	47a2                	lw	a5,8(sp)
40003126:	42b2                	lw	t0,12(sp)
40003128:	c388                	sw	a0,0(a5)
4000312a:	cb88                	sw	a0,16(a5)
4000312c:	4e0500e3          	beqz	a0,40003e0c <_svfprintf_r+0x1b4c>
40003130:	4722                	lw	a4,8(sp)
40003132:	04000793          	li	a5,64
40003136:	cb5c                	sw	a5,20(a4)
40003138:	9f0ff06f          	j	40002328 <_svfprintf_r+0x68>
4000313c:	8562                	mv	a0,s8
4000313e:	c8c6                	sw	a7,80(sp)
40003140:	91cff0ef          	jal	ra,4000225c <strlen>
40003144:	0c714703          	lbu	a4,199(sp)
40003148:	fff54693          	not	a3,a0
4000314c:	86fd                	srai	a3,a3,0x1f
4000314e:	cc56                	sw	s5,24(sp)
40003150:	ca02                	sw	zero,20(sp)
40003152:	d402                	sw	zero,40(sp)
40003154:	d602                	sw	zero,44(sp)
40003156:	d002                	sw	zero,32(sp)
40003158:	48c6                	lw	a7,80(sp)
4000315a:	8d2a                	mv	s10,a0
4000315c:	00d57cb3          	and	s9,a0,a3
40003160:	4901                	li	s2,0
40003162:	c6071963          	bnez	a4,400025d4 <_svfprintf_r+0x314>
40003166:	aaeff06f          	j	40002414 <_svfprintf_r+0x154>
4000316a:	80000837          	lui	a6,0x80000
4000316e:	45c1                	li	a1,16
40003170:	562e                	lw	a2,232(sp)
40003172:	4c480a93          	addi	s5,a6,1220 # 800004c4 <_bss_lma+0xfffffa24>
40003176:	4525d663          	bge	a1,s2,400035c2 <_svfprintf_r+0x1302>
4000317a:	4da2                	lw	s11,8(sp)
4000317c:	4e41                	li	t3,16
4000317e:	4d1d                	li	s10,7
40003180:	a021                	j	40003188 <_svfprintf_r+0xec8>
40003182:	1941                	addi	s2,s2,-16
40003184:	432e5f63          	bge	t3,s2,400035c2 <_svfprintf_r+0x1302>
40003188:	0741                	addi	a4,a4,16
4000318a:	0605                	addi	a2,a2,1
4000318c:	01542023          	sw	s5,0(s0)
40003190:	01c42223          	sw	t3,4(s0)
40003194:	d7ba                	sw	a4,236(sp)
40003196:	d5b2                	sw	a2,232(sp)
40003198:	0421                	addi	s0,s0,8
4000319a:	fecd54e3          	bge	s10,a2,40003182 <_svfprintf_r+0xec2>
4000319e:	11d0                	addi	a2,sp,228
400031a0:	85ee                	mv	a1,s11
400031a2:	854e                	mv	a0,s3
400031a4:	1ed030ef          	jal	ra,40006b90 <__ssprint_r>
400031a8:	ae051be3          	bnez	a0,40002c9e <_svfprintf_r+0x9de>
400031ac:	573e                	lw	a4,236(sp)
400031ae:	562e                	lw	a2,232(sp)
400031b0:	845a                	mv	s0,s6
400031b2:	4e41                	li	t3,16
400031b4:	b7f9                	j	40003182 <_svfprintf_r+0xec2>
400031b6:	5d32                	lw	s10,44(sp)
400031b8:	80000e37          	lui	t3,0x80000
400031bc:	caa6                	sw	s1,84(sp)
400031be:	ccde                	sw	s7,88(sp)
400031c0:	d666                	sw	s9,44(sp)
400031c2:	ced2                	sw	s4,92(sp)
400031c4:	8622                	mv	a2,s0
400031c6:	8ce2                	mv	s9,s8
400031c8:	4b86                	lw	s7,64(sp)
400031ca:	4436                	lw	s0,76(sp)
400031cc:	5c22                	lw	s8,40(sp)
400031ce:	44a2                	lw	s1,8(sp)
400031d0:	491d                	li	s2,7
400031d2:	4dc1                	li	s11,16
400031d4:	4c4e0a93          	addi	s5,t3,1220 # 800004c4 <_bss_lma+0xfffffa24>
400031d8:	060d0463          	beqz	s10,40003240 <_svfprintf_r+0xf80>
400031dc:	0e0c0763          	beqz	s8,400032ca <_svfprintf_r+0x100a>
400031e0:	1c7d                	addi	s8,s8,-1
400031e2:	47a6                	lw	a5,72(sp)
400031e4:	9722                	add	a4,a4,s0
400031e6:	c240                	sw	s0,4(a2)
400031e8:	c21c                	sw	a5,0(a2)
400031ea:	57ae                	lw	a5,232(sp)
400031ec:	d7ba                	sw	a4,236(sp)
400031ee:	0621                	addi	a2,a2,8
400031f0:	0785                	addi	a5,a5,1
400031f2:	d5be                	sw	a5,232(sp)
400031f4:	0ef94e63          	blt	s2,a5,400032f0 <_svfprintf_r+0x1030>
400031f8:	47c6                	lw	a5,80(sp)
400031fa:	000bc683          	lbu	a3,0(s7)
400031fe:	41978a33          	sub	s4,a5,s9
40003202:	0146d363          	bge	a3,s4,40003208 <_svfprintf_r+0xf48>
40003206:	8a36                	mv	s4,a3
40003208:	03405063          	blez	s4,40003228 <_svfprintf_r+0xf68>
4000320c:	56ae                	lw	a3,232(sp)
4000320e:	9752                	add	a4,a4,s4
40003210:	01962023          	sw	s9,0(a2)
40003214:	0685                	addi	a3,a3,1
40003216:	01462223          	sw	s4,4(a2)
4000321a:	d7ba                	sw	a4,236(sp)
4000321c:	d5b6                	sw	a3,232(sp)
4000321e:	26d94b63          	blt	s2,a3,40003494 <_svfprintf_r+0x11d4>
40003222:	000bc683          	lbu	a3,0(s7)
40003226:	0621                	addi	a2,a2,8
40003228:	fffa4593          	not	a1,s4
4000322c:	85fd                	srai	a1,a1,0x1f
4000322e:	00ba77b3          	and	a5,s4,a1
40003232:	40f68a33          	sub	s4,a3,a5
40003236:	03404363          	bgtz	s4,4000325c <_svfprintf_r+0xf9c>
4000323a:	9cb6                	add	s9,s9,a3
4000323c:	fa0d10e3          	bnez	s10,400031dc <_svfprintf_r+0xf1c>
40003240:	fa0c10e3          	bnez	s8,400031e0 <_svfprintf_r+0xf20>
40003244:	47c6                	lw	a5,80(sp)
40003246:	c0de                	sw	s7,64(sp)
40003248:	8c66                	mv	s8,s9
4000324a:	44d6                	lw	s1,84(sp)
4000324c:	4be6                	lw	s7,88(sp)
4000324e:	4a76                	lw	s4,92(sp)
40003250:	5cb2                	lw	s9,44(sp)
40003252:	8432                	mv	s0,a2
40003254:	bd87ffe3          	bgeu	a5,s8,40002e32 <_svfprintf_r+0xb72>
40003258:	8c3e                	mv	s8,a5
4000325a:	bee1                	j	40002e32 <_svfprintf_r+0xb72>
4000325c:	800005b7          	lui	a1,0x80000
40003260:	56ae                	lw	a3,232(sp)
40003262:	4c458593          	addi	a1,a1,1220 # 800004c4 <_bss_lma+0xfffffa24>
40003266:	054dd463          	bge	s11,s4,400032ae <_svfprintf_r+0xfee>
4000326a:	d022                	sw	s0,32(sp)
4000326c:	8452                	mv	s0,s4
4000326e:	8a56                	mv	s4,s5
40003270:	a021                	j	40003278 <_svfprintf_r+0xfb8>
40003272:	1441                	addi	s0,s0,-16
40003274:	028dda63          	bge	s11,s0,400032a8 <_svfprintf_r+0xfe8>
40003278:	0741                	addi	a4,a4,16
4000327a:	0685                	addi	a3,a3,1
4000327c:	01562023          	sw	s5,0(a2)
40003280:	01b62223          	sw	s11,4(a2)
40003284:	d7ba                	sw	a4,236(sp)
40003286:	d5b6                	sw	a3,232(sp)
40003288:	0621                	addi	a2,a2,8
4000328a:	fed954e3          	bge	s2,a3,40003272 <_svfprintf_r+0xfb2>
4000328e:	11d0                	addi	a2,sp,228
40003290:	85a6                	mv	a1,s1
40003292:	854e                	mv	a0,s3
40003294:	0fd030ef          	jal	ra,40006b90 <__ssprint_r>
40003298:	a00513e3          	bnez	a0,40002c9e <_svfprintf_r+0x9de>
4000329c:	1441                	addi	s0,s0,-16
4000329e:	573e                	lw	a4,236(sp)
400032a0:	56ae                	lw	a3,232(sp)
400032a2:	865a                	mv	a2,s6
400032a4:	fc8dcae3          	blt	s11,s0,40003278 <_svfprintf_r+0xfb8>
400032a8:	85d2                	mv	a1,s4
400032aa:	8a22                	mv	s4,s0
400032ac:	5402                	lw	s0,32(sp)
400032ae:	9752                	add	a4,a4,s4
400032b0:	0685                	addi	a3,a3,1
400032b2:	c20c                	sw	a1,0(a2)
400032b4:	01462223          	sw	s4,4(a2)
400032b8:	d7ba                	sw	a4,236(sp)
400032ba:	d5b6                	sw	a3,232(sp)
400032bc:	08d941e3          	blt	s2,a3,40003b3e <_svfprintf_r+0x187e>
400032c0:	000bc683          	lbu	a3,0(s7)
400032c4:	0621                	addi	a2,a2,8
400032c6:	9cb6                	add	s9,s9,a3
400032c8:	bf95                	j	4000323c <_svfprintf_r+0xf7c>
400032ca:	1bfd                	addi	s7,s7,-1
400032cc:	1d7d                	addi	s10,s10,-1
400032ce:	bf11                	j	400031e2 <_svfprintf_r+0xf22>
400032d0:	47e2                	lw	a5,24(sp)
400032d2:	010bf713          	andi	a4,s7,16
400032d6:	0007ac83          	lw	s9,0(a5)
400032da:	0791                	addi	a5,a5,4
400032dc:	cc3e                	sw	a5,24(sp)
400032de:	e71d                	bnez	a4,4000330c <_svfprintf_r+0x104c>
400032e0:	040bf713          	andi	a4,s7,64
400032e4:	c305                	beqz	a4,40003304 <_svfprintf_r+0x1044>
400032e6:	0cc2                	slli	s9,s9,0x10
400032e8:	010cdc93          	srli	s9,s9,0x10
400032ec:	4d01                	li	s10,0
400032ee:	b3d9                	j	400030b4 <_svfprintf_r+0xdf4>
400032f0:	11d0                	addi	a2,sp,228
400032f2:	85a6                	mv	a1,s1
400032f4:	854e                	mv	a0,s3
400032f6:	09b030ef          	jal	ra,40006b90 <__ssprint_r>
400032fa:	9a0512e3          	bnez	a0,40002c9e <_svfprintf_r+0x9de>
400032fe:	573e                	lw	a4,236(sp)
40003300:	865a                	mv	a2,s6
40003302:	bddd                	j	400031f8 <_svfprintf_r+0xf38>
40003304:	200bf713          	andi	a4,s7,512
40003308:	54071963          	bnez	a4,4000385a <_svfprintf_r+0x159a>
4000330c:	4d01                	li	s10,0
4000330e:	b35d                	j	400030b4 <_svfprintf_r+0xdf4>
40003310:	ccccde37          	lui	t3,0xccccd
40003314:	4706                	lw	a4,64(sp)
40003316:	400dfe93          	andi	t4,s11,1024
4000331a:	4581                	li	a1,0
4000331c:	1b10                	addi	a2,sp,432
4000331e:	4815                	li	a6,5
40003320:	ccde0693          	addi	a3,t3,-819 # cccccccd <_bss_lma+0x4cccc22d>
40003324:	ccce0b93          	addi	s7,t3,-820
40003328:	0ff00a93          	li	s5,255
4000332c:	a081                	j	4000336c <_svfprintf_r+0x10ac>
4000332e:	019c37b3          	sltu	a5,s8,s9
40003332:	97e2                	add	a5,a5,s8
40003334:	0307f7b3          	remu	a5,a5,a6
40003338:	40fc87b3          	sub	a5,s9,a5
4000333c:	00fcb633          	sltu	a2,s9,a5
40003340:	40cd0633          	sub	a2,s10,a2
40003344:	03778e33          	mul	t3,a5,s7
40003348:	02d60633          	mul	a2,a2,a3
4000334c:	02d7b533          	mulhu	a0,a5,a3
40003350:	9672                	add	a2,a2,t3
40003352:	02d787b3          	mul	a5,a5,a3
40003356:	962a                	add	a2,a2,a0
40003358:	01f61513          	slli	a0,a2,0x1f
4000335c:	8205                	srli	a2,a2,0x1
4000335e:	8385                	srli	a5,a5,0x1
40003360:	8fc9                	or	a5,a5,a0
40003362:	7e0d0c63          	beqz	s10,40003b5a <_svfprintf_r+0x189a>
40003366:	8d32                	mv	s10,a2
40003368:	8cbe                	mv	s9,a5
4000336a:	861a                	mv	a2,t1
4000336c:	01ac8c33          	add	s8,s9,s10
40003370:	019c37b3          	sltu	a5,s8,s9
40003374:	97e2                	add	a5,a5,s8
40003376:	0307f7b3          	remu	a5,a5,a6
4000337a:	fff60313          	addi	t1,a2,-1
4000337e:	0585                	addi	a1,a1,1
40003380:	40fc87b3          	sub	a5,s9,a5
40003384:	00fcb533          	sltu	a0,s9,a5
40003388:	40ad0533          	sub	a0,s10,a0
4000338c:	02d7be33          	mulhu	t3,a5,a3
40003390:	02d50533          	mul	a0,a0,a3
40003394:	02d787b3          	mul	a5,a5,a3
40003398:	9572                	add	a0,a0,t3
4000339a:	057e                	slli	a0,a0,0x1f
4000339c:	8385                	srli	a5,a5,0x1
4000339e:	8fc9                	or	a5,a5,a0
400033a0:	00279513          	slli	a0,a5,0x2
400033a4:	97aa                	add	a5,a5,a0
400033a6:	0786                	slli	a5,a5,0x1
400033a8:	40fc87b3          	sub	a5,s9,a5
400033ac:	03078793          	addi	a5,a5,48
400033b0:	fef60fa3          	sb	a5,-1(a2)
400033b4:	f60e8de3          	beqz	t4,4000332e <_svfprintf_r+0x106e>
400033b8:	00074783          	lbu	a5,0(a4)
400033bc:	f6f599e3          	bne	a1,a5,4000332e <_svfprintf_r+0x106e>
400033c0:	f75587e3          	beq	a1,s5,4000332e <_svfprintf_r+0x106e>
400033c4:	220d1663          	bnez	s10,400035f0 <_svfprintf_r+0x1330>
400033c8:	47a5                	li	a5,9
400033ca:	2397e363          	bltu	a5,s9,400035f0 <_svfprintf_r+0x1330>
400033ce:	8c1a                	mv	s8,t1
400033d0:	1b1c                	addi	a5,sp,432
400033d2:	c0ba                	sw	a4,64(sp)
400033d4:	d22e                	sw	a1,36(sp)
400033d6:	41878d33          	sub	s10,a5,s8
400033da:	8bee                	mv	s7,s11
400033dc:	9e0ff06f          	j	400025bc <_svfprintf_r+0x2fc>
400033e0:	573e                	lw	a4,236(sp)
400033e2:	562e                	lw	a2,232(sp)
400033e4:	800005b7          	lui	a1,0x80000
400033e8:	2bc58593          	addi	a1,a1,700 # 800002bc <_bss_lma+0xfffff81c>
400033ec:	c00c                	sw	a1,0(s0)
400033ee:	0705                	addi	a4,a4,1
400033f0:	4585                	li	a1,1
400033f2:	0605                	addi	a2,a2,1
400033f4:	c04c                	sw	a1,4(s0)
400033f6:	d7ba                	sw	a4,236(sp)
400033f8:	d5b2                	sw	a2,232(sp)
400033fa:	459d                	li	a1,7
400033fc:	0421                	addi	s0,s0,8
400033fe:	04c5c663          	blt	a1,a2,4000344a <_svfprintf_r+0x118a>
40003402:	12051163          	bnez	a0,40003524 <_svfprintf_r+0x1264>
40003406:	5792                	lw	a5,36(sp)
40003408:	001bf613          	andi	a2,s7,1
4000340c:	8e5d                	or	a2,a2,a5
4000340e:	88060c63          	beqz	a2,400024a6 <_svfprintf_r+0x1e6>
40003412:	57d2                	lw	a5,52(sp)
40003414:	562e                	lw	a2,232(sp)
40003416:	56e2                	lw	a3,56(sp)
40003418:	973e                	add	a4,a4,a5
4000341a:	0605                	addi	a2,a2,1
4000341c:	c014                	sw	a3,0(s0)
4000341e:	c05c                	sw	a5,4(s0)
40003420:	d7ba                	sw	a4,236(sp)
40003422:	d5b2                	sw	a2,232(sp)
40003424:	459d                	li	a1,7
40003426:	44c5c863          	blt	a1,a2,40003876 <_svfprintf_r+0x15b6>
4000342a:	0421                	addi	s0,s0,8
4000342c:	5792                	lw	a5,36(sp)
4000342e:	0605                	addi	a2,a2,1
40003430:	01842023          	sw	s8,0(s0)
40003434:	973e                	add	a4,a4,a5
40003436:	c05c                	sw	a5,4(s0)
40003438:	d7ba                	sw	a4,236(sp)
4000343a:	d5b2                	sw	a2,232(sp)
4000343c:	459d                	li	a1,7
4000343e:	00c5c463          	blt	a1,a2,40003446 <_svfprintf_r+0x1186>
40003442:	862ff06f          	j	400024a4 <_svfprintf_r+0x1e4>
40003446:	b9eff06f          	j	400027e4 <_svfprintf_r+0x524>
4000344a:	45a2                	lw	a1,8(sp)
4000344c:	11d0                	addi	a2,sp,228
4000344e:	854e                	mv	a0,s3
40003450:	740030ef          	jal	ra,40006b90 <__ssprint_r>
40003454:	840515e3          	bnez	a0,40002c9e <_svfprintf_r+0x9de>
40003458:	453e                	lw	a0,204(sp)
4000345a:	573e                	lw	a4,236(sp)
4000345c:	845a                	mv	s0,s6
4000345e:	b755                	j	40003402 <_svfprintf_r+0x1142>
40003460:	45a2                	lw	a1,8(sp)
40003462:	11d0                	addi	a2,sp,228
40003464:	854e                	mv	a0,s3
40003466:	72a030ef          	jal	ra,40006b90 <__ssprint_r>
4000346a:	82051ae3          	bnez	a0,40002c9e <_svfprintf_r+0x9de>
4000346e:	573e                	lw	a4,236(sp)
40003470:	845a                	mv	s0,s6
40003472:	e40ff06f          	j	40002ab2 <_svfprintf_r+0x7f2>
40003476:	01542023          	sw	s5,0(s0)
4000347a:	01242223          	sw	s2,4(s0)
4000347e:	974a                	add	a4,a4,s2
40003480:	0605                	addi	a2,a2,1
40003482:	d7ba                	sw	a4,236(sp)
40003484:	d5b2                	sw	a2,232(sp)
40003486:	459d                	li	a1,7
40003488:	00c5c463          	blt	a1,a2,40003490 <_svfprintf_r+0x11d0>
4000348c:	818ff06f          	j	400024a4 <_svfprintf_r+0x1e4>
40003490:	b54ff06f          	j	400027e4 <_svfprintf_r+0x524>
40003494:	11d0                	addi	a2,sp,228
40003496:	85a6                	mv	a1,s1
40003498:	854e                	mv	a0,s3
4000349a:	6f6030ef          	jal	ra,40006b90 <__ssprint_r>
4000349e:	800510e3          	bnez	a0,40002c9e <_svfprintf_r+0x9de>
400034a2:	000bc683          	lbu	a3,0(s7)
400034a6:	573e                	lw	a4,236(sp)
400034a8:	865a                	mv	a2,s6
400034aa:	bbbd                	j	40003228 <_svfprintf_r+0xf68>
400034ac:	574e                	lw	a4,240(sp)
400034ae:	110c                	addi	a1,sp,160
400034b0:	1908                	addi	a0,sp,176
400034b2:	d93a                	sw	a4,176(sp)
400034b4:	575e                	lw	a4,244(sp)
400034b6:	d102                	sw	zero,160(sp)
400034b8:	d302                	sw	zero,164(sp)
400034ba:	db3a                	sw	a4,180(sp)
400034bc:	576e                	lw	a4,248(sp)
400034be:	d502                	sw	zero,168(sp)
400034c0:	d702                	sw	zero,172(sp)
400034c2:	dd3a                	sw	a4,184(sp)
400034c4:	577e                	lw	a4,252(sp)
400034c6:	df3a                	sw	a4,188(sp)
400034c8:	336060ef          	jal	ra,400097fe <__letf2>
400034cc:	48d2                	lw	a7,20(sp)
400034ce:	78054c63          	bltz	a0,40003c66 <_svfprintf_r+0x19a6>
400034d2:	0c714703          	lbu	a4,199(sp)
400034d6:	04700693          	li	a3,71
400034da:	1916d563          	bge	a3,a7,40003664 <_svfprintf_r+0x13a4>
400034de:	800002b7          	lui	t0,0x80000
400034e2:	28028c13          	addi	s8,t0,640 # 80000280 <_bss_lma+0xfffff7e0>
400034e6:	ca02                	sw	zero,20(sp)
400034e8:	d402                	sw	zero,40(sp)
400034ea:	d602                	sw	zero,44(sp)
400034ec:	d002                	sw	zero,32(sp)
400034ee:	f7fbfb93          	andi	s7,s7,-129
400034f2:	4c8d                	li	s9,3
400034f4:	4d0d                	li	s10,3
400034f6:	4901                	li	s2,0
400034f8:	8c071e63          	bnez	a4,400025d4 <_svfprintf_r+0x314>
400034fc:	f19fe06f          	j	40002414 <_svfprintf_r+0x154>
40003500:	47e2                	lw	a5,24(sp)
40003502:	4742                	lw	a4,16(sp)
40003504:	439c                	lw	a5,0(a5)
40003506:	c398                	sw	a4,0(a5)
40003508:	d2eff06f          	j	40002a36 <_svfprintf_r+0x776>
4000350c:	4719                	li	a4,6
4000350e:	8d4a                	mv	s10,s2
40003510:	17276a63          	bltu	a4,s2,40003684 <_svfprintf_r+0x13c4>
40003514:	800002b7          	lui	t0,0x80000
40003518:	8cea                	mv	s9,s10
4000351a:	cc56                	sw	s5,24(sp)
4000351c:	2b428c13          	addi	s8,t0,692 # 800002b4 <_bss_lma+0xfffff814>
40003520:	eebfe06f          	j	4000240a <_svfprintf_r+0x14a>
40003524:	57d2                	lw	a5,52(sp)
40003526:	562e                	lw	a2,232(sp)
40003528:	56e2                	lw	a3,56(sp)
4000352a:	973e                	add	a4,a4,a5
4000352c:	0605                	addi	a2,a2,1
4000352e:	c014                	sw	a3,0(s0)
40003530:	c05c                	sw	a5,4(s0)
40003532:	d7ba                	sw	a4,236(sp)
40003534:	d5b2                	sw	a2,232(sp)
40003536:	459d                	li	a1,7
40003538:	0421                	addi	s0,s0,8
4000353a:	32c5ce63          	blt	a1,a2,40003876 <_svfprintf_r+0x15b6>
4000353e:	ee0557e3          	bgez	a0,4000342c <_svfprintf_r+0x116c>
40003542:	80000837          	lui	a6,0x80000
40003546:	55c1                	li	a1,-16
40003548:	40a00933          	neg	s2,a0
4000354c:	4c480a93          	addi	s5,a6,1220 # 800004c4 <_bss_lma+0xfffffa24>
40003550:	4d41                	li	s10,16
40003552:	4d9d                	li	s11,7
40003554:	00b54763          	blt	a0,a1,40003562 <_svfprintf_r+0x12a2>
40003558:	7c60006f          	j	40003d1e <_svfprintf_r+0x1a5e>
4000355c:	1941                	addi	s2,s2,-16
4000355e:	7d2d5063          	bge	s10,s2,40003d1e <_svfprintf_r+0x1a5e>
40003562:	0741                	addi	a4,a4,16
40003564:	0605                	addi	a2,a2,1
40003566:	01542023          	sw	s5,0(s0)
4000356a:	01a42223          	sw	s10,4(s0)
4000356e:	d7ba                	sw	a4,236(sp)
40003570:	d5b2                	sw	a2,232(sp)
40003572:	0421                	addi	s0,s0,8
40003574:	fecdd4e3          	bge	s11,a2,4000355c <_svfprintf_r+0x129c>
40003578:	45a2                	lw	a1,8(sp)
4000357a:	11d0                	addi	a2,sp,228
4000357c:	854e                	mv	a0,s3
4000357e:	612030ef          	jal	ra,40006b90 <__ssprint_r>
40003582:	f0051e63          	bnez	a0,40002c9e <_svfprintf_r+0x9de>
40003586:	573e                	lw	a4,236(sp)
40003588:	562e                	lw	a2,232(sp)
4000358a:	845a                	mv	s0,s6
4000358c:	bfc1                	j	4000355c <_svfprintf_r+0x129c>
4000358e:	87a6                	mv	a5,s1
40003590:	84d2                	mv	s1,s4
40003592:	8a56                	mv	s4,s5
40003594:	8abe                	mv	s5,a5
40003596:	9da2                	add	s11,s11,s0
40003598:	0905                	addi	s2,s2,1
4000359a:	015d2023          	sw	s5,0(s10)
4000359e:	a14ff06f          	j	400027b2 <_svfprintf_r+0x4f2>
400035a2:	577e                	lw	a4,252(sp)
400035a4:	2a075f63          	bgez	a4,40003862 <_svfprintf_r+0x15a2>
400035a8:	02d00713          	li	a4,45
400035ac:	0ce103a3          	sb	a4,199(sp)
400035b0:	04700693          	li	a3,71
400035b4:	6f16dd63          	bge	a3,a7,40003cae <_svfprintf_r+0x19ee>
400035b8:	800002b7          	lui	t0,0x80000
400035bc:	28828c13          	addi	s8,t0,648 # 80000288 <_bss_lma+0xfffff7e8>
400035c0:	b71d                	j	400034e6 <_svfprintf_r+0x1226>
400035c2:	974a                	add	a4,a4,s2
400035c4:	0605                	addi	a2,a2,1
400035c6:	01542023          	sw	s5,0(s0)
400035ca:	01242223          	sw	s2,4(s0)
400035ce:	d7ba                	sw	a4,236(sp)
400035d0:	d5b2                	sw	a2,232(sp)
400035d2:	459d                	li	a1,7
400035d4:	0421                	addi	s0,s0,8
400035d6:	84c5d8e3          	bge	a1,a2,40002e26 <_svfprintf_r+0xb66>
400035da:	45a2                	lw	a1,8(sp)
400035dc:	11d0                	addi	a2,sp,228
400035de:	854e                	mv	a0,s3
400035e0:	5b0030ef          	jal	ra,40006b90 <__ssprint_r>
400035e4:	ea051d63          	bnez	a0,40002c9e <_svfprintf_r+0x9de>
400035e8:	573e                	lw	a4,236(sp)
400035ea:	845a                	mv	s0,s6
400035ec:	83bff06f          	j	40002e26 <_svfprintf_r+0xb66>
400035f0:	47b6                	lw	a5,76(sp)
400035f2:	45a6                	lw	a1,72(sp)
400035f4:	d476                	sw	t4,40(sp)
400035f6:	40f30333          	sub	t1,t1,a5
400035fa:	863e                	mv	a2,a5
400035fc:	851a                	mv	a0,t1
400035fe:	d246                	sw	a7,36(sp)
40003600:	d03a                	sw	a4,32(sp)
40003602:	ca1a                	sw	t1,20(sp)
40003604:	510030ef          	jal	ra,40006b14 <strncpy>
40003608:	019c37b3          	sltu	a5,s8,s9
4000360c:	4615                	li	a2,5
4000360e:	97e2                	add	a5,a5,s8
40003610:	02c7f7b3          	remu	a5,a5,a2
40003614:	5702                	lw	a4,32(sp)
40003616:	ccccd637          	lui	a2,0xccccd
4000361a:	ccd60e13          	addi	t3,a2,-819 # cccccccd <_bss_lma+0x4cccc22d>
4000361e:	ccc60513          	addi	a0,a2,-820
40003622:	00174603          	lbu	a2,1(a4)
40003626:	4352                	lw	t1,20(sp)
40003628:	5892                	lw	a7,36(sp)
4000362a:	00c03633          	snez	a2,a2
4000362e:	9732                	add	a4,a4,a2
40003630:	5ea2                	lw	t4,40(sp)
40003632:	4581                	li	a1,0
40003634:	4815                	li	a6,5
40003636:	86f2                	mv	a3,t3
40003638:	40fc87b3          	sub	a5,s9,a5
4000363c:	00fcb633          	sltu	a2,s9,a5
40003640:	40cd0633          	sub	a2,s10,a2
40003644:	02a78533          	mul	a0,a5,a0
40003648:	03c60633          	mul	a2,a2,t3
4000364c:	03c7bf33          	mulhu	t5,a5,t3
40003650:	962a                	add	a2,a2,a0
40003652:	03c78533          	mul	a0,a5,t3
40003656:	967a                	add	a2,a2,t5
40003658:	01f61793          	slli	a5,a2,0x1f
4000365c:	8205                	srli	a2,a2,0x1
4000365e:	8105                	srli	a0,a0,0x1
40003660:	8fc9                	or	a5,a5,a0
40003662:	b311                	j	40003366 <_svfprintf_r+0x10a6>
40003664:	800002b7          	lui	t0,0x80000
40003668:	27c28c13          	addi	s8,t0,636 # 8000027c <_bss_lma+0xfffff7dc>
4000366c:	bdad                	j	400034e6 <_svfprintf_r+0x1226>
4000366e:	45a2                	lw	a1,8(sp)
40003670:	11d0                	addi	a2,sp,228
40003672:	854e                	mv	a0,s3
40003674:	51c030ef          	jal	ra,40006b90 <__ssprint_r>
40003678:	e2051363          	bnez	a0,40002c9e <_svfprintf_r+0x9de>
4000367c:	573e                	lw	a4,236(sp)
4000367e:	845a                	mv	s0,s6
40003680:	f92ff06f          	j	40002e12 <_svfprintf_r+0xb52>
40003684:	4d19                	li	s10,6
40003686:	b579                	j	40003514 <_svfprintf_r+0x1254>
40003688:	40c78633          	sub	a2,a5,a2
4000368c:	47c6                	lw	a5,80(sp)
4000368e:	41878933          	sub	s2,a5,s8
40003692:	ff265d63          	bge	a2,s2,40002e8c <_svfprintf_r+0xbcc>
40003696:	8932                	mv	s2,a2
40003698:	ff4ff06f          	j	40002e8c <_svfprintf_r+0xbcc>
4000369c:	47e2                	lw	a5,24(sp)
4000369e:	4742                	lw	a4,16(sp)
400036a0:	439c                	lw	a5,0(a5)
400036a2:	00e79023          	sh	a4,0(a5)
400036a6:	b90ff06f          	j	40002a36 <_svfprintf_r+0x776>
400036aa:	86ca                	mv	a3,s2
400036ac:	4609                	li	a2,2
400036ae:	0b010b93          	addi	s7,sp,176
400036b2:	099c                	addi	a5,sp,208
400036b4:	0dc10813          	addi	a6,sp,220
400036b8:	01f8                	addi	a4,sp,204
400036ba:	85de                	mv	a1,s7
400036bc:	854e                	mv	a0,s3
400036be:	cac6                	sw	a7,84(sp)
400036c0:	c8b6                	sw	a3,80(sp)
400036c2:	d97a                	sw	t5,176(sp)
400036c4:	d47a                	sw	t5,40(sp)
400036c6:	db76                	sw	t4,180(sp)
400036c8:	d276                	sw	t4,36(sp)
400036ca:	dd72                	sw	t3,184(sp)
400036cc:	d072                	sw	t3,32(sp)
400036ce:	df6e                	sw	s11,188(sp)
400036d0:	591010ef          	jal	ra,40005460 <_ldtoa_r>
400036d4:	48d6                	lw	a7,84(sp)
400036d6:	06700793          	li	a5,103
400036da:	5e02                	lw	t3,32(sp)
400036dc:	5e92                	lw	t4,36(sp)
400036de:	5f22                	lw	t5,40(sp)
400036e0:	46c6                	lw	a3,80(sp)
400036e2:	8c2a                	mv	s8,a0
400036e4:	3ef88363          	beq	a7,a5,40003aca <_svfprintf_r+0x180a>
400036e8:	04700793          	li	a5,71
400036ec:	3cf88f63          	beq	a7,a5,40003aca <_svfprintf_r+0x180a>
400036f0:	fdf8fa93          	andi	s5,a7,-33
400036f4:	04600613          	li	a2,70
400036f8:	00d50cb3          	add	s9,a0,a3
400036fc:	0a010d13          	addi	s10,sp,160
40003700:	00ca9a63          	bne	s5,a2,40003714 <_svfprintf_r+0x1454>
40003704:	00054583          	lbu	a1,0(a0)
40003708:	03000613          	li	a2,48
4000370c:	18c58663          	beq	a1,a2,40003898 <_svfprintf_r+0x15d8>
40003710:	46be                	lw	a3,204(sp)
40003712:	9cb6                	add	s9,s9,a3
40003714:	855e                	mv	a0,s7
40003716:	85ea                	mv	a1,s10
40003718:	d046                	sw	a7,32(sp)
4000371a:	d97a                	sw	t5,176(sp)
4000371c:	db76                	sw	t4,180(sp)
4000371e:	dd72                	sw	t3,184(sp)
40003720:	df6e                	sw	s11,188(sp)
40003722:	d102                	sw	zero,160(sp)
40003724:	d302                	sw	zero,164(sp)
40003726:	d502                	sw	zero,168(sp)
40003728:	d702                	sw	zero,172(sp)
4000372a:	717050ef          	jal	ra,40009640 <__eqtf2>
4000372e:	5882                	lw	a7,32(sp)
40003730:	8be6                	mv	s7,s9
40003732:	cd11                	beqz	a0,4000374e <_svfprintf_r+0x148e>
40003734:	4bfe                	lw	s7,220(sp)
40003736:	019bfc63          	bgeu	s7,s9,4000374e <_svfprintf_r+0x148e>
4000373a:	03000613          	li	a2,48
4000373e:	001b8793          	addi	a5,s7,1
40003742:	cfbe                	sw	a5,220(sp)
40003744:	00cb8023          	sb	a2,0(s7)
40003748:	4bfe                	lw	s7,220(sp)
4000374a:	ff9beae3          	bltu	s7,s9,4000373e <_svfprintf_r+0x147e>
4000374e:	418b87b3          	sub	a5,s7,s8
40003752:	d23e                	sw	a5,36(sp)
40003754:	46be                	lw	a3,204(sp)
40003756:	04700793          	li	a5,71
4000375a:	d036                	sw	a3,32(sp)
4000375c:	38fa8063          	beq	s5,a5,40003adc <_svfprintf_r+0x181c>
40003760:	04600793          	li	a5,70
40003764:	54fa8e63          	beq	s5,a5,40003cc0 <_svfprintf_r+0x1a00>
40003768:	fff68793          	addi	a5,a3,-1
4000376c:	c7be                	sw	a5,204(sp)
4000376e:	06100713          	li	a4,97
40003772:	70e88f63          	beq	a7,a4,40003e90 <_svfprintf_r+0x1bd0>
40003776:	04100613          	li	a2,65
4000377a:	05000713          	li	a4,80
4000377e:	36c89963          	bne	a7,a2,40003af0 <_svfprintf_r+0x1830>
40003782:	4605                	li	a2,1
40003784:	0ce10a23          	sb	a4,212(sp)
40003788:	02b00713          	li	a4,43
4000378c:	0007d663          	bgez	a5,40003798 <_svfprintf_r+0x14d8>
40003790:	4785                	li	a5,1
40003792:	8f95                	sub	a5,a5,a3
40003794:	02d00713          	li	a4,45
40003798:	0ce10aa3          	sb	a4,213(sp)
4000379c:	4725                	li	a4,9
4000379e:	5af75f63          	bge	a4,a5,40003d5c <_svfprintf_r+0x1a9c>
400037a2:	0e310813          	addi	a6,sp,227
400037a6:	8642                	mv	a2,a6
400037a8:	45a9                	li	a1,10
400037aa:	06300e13          	li	t3,99
400037ae:	02b7e733          	rem	a4,a5,a1
400037b2:	86b2                	mv	a3,a2
400037b4:	853e                	mv	a0,a5
400037b6:	167d                	addi	a2,a2,-1
400037b8:	03070713          	addi	a4,a4,48
400037bc:	fee68fa3          	sb	a4,-1(a3)
400037c0:	02b7c7b3          	div	a5,a5,a1
400037c4:	feae45e3          	blt	t3,a0,400037ae <_svfprintf_r+0x14ee>
400037c8:	03078793          	addi	a5,a5,48
400037cc:	ffe68713          	addi	a4,a3,-2
400037d0:	fef60fa3          	sb	a5,-1(a2)
400037d4:	6d077163          	bgeu	a4,a6,40003e96 <_svfprintf_r+0x1bd6>
400037d8:	0d610793          	addi	a5,sp,214
400037dc:	00074603          	lbu	a2,0(a4)
400037e0:	0705                	addi	a4,a4,1
400037e2:	0785                	addi	a5,a5,1
400037e4:	fec78fa3          	sb	a2,-1(a5)
400037e8:	ff071ae3          	bne	a4,a6,400037dc <_svfprintf_r+0x151c>
400037ec:	0e510793          	addi	a5,sp,229
400037f0:	0d610713          	addi	a4,sp,214
400037f4:	8f95                	sub	a5,a5,a3
400037f6:	97ba                	add	a5,a5,a4
400037f8:	09d8                	addi	a4,sp,212
400037fa:	8f99                	sub	a5,a5,a4
400037fc:	c2be                	sw	a5,68(sp)
400037fe:	4696                	lw	a3,68(sp)
40003800:	5712                	lw	a4,36(sp)
40003802:	4785                	li	a5,1
40003804:	00e68d33          	add	s10,a3,a4
40003808:	5ee7d063          	bge	a5,a4,40003de8 <_svfprintf_r+0x1b28>
4000380c:	57d2                	lw	a5,52(sp)
4000380e:	9d3e                	add	s10,s10,a5
40003810:	57b2                	lw	a5,44(sp)
40003812:	fffd4693          	not	a3,s10
40003816:	86fd                	srai	a3,a3,0x1f
40003818:	bff7f793          	andi	a5,a5,-1025
4000381c:	1007eb93          	ori	s7,a5,256
40003820:	00dd7cb3          	and	s9,s10,a3
40003824:	d402                	sw	zero,40(sp)
40003826:	d602                	sw	zero,44(sp)
40003828:	d002                	sw	zero,32(sp)
4000382a:	5786                	lw	a5,96(sp)
4000382c:	2c078663          	beqz	a5,40003af8 <_svfprintf_r+0x1838>
40003830:	02d00713          	li	a4,45
40003834:	0ce103a3          	sb	a4,199(sp)
40003838:	4901                	li	s2,0
4000383a:	0c85                	addi	s9,s9,1
4000383c:	bd9fe06f          	j	40002414 <_svfprintf_r+0x154>
40003840:	0ffcfc93          	zext.b	s9,s9
40003844:	4d01                	li	s10,0
40003846:	db7fe06f          	j	400025fc <_svfprintf_r+0x33c>
4000384a:	0ce2                	slli	s9,s9,0x18
4000384c:	418cdc93          	srai	s9,s9,0x18
40003850:	41fcdd13          	srai	s10,s9,0x1f
40003854:	876a                	mv	a4,s10
40003856:	d35fe06f          	j	4000258a <_svfprintf_r+0x2ca>
4000385a:	0ffcfc93          	zext.b	s9,s9
4000385e:	4d01                	li	s10,0
40003860:	b891                	j	400030b4 <_svfprintf_r+0xdf4>
40003862:	0c714703          	lbu	a4,199(sp)
40003866:	b3a9                	j	400035b0 <_svfprintf_r+0x12f0>
40003868:	45a2                	lw	a1,8(sp)
4000386a:	5542                	lw	a0,48(sp)
4000386c:	11d0                	addi	a2,sp,228
4000386e:	322030ef          	jal	ra,40006b90 <__ssprint_r>
40003872:	c77fe06f          	j	400024e8 <_svfprintf_r+0x228>
40003876:	45a2                	lw	a1,8(sp)
40003878:	11d0                	addi	a2,sp,228
4000387a:	854e                	mv	a0,s3
4000387c:	314030ef          	jal	ra,40006b90 <__ssprint_r>
40003880:	c0051f63          	bnez	a0,40002c9e <_svfprintf_r+0x9de>
40003884:	453e                	lw	a0,204(sp)
40003886:	573e                	lw	a4,236(sp)
40003888:	562e                	lw	a2,232(sp)
4000388a:	845a                	mv	s0,s6
4000388c:	ba0550e3          	bgez	a0,4000342c <_svfprintf_r+0x116c>
40003890:	b94d                	j	40003542 <_svfprintf_r+0x1282>
40003892:	4919                	li	s2,6
40003894:	e4dfe06f          	j	400026e0 <_svfprintf_r+0x420>
40003898:	85ea                	mv	a1,s10
4000389a:	855e                	mv	a0,s7
4000389c:	c8c6                	sw	a7,80(sp)
4000389e:	d97a                	sw	t5,176(sp)
400038a0:	d47a                	sw	t5,40(sp)
400038a2:	db76                	sw	t4,180(sp)
400038a4:	d276                	sw	t4,36(sp)
400038a6:	dd72                	sw	t3,184(sp)
400038a8:	d072                	sw	t3,32(sp)
400038aa:	cab6                	sw	a3,84(sp)
400038ac:	df6e                	sw	s11,188(sp)
400038ae:	d102                	sw	zero,160(sp)
400038b0:	d302                	sw	zero,164(sp)
400038b2:	d502                	sw	zero,168(sp)
400038b4:	d702                	sw	zero,172(sp)
400038b6:	58b050ef          	jal	ra,40009640 <__eqtf2>
400038ba:	5e02                	lw	t3,32(sp)
400038bc:	5e92                	lw	t4,36(sp)
400038be:	5f22                	lw	t5,40(sp)
400038c0:	48c6                	lw	a7,80(sp)
400038c2:	e40507e3          	beqz	a0,40003710 <_svfprintf_r+0x1450>
400038c6:	46d6                	lw	a3,84(sp)
400038c8:	4605                	li	a2,1
400038ca:	40d606b3          	sub	a3,a2,a3
400038ce:	c7b6                	sw	a3,204(sp)
400038d0:	b589                	j	40003712 <_svfprintf_r+0x1452>
400038d2:	00190693          	addi	a3,s2,1
400038d6:	4609                	li	a2,2
400038d8:	bbd9                	j	400036ae <_svfprintf_r+0x13ee>
400038da:	86ca                	mv	a3,s2
400038dc:	460d                	li	a2,3
400038de:	bbc1                	j	400036ae <_svfprintf_r+0x13ee>
400038e0:	0b010b93          	addi	s7,sp,176
400038e4:	855e                	mv	a0,s7
400038e6:	d2c6                	sw	a7,100(sp)
400038e8:	d97a                	sw	t5,176(sp)
400038ea:	db76                	sw	t4,180(sp)
400038ec:	dd72                	sw	t3,184(sp)
400038ee:	df6e                	sw	s11,188(sp)
400038f0:	4c7070ef          	jal	ra,4000b5b6 <__trunctfdf2>
400038f4:	01f0                	addi	a2,sp,204
400038f6:	12e030ef          	jal	ra,40006a24 <frexp>
400038fa:	862e                	mv	a2,a1
400038fc:	85aa                	mv	a1,a0
400038fe:	855e                	mv	a0,s7
40003900:	347070ef          	jal	ra,4000b446 <__extenddftf2>
40003904:	091c                	addi	a5,sp,144
40003906:	85be                	mv	a1,a5
40003908:	d03e                	sw	a5,32(sp)
4000390a:	57ca                	lw	a5,176(sp)
4000390c:	0a010d13          	addi	s10,sp,160
40003910:	0110                	addi	a2,sp,128
40003912:	c93e                	sw	a5,144(sp)
40003914:	57da                	lw	a5,180(sp)
40003916:	856a                	mv	a0,s10
40003918:	cab2                	sw	a2,84(sp)
4000391a:	cb3e                	sw	a5,148(sp)
4000391c:	57ea                	lw	a5,184(sp)
4000391e:	c102                	sw	zero,128(sp)
40003920:	c302                	sw	zero,132(sp)
40003922:	cd3e                	sw	a5,152(sp)
40003924:	57fa                	lw	a5,188(sp)
40003926:	c502                	sw	zero,136(sp)
40003928:	cf3e                	sw	a5,156(sp)
4000392a:	3ffc07b7          	lui	a5,0x3ffc0
4000392e:	c73e                	sw	a5,140(sp)
40003930:	7e1050ef          	jal	ra,40009910 <__multf3>
40003934:	570a                	lw	a4,160(sp)
40003936:	569a                	lw	a3,164(sp)
40003938:	582a                	lw	a6,168(sp)
4000393a:	5e3a                	lw	t3,172(sp)
4000393c:	85ea                	mv	a1,s10
4000393e:	855e                	mv	a0,s7
40003940:	d93a                	sw	a4,176(sp)
40003942:	ceba                	sw	a4,92(sp)
40003944:	db36                	sw	a3,180(sp)
40003946:	c8b6                	sw	a3,80(sp)
40003948:	dd42                	sw	a6,184(sp)
4000394a:	d442                	sw	a6,40(sp)
4000394c:	df72                	sw	t3,188(sp)
4000394e:	d272                	sw	t3,36(sp)
40003950:	d102                	sw	zero,160(sp)
40003952:	d302                	sw	zero,164(sp)
40003954:	d502                	sw	zero,168(sp)
40003956:	d702                	sw	zero,172(sp)
40003958:	4e9050ef          	jal	ra,40009640 <__eqtf2>
4000395c:	5e12                	lw	t3,36(sp)
4000395e:	5822                	lw	a6,40(sp)
40003960:	46c6                	lw	a3,80(sp)
40003962:	4776                	lw	a4,92(sp)
40003964:	5896                	lw	a7,100(sp)
40003966:	e519                	bnez	a0,40003974 <_svfprintf_r+0x16b4>
40003968:	4785                	li	a5,1
4000396a:	c7be                	sw	a5,204(sp)
4000396c:	06100793          	li	a5,97
40003970:	2cf88063          	beq	a7,a5,40003c30 <_svfprintf_r+0x1970>
40003974:	800007b7          	lui	a5,0x80000
40003978:	2a078393          	addi	t2,a5,672 # 800002a0 <_bss_lma+0xfffff800>
4000397c:	fff90c93          	addi	s9,s2,-1
40003980:	d8ca                	sw	s2,112(sp)
40003982:	daa2                	sw	s0,116(sp)
40003984:	8962                	mv	s2,s8
40003986:	dcce                	sw	s3,120(sp)
40003988:	dee2                	sw	s8,124(sp)
4000398a:	d2a6                	sw	s1,100(sp)
4000398c:	d4c6                	sw	a7,104(sp)
4000398e:	d6d2                	sw	s4,108(sp)
40003990:	c89e                	sw	t2,80(sp)
40003992:	89ba                	mv	s3,a4
40003994:	8ab6                	mv	s5,a3
40003996:	8c42                	mv	s8,a6
40003998:	8472                	mv	s0,t3
4000399a:	a035                	j	400039c6 <_svfprintf_r+0x1706>
4000399c:	85ea                	mv	a1,s10
4000399e:	855e                	mv	a0,s7
400039a0:	d43e                	sw	a5,40(sp)
400039a2:	d232                	sw	a2,36(sp)
400039a4:	dd32                	sw	a2,184(sp)
400039a6:	df3e                	sw	a5,188(sp)
400039a8:	d926                	sw	s1,176(sp)
400039aa:	db52                	sw	s4,180(sp)
400039ac:	d102                	sw	zero,160(sp)
400039ae:	d302                	sw	zero,164(sp)
400039b0:	d502                	sw	zero,168(sp)
400039b2:	d702                	sw	zero,172(sp)
400039b4:	48d050ef          	jal	ra,40009640 <__eqtf2>
400039b8:	fffc8593          	addi	a1,s9,-1
400039bc:	8662                	mv	a2,s8
400039be:	87a2                	mv	a5,s0
400039c0:	42050963          	beqz	a0,40003df2 <_svfprintf_r+0x1b32>
400039c4:	8cae                	mv	s9,a1
400039c6:	5602                	lw	a2,32(sp)
400039c8:	400307b7          	lui	a5,0x40030
400039cc:	85ea                	mv	a1,s10
400039ce:	855e                	mv	a0,s7
400039d0:	cf3e                	sw	a5,156(sp)
400039d2:	d14e                	sw	s3,160(sp)
400039d4:	d356                	sw	s5,164(sp)
400039d6:	d562                	sw	s8,168(sp)
400039d8:	d722                	sw	s0,172(sp)
400039da:	c902                	sw	zero,144(sp)
400039dc:	cb02                	sw	zero,148(sp)
400039de:	cd02                	sw	zero,152(sp)
400039e0:	731050ef          	jal	ra,40009910 <__multf3>
400039e4:	855e                	mv	a0,s7
400039e6:	0e9070ef          	jal	ra,4000b2ce <__fixtfsi>
400039ea:	85aa                	mv	a1,a0
400039ec:	8daa                	mv	s11,a0
400039ee:	855e                	mv	a0,s7
400039f0:	5a4a                	lw	s4,176(sp)
400039f2:	59da                	lw	s3,180(sp)
400039f4:	54ea                	lw	s1,184(sp)
400039f6:	547a                	lw	s0,188(sp)
400039f8:	17d070ef          	jal	ra,4000b374 <__floatsitf>
400039fc:	57ca                	lw	a5,176(sp)
400039fe:	4656                	lw	a2,84(sp)
40003a00:	5582                	lw	a1,32(sp)
40003a02:	c13e                	sw	a5,128(sp)
40003a04:	57da                	lw	a5,180(sp)
40003a06:	856a                	mv	a0,s10
40003a08:	c952                	sw	s4,144(sp)
40003a0a:	c33e                	sw	a5,132(sp)
40003a0c:	57ea                	lw	a5,184(sp)
40003a0e:	cb4e                	sw	s3,148(sp)
40003a10:	cd26                	sw	s1,152(sp)
40003a12:	c53e                	sw	a5,136(sp)
40003a14:	57fa                	lw	a5,188(sp)
40003a16:	cf22                	sw	s0,156(sp)
40003a18:	c73e                	sw	a5,140(sp)
40003a1a:	275060ef          	jal	ra,4000a48e <__subtf3>
40003a1e:	47c6                	lw	a5,80(sp)
40003a20:	548a                	lw	s1,160(sp)
40003a22:	5a1a                	lw	s4,164(sp)
40003a24:	97ee                	add	a5,a5,s11
40003a26:	0007c703          	lbu	a4,0(a5) # 40030000 <_stack_top+0x11ef4>
40003a2a:	562a                	lw	a2,168(sp)
40003a2c:	57ba                	lw	a5,172(sp)
40003a2e:	ceca                	sw	s2,92(sp)
40003a30:	00e90023          	sb	a4,0(s2)
40003a34:	577d                	li	a4,-1
40003a36:	0905                	addi	s2,s2,1
40003a38:	89a6                	mv	s3,s1
40003a3a:	8ad2                	mv	s5,s4
40003a3c:	8c32                	mv	s8,a2
40003a3e:	843e                	mv	s0,a5
40003a40:	f4ec9ee3          	bne	s9,a4,4000399c <_svfprintf_r+0x16dc>
40003a44:	8aca                	mv	s5,s2
40003a46:	8f26                	mv	t5,s1
40003a48:	8ed2                	mv	t4,s4
40003a4a:	58a6                	lw	a7,104(sp)
40003a4c:	5456                	lw	s0,116(sp)
40003a4e:	5946                	lw	s2,112(sp)
40003a50:	43c6                	lw	t2,80(sp)
40003a52:	59e6                	lw	s3,120(sp)
40003a54:	5c76                	lw	s8,124(sp)
40003a56:	5496                	lw	s1,100(sp)
40003a58:	5a36                	lw	s4,108(sp)
40003a5a:	577d                	li	a4,-1
40003a5c:	3ffe06b7          	lui	a3,0x3ffe0
40003a60:	85ea                	mv	a1,s10
40003a62:	855e                	mv	a0,s7
40003a64:	d21e                	sw	t2,36(sp)
40003a66:	d046                	sw	a7,32(sp)
40003a68:	d4ba                	sw	a4,104(sp)
40003a6a:	d97a                	sw	t5,176(sp)
40003a6c:	d2fa                	sw	t5,100(sp)
40003a6e:	db76                	sw	t4,180(sp)
40003a70:	caf6                	sw	t4,84(sp)
40003a72:	dd32                	sw	a2,184(sp)
40003a74:	c8b2                	sw	a2,80(sp)
40003a76:	df3e                	sw	a5,188(sp)
40003a78:	d43e                	sw	a5,40(sp)
40003a7a:	d102                	sw	zero,160(sp)
40003a7c:	d302                	sw	zero,164(sp)
40003a7e:	d502                	sw	zero,168(sp)
40003a80:	d736                	sw	a3,172(sp)
40003a82:	46b050ef          	jal	ra,400096ec <__getf2>
40003a86:	5882                	lw	a7,32(sp)
40003a88:	5392                	lw	t2,36(sp)
40003a8a:	2ea04d63          	bgtz	a0,40003d84 <_svfprintf_r+0x1ac4>
40003a8e:	85ea                	mv	a1,s10
40003a90:	855e                	mv	a0,s7
40003a92:	3af050ef          	jal	ra,40009640 <__eqtf2>
40003a96:	5882                	lw	a7,32(sp)
40003a98:	5392                	lw	t2,36(sp)
40003a9a:	5726                	lw	a4,104(sp)
40003a9c:	e509                	bnez	a0,40003aa6 <_svfprintf_r+0x17e6>
40003a9e:	001dfd93          	andi	s11,s11,1
40003aa2:	2e0d9163          	bnez	s11,40003d84 <_svfprintf_r+0x1ac4>
40003aa6:	00170b93          	addi	s7,a4,1
40003aaa:	9bd6                	add	s7,s7,s5
40003aac:	03000693          	li	a3,48
40003ab0:	30074963          	bltz	a4,40003dc2 <_svfprintf_r+0x1b02>
40003ab4:	0a85                	addi	s5,s5,1
40003ab6:	feda8fa3          	sb	a3,-1(s5)
40003aba:	ff5b9de3          	bne	s7,s5,40003ab4 <_svfprintf_r+0x17f4>
40003abe:	418b87b3          	sub	a5,s7,s8
40003ac2:	d23e                	sw	a5,36(sp)
40003ac4:	fdf8fa93          	andi	s5,a7,-33
40003ac8:	b171                	j	40003754 <_svfprintf_r+0x1494>
40003aca:	57b2                	lw	a5,44(sp)
40003acc:	8b85                	andi	a5,a5,1
40003ace:	28079063          	bnez	a5,40003d4e <_svfprintf_r+0x1a8e>
40003ad2:	4bfe                	lw	s7,220(sp)
40003ad4:	46be                	lw	a3,204(sp)
40003ad6:	418b87b3          	sub	a5,s7,s8
40003ada:	d23e                	sw	a5,36(sp)
40003adc:	57f5                	li	a5,-3
40003ade:	d036                	sw	a3,32(sp)
40003ae0:	00f6c463          	blt	a3,a5,40003ae8 <_svfprintf_r+0x1828>
40003ae4:	02d95263          	bge	s2,a3,40003b08 <_svfprintf_r+0x1848>
40003ae8:	fff68793          	addi	a5,a3,-1 # 3ffdffff <__stack_size+0x3ffdfed3>
40003aec:	18f9                	addi	a7,a7,-2
40003aee:	c7be                	sw	a5,204(sp)
40003af0:	0ff8f713          	zext.b	a4,a7
40003af4:	4601                	li	a2,0
40003af6:	b179                	j	40003784 <_svfprintf_r+0x14c4>
40003af8:	0c714703          	lbu	a4,199(sp)
40003afc:	4901                	li	s2,0
40003afe:	c319                	beqz	a4,40003b04 <_svfprintf_r+0x1844>
40003b00:	ad5fe06f          	j	400025d4 <_svfprintf_r+0x314>
40003b04:	911fe06f          	j	40002414 <_svfprintf_r+0x154>
40003b08:	5792                	lw	a5,36(sp)
40003b0a:	1ef6c663          	blt	a3,a5,40003cf6 <_svfprintf_r+0x1a36>
40003b0e:	57b2                	lw	a5,44(sp)
40003b10:	8d36                	mv	s10,a3
40003b12:	8b85                	andi	a5,a5,1
40003b14:	c781                	beqz	a5,40003b1c <_svfprintf_r+0x185c>
40003b16:	57d2                	lw	a5,52(sp)
40003b18:	00f68d33          	add	s10,a3,a5
40003b1c:	57b2                	lw	a5,44(sp)
40003b1e:	4007f793          	andi	a5,a5,1024
40003b22:	c399                	beqz	a5,40003b28 <_svfprintf_r+0x1868>
40003b24:	30d04263          	bgtz	a3,40003e28 <_svfprintf_r+0x1b68>
40003b28:	fffd4693          	not	a3,s10
40003b2c:	4be6                	lw	s7,88(sp)
40003b2e:	86fd                	srai	a3,a3,0x1f
40003b30:	00dd7cb3          	and	s9,s10,a3
40003b34:	06700893          	li	a7,103
40003b38:	d402                	sw	zero,40(sp)
40003b3a:	d602                	sw	zero,44(sp)
40003b3c:	b1fd                	j	4000382a <_svfprintf_r+0x156a>
40003b3e:	11d0                	addi	a2,sp,228
40003b40:	85a6                	mv	a1,s1
40003b42:	854e                	mv	a0,s3
40003b44:	04c030ef          	jal	ra,40006b90 <__ssprint_r>
40003b48:	94051b63          	bnez	a0,40002c9e <_svfprintf_r+0x9de>
40003b4c:	000bc683          	lbu	a3,0(s7)
40003b50:	573e                	lw	a4,236(sp)
40003b52:	865a                	mv	a2,s6
40003b54:	9cb6                	add	s9,s9,a3
40003b56:	ee6ff06f          	j	4000323c <_svfprintf_r+0xf7c>
40003b5a:	4525                	li	a0,9
40003b5c:	819565e3          	bltu	a0,s9,40003366 <_svfprintf_r+0x10a6>
40003b60:	b0bd                	j	400033ce <_svfprintf_r+0x110e>
40003b62:	07800713          	li	a4,120
40003b66:	03000693          	li	a3,48
40003b6a:	002be793          	ori	a5,s7,2
40003b6e:	0ce104a3          	sb	a4,201(sp)
40003b72:	0cd10423          	sb	a3,200(sp)
40003b76:	06300713          	li	a4,99
40003b7a:	d63e                	sw	a5,44(sp)
40003b7c:	ca02                	sw	zero,20(sp)
40003b7e:	14c10c13          	addi	s8,sp,332
40003b82:	25274763          	blt	a4,s2,40003dd0 <_svfprintf_r+0x1b10>
40003b86:	5dfe                	lw	s11,252(sp)
40003b88:	102be793          	ori	a5,s7,258
40003b8c:	ccbe                	sw	a5,88(sp)
40003b8e:	d082                	sw	zero,96(sp)
40003b90:	5f4e                	lw	t5,240(sp)
40003b92:	5ede                	lw	t4,244(sp)
40003b94:	5e6e                	lw	t3,248(sp)
40003b96:	0a0dc363          	bltz	s11,40003c3c <_svfprintf_r+0x197c>
40003b9a:	06100793          	li	a5,97
40003b9e:	00f88463          	beq	a7,a5,40003ba6 <_svfprintf_r+0x18e6>
40003ba2:	b5bfe06f          	j	400026fc <_svfprintf_r+0x43c>
40003ba6:	0b010b93          	addi	s7,sp,176
40003baa:	855e                	mv	a0,s7
40003bac:	d2c6                	sw	a7,100(sp)
40003bae:	d97a                	sw	t5,176(sp)
40003bb0:	db76                	sw	t4,180(sp)
40003bb2:	dd72                	sw	t3,184(sp)
40003bb4:	df6e                	sw	s11,188(sp)
40003bb6:	201070ef          	jal	ra,4000b5b6 <__trunctfdf2>
40003bba:	01f0                	addi	a2,sp,204
40003bbc:	669020ef          	jal	ra,40006a24 <frexp>
40003bc0:	862e                	mv	a2,a1
40003bc2:	85aa                	mv	a1,a0
40003bc4:	855e                	mv	a0,s7
40003bc6:	081070ef          	jal	ra,4000b446 <__extenddftf2>
40003bca:	091c                	addi	a5,sp,144
40003bcc:	85be                	mv	a1,a5
40003bce:	d03e                	sw	a5,32(sp)
40003bd0:	57ca                	lw	a5,176(sp)
40003bd2:	0a010d13          	addi	s10,sp,160
40003bd6:	0110                	addi	a2,sp,128
40003bd8:	c93e                	sw	a5,144(sp)
40003bda:	57da                	lw	a5,180(sp)
40003bdc:	856a                	mv	a0,s10
40003bde:	cab2                	sw	a2,84(sp)
40003be0:	cb3e                	sw	a5,148(sp)
40003be2:	57ea                	lw	a5,184(sp)
40003be4:	c102                	sw	zero,128(sp)
40003be6:	c302                	sw	zero,132(sp)
40003be8:	cd3e                	sw	a5,152(sp)
40003bea:	57fa                	lw	a5,188(sp)
40003bec:	c502                	sw	zero,136(sp)
40003bee:	cf3e                	sw	a5,156(sp)
40003bf0:	3ffc07b7          	lui	a5,0x3ffc0
40003bf4:	c73e                	sw	a5,140(sp)
40003bf6:	51b050ef          	jal	ra,40009910 <__multf3>
40003bfa:	570a                	lw	a4,160(sp)
40003bfc:	569a                	lw	a3,164(sp)
40003bfe:	582a                	lw	a6,168(sp)
40003c00:	5e3a                	lw	t3,172(sp)
40003c02:	85ea                	mv	a1,s10
40003c04:	855e                	mv	a0,s7
40003c06:	d93a                	sw	a4,176(sp)
40003c08:	ceba                	sw	a4,92(sp)
40003c0a:	db36                	sw	a3,180(sp)
40003c0c:	c8b6                	sw	a3,80(sp)
40003c0e:	dd42                	sw	a6,184(sp)
40003c10:	d442                	sw	a6,40(sp)
40003c12:	df72                	sw	t3,188(sp)
40003c14:	d272                	sw	t3,36(sp)
40003c16:	d102                	sw	zero,160(sp)
40003c18:	d302                	sw	zero,164(sp)
40003c1a:	d502                	sw	zero,168(sp)
40003c1c:	d702                	sw	zero,172(sp)
40003c1e:	223050ef          	jal	ra,40009640 <__eqtf2>
40003c22:	5e12                	lw	t3,36(sp)
40003c24:	5822                	lw	a6,40(sp)
40003c26:	46c6                	lw	a3,80(sp)
40003c28:	4776                	lw	a4,92(sp)
40003c2a:	5896                	lw	a7,100(sp)
40003c2c:	d2050ee3          	beqz	a0,40003968 <_svfprintf_r+0x16a8>
40003c30:	800007b7          	lui	a5,0x80000
40003c34:	28c78393          	addi	t2,a5,652 # 8000028c <_bss_lma+0xfffff7ec>
40003c38:	b391                	j	4000397c <_svfprintf_r+0x16bc>
40003c3a:	ca02                	sw	zero,20(sp)
40003c3c:	800007b7          	lui	a5,0x80000
40003c40:	01b7cdb3          	xor	s11,a5,s11
40003c44:	02d00793          	li	a5,45
40003c48:	d0be                	sw	a5,96(sp)
40003c4a:	bf81                	j	40003b9a <_svfprintf_r+0x18da>
40003c4c:	45a2                	lw	a1,8(sp)
40003c4e:	11d0                	addi	a2,sp,228
40003c50:	854e                	mv	a0,s3
40003c52:	73f020ef          	jal	ra,40006b90 <__ssprint_r>
40003c56:	c119                	beqz	a0,40003c5c <_svfprintf_r+0x199c>
40003c58:	846ff06f          	j	40002c9e <_svfprintf_r+0x9de>
40003c5c:	463e                	lw	a2,204(sp)
40003c5e:	573e                	lw	a4,236(sp)
40003c60:	845a                	mv	s0,s6
40003c62:	9faff06f          	j	40002e5c <_svfprintf_r+0xb9c>
40003c66:	02d00713          	li	a4,45
40003c6a:	0ce103a3          	sb	a4,199(sp)
40003c6e:	869ff06f          	j	400034d6 <_svfprintf_r+0x1216>
40003c72:	0c714703          	lbu	a4,199(sp)
40003c76:	cc56                	sw	s5,24(sp)
40003c78:	d402                	sw	zero,40(sp)
40003c7a:	d602                	sw	zero,44(sp)
40003c7c:	d002                	sw	zero,32(sp)
40003c7e:	8cca                	mv	s9,s2
40003c80:	8d4a                	mv	s10,s2
40003c82:	4901                	li	s2,0
40003c84:	c319                	beqz	a4,40003c8a <_svfprintf_r+0x19ca>
40003c86:	94ffe06f          	j	400025d4 <_svfprintf_r+0x314>
40003c8a:	f8afe06f          	j	40002414 <_svfprintf_r+0x154>
40003c8e:	45a2                	lw	a1,8(sp)
40003c90:	11d0                	addi	a2,sp,228
40003c92:	854e                	mv	a0,s3
40003c94:	6fd020ef          	jal	ra,40006b90 <__ssprint_r>
40003c98:	c119                	beqz	a0,40003c9e <_svfprintf_r+0x19de>
40003c9a:	804ff06f          	j	40002c9e <_svfprintf_r+0x9de>
40003c9e:	463e                	lw	a2,204(sp)
40003ca0:	5792                	lw	a5,36(sp)
40003ca2:	573e                	lw	a4,236(sp)
40003ca4:	845a                	mv	s0,s6
40003ca6:	40c78633          	sub	a2,a5,a2
40003caa:	9e2ff06f          	j	40002e8c <_svfprintf_r+0xbcc>
40003cae:	800002b7          	lui	t0,0x80000
40003cb2:	28428c13          	addi	s8,t0,644 # 80000284 <_bss_lma+0xfffff7e4>
40003cb6:	831ff06f          	j	400034e6 <_svfprintf_r+0x1226>
40003cba:	05800713          	li	a4,88
40003cbe:	b565                	j	40003b66 <_svfprintf_r+0x18a6>
40003cc0:	57b2                	lw	a5,44(sp)
40003cc2:	5702                	lw	a4,32(sp)
40003cc4:	8b85                	andi	a5,a5,1
40003cc6:	0127e7b3          	or	a5,a5,s2
40003cca:	1ee05663          	blez	a4,40003eb6 <_svfprintf_r+0x1bf6>
40003cce:	1a079963          	bnez	a5,40003e80 <_svfprintf_r+0x1bc0>
40003cd2:	5d02                	lw	s10,32(sp)
40003cd4:	06600893          	li	a7,102
40003cd8:	57b2                	lw	a5,44(sp)
40003cda:	4007f793          	andi	a5,a5,1024
40003cde:	14079763          	bnez	a5,40003e2c <_svfprintf_r+0x1b6c>
40003ce2:	fffd4693          	not	a3,s10
40003ce6:	86fd                	srai	a3,a3,0x1f
40003ce8:	4be6                	lw	s7,88(sp)
40003cea:	00dd7cb3          	and	s9,s10,a3
40003cee:	b5a9                	j	40003b38 <_svfprintf_r+0x1878>
40003cf0:	8dde                	mv	s11,s7
40003cf2:	8bbfe06f          	j	400025ac <_svfprintf_r+0x2ec>
40003cf6:	5792                	lw	a5,36(sp)
40003cf8:	5752                	lw	a4,52(sp)
40003cfa:	06700893          	li	a7,103
40003cfe:	00e78d33          	add	s10,a5,a4
40003d02:	5782                	lw	a5,32(sp)
40003d04:	fcf04ae3          	bgtz	a5,40003cd8 <_svfprintf_r+0x1a18>
40003d08:	40fd0e33          	sub	t3,s10,a5
40003d0c:	001e0d13          	addi	s10,t3,1
40003d10:	fffd4693          	not	a3,s10
40003d14:	86fd                	srai	a3,a3,0x1f
40003d16:	4be6                	lw	s7,88(sp)
40003d18:	00dd7cb3          	and	s9,s10,a3
40003d1c:	bd31                	j	40003b38 <_svfprintf_r+0x1878>
40003d1e:	974a                	add	a4,a4,s2
40003d20:	0605                	addi	a2,a2,1
40003d22:	01542023          	sw	s5,0(s0)
40003d26:	01242223          	sw	s2,4(s0)
40003d2a:	d7ba                	sw	a4,236(sp)
40003d2c:	d5b2                	sw	a2,232(sp)
40003d2e:	459d                	li	a1,7
40003d30:	eec5dd63          	bge	a1,a2,4000342a <_svfprintf_r+0x116a>
40003d34:	45a2                	lw	a1,8(sp)
40003d36:	11d0                	addi	a2,sp,228
40003d38:	854e                	mv	a0,s3
40003d3a:	657020ef          	jal	ra,40006b90 <__ssprint_r>
40003d3e:	c119                	beqz	a0,40003d44 <_svfprintf_r+0x1a84>
40003d40:	f5ffe06f          	j	40002c9e <_svfprintf_r+0x9de>
40003d44:	573e                	lw	a4,236(sp)
40003d46:	562e                	lw	a2,232(sp)
40003d48:	845a                	mv	s0,s6
40003d4a:	ee2ff06f          	j	4000342c <_svfprintf_r+0x116c>
40003d4e:	00dc0cb3          	add	s9,s8,a3
40003d52:	04700a93          	li	s5,71
40003d56:	0a010d13          	addi	s10,sp,160
40003d5a:	ba6d                	j	40003714 <_svfprintf_r+0x1454>
40003d5c:	0d610713          	addi	a4,sp,214
40003d60:	e619                	bnez	a2,40003d6e <_svfprintf_r+0x1aae>
40003d62:	03000713          	li	a4,48
40003d66:	0ce10b23          	sb	a4,214(sp)
40003d6a:	0d710713          	addi	a4,sp,215
40003d6e:	1b14                	addi	a3,sp,432
40003d70:	03078793          	addi	a5,a5,48 # 80000030 <_bss_lma+0xfffff590>
40003d74:	40d706b3          	sub	a3,a4,a3
40003d78:	00f70023          	sb	a5,0(a4)
40003d7c:	0dd68793          	addi	a5,a3,221
40003d80:	c2be                	sw	a5,68(sp)
40003d82:	bcb5                	j	400037fe <_svfprintf_r+0x153e>
40003d84:	47f6                	lw	a5,92(sp)
40003d86:	00f3c603          	lbu	a2,15(t2)
40003d8a:	8756                	mv	a4,s5
40003d8c:	cfbe                	sw	a5,220(sp)
40003d8e:	fffac683          	lbu	a3,-1(s5)
40003d92:	00c69e63          	bne	a3,a2,40003dae <_svfprintf_r+0x1aee>
40003d96:	03000593          	li	a1,48
40003d9a:	feb70fa3          	sb	a1,-1(a4)
40003d9e:	477e                	lw	a4,220(sp)
40003da0:	fff70793          	addi	a5,a4,-1
40003da4:	cfbe                	sw	a5,220(sp)
40003da6:	fff74683          	lbu	a3,-1(a4)
40003daa:	fed608e3          	beq	a2,a3,40003d9a <_svfprintf_r+0x1ada>
40003dae:	00168613          	addi	a2,a3,1
40003db2:	03900593          	li	a1,57
40003db6:	0ff67613          	zext.b	a2,a2
40003dba:	00b68663          	beq	a3,a1,40003dc6 <_svfprintf_r+0x1b06>
40003dbe:	fec70fa3          	sb	a2,-1(a4)
40003dc2:	8bd6                	mv	s7,s5
40003dc4:	b9ed                	j	40003abe <_svfprintf_r+0x17fe>
40003dc6:	00a3c603          	lbu	a2,10(t2)
40003dca:	fec70fa3          	sb	a2,-1(a4)
40003dce:	bfd5                	j	40003dc2 <_svfprintf_r+0x1b02>
40003dd0:	00190593          	addi	a1,s2,1
40003dd4:	854e                	mv	a0,s3
40003dd6:	ca46                	sw	a7,20(sp)
40003dd8:	530020ef          	jal	ra,40006308 <_malloc_r>
40003ddc:	48d2                	lw	a7,20(sp)
40003dde:	8c2a                	mv	s8,a0
40003de0:	10050363          	beqz	a0,40003ee6 <_svfprintf_r+0x1c26>
40003de4:	ca2a                	sw	a0,20(sp)
40003de6:	b345                	j	40003b86 <_svfprintf_r+0x18c6>
40003de8:	57b2                	lw	a5,44(sp)
40003dea:	8b85                	andi	a5,a5,1
40003dec:	a20782e3          	beqz	a5,40003810 <_svfprintf_r+0x1550>
40003df0:	bc31                	j	4000380c <_svfprintf_r+0x154c>
40003df2:	8aca                	mv	s5,s2
40003df4:	8f26                	mv	t5,s1
40003df6:	8ed2                	mv	t4,s4
40003df8:	58a6                	lw	a7,104(sp)
40003dfa:	5456                	lw	s0,116(sp)
40003dfc:	5946                	lw	s2,112(sp)
40003dfe:	43c6                	lw	t2,80(sp)
40003e00:	59e6                	lw	s3,120(sp)
40003e02:	5c76                	lw	s8,124(sp)
40003e04:	5496                	lw	s1,100(sp)
40003e06:	5a36                	lw	s4,108(sp)
40003e08:	8766                	mv	a4,s9
40003e0a:	b989                	j	40003a5c <_svfprintf_r+0x179c>
40003e0c:	5742                	lw	a4,48(sp)
40003e0e:	47b1                	li	a5,12
40003e10:	c31c                	sw	a5,0(a4)
40003e12:	57fd                	li	a5,-1
40003e14:	c83e                	sw	a5,16(sp)
40003e16:	ee2fe06f          	j	400024f8 <_svfprintf_r+0x238>
40003e1a:	00090463          	beqz	s2,40003e22 <_svfprintf_r+0x1b62>
40003e1e:	8c3fe06f          	j	400026e0 <_svfprintf_r+0x420>
40003e22:	4905                	li	s2,1
40003e24:	8bdfe06f          	j	400026e0 <_svfprintf_r+0x420>
40003e28:	06700893          	li	a7,103
40003e2c:	4606                	lw	a2,64(sp)
40003e2e:	0ff00713          	li	a4,255
40003e32:	00064783          	lbu	a5,0(a2)
40003e36:	0ae78563          	beq	a5,a4,40003ee0 <_svfprintf_r+0x1c20>
40003e3a:	5682                	lw	a3,32(sp)
40003e3c:	4581                	li	a1,0
40003e3e:	4501                	li	a0,0
40003e40:	00d7da63          	bge	a5,a3,40003e54 <_svfprintf_r+0x1b94>
40003e44:	8e9d                	sub	a3,a3,a5
40003e46:	00164783          	lbu	a5,1(a2)
40003e4a:	c79d                	beqz	a5,40003e78 <_svfprintf_r+0x1bb8>
40003e4c:	0505                	addi	a0,a0,1
40003e4e:	0605                	addi	a2,a2,1
40003e50:	fee798e3          	bne	a5,a4,40003e40 <_svfprintf_r+0x1b80>
40003e54:	c0b2                	sw	a2,64(sp)
40003e56:	d42e                	sw	a1,40(sp)
40003e58:	d036                	sw	a3,32(sp)
40003e5a:	d62a                	sw	a0,44(sp)
40003e5c:	57a2                	lw	a5,40(sp)
40003e5e:	5732                	lw	a4,44(sp)
40003e60:	4be6                	lw	s7,88(sp)
40003e62:	973e                	add	a4,a4,a5
40003e64:	47b6                	lw	a5,76(sp)
40003e66:	02f70733          	mul	a4,a4,a5
40003e6a:	9d3a                	add	s10,s10,a4
40003e6c:	fffd4693          	not	a3,s10
40003e70:	86fd                	srai	a3,a3,0x1f
40003e72:	00dd7cb3          	and	s9,s10,a3
40003e76:	ba55                	j	4000382a <_svfprintf_r+0x156a>
40003e78:	00064783          	lbu	a5,0(a2)
40003e7c:	0585                	addi	a1,a1,1
40003e7e:	bfc9                	j	40003e50 <_svfprintf_r+0x1b90>
40003e80:	57d2                	lw	a5,52(sp)
40003e82:	06600893          	li	a7,102
40003e86:	00f70e33          	add	t3,a4,a5
40003e8a:	012e0d33          	add	s10,t3,s2
40003e8e:	b5a9                	j	40003cd8 <_svfprintf_r+0x1a18>
40003e90:	07000713          	li	a4,112
40003e94:	b0fd                	j	40003782 <_svfprintf_r+0x14c2>
40003e96:	4789                	li	a5,2
40003e98:	c2be                	sw	a5,68(sp)
40003e9a:	b295                	j	400037fe <_svfprintf_r+0x153e>
40003e9c:	47e2                	lw	a5,24(sp)
40003e9e:	0007a903          	lw	s2,0(a5)
40003ea2:	0791                	addi	a5,a5,4
40003ea4:	00095363          	bgez	s2,40003eaa <_svfprintf_r+0x1bea>
40003ea8:	597d                	li	s2,-1
40003eaa:	0014c883          	lbu	a7,1(s1)
40003eae:	cc3e                	sw	a5,24(sp)
40003eb0:	84ba                	mv	s1,a4
40003eb2:	d08fe06f          	j	400023ba <_svfprintf_r+0xfa>
40003eb6:	e799                	bnez	a5,40003ec4 <_svfprintf_r+0x1c04>
40003eb8:	4be6                	lw	s7,88(sp)
40003eba:	4c85                	li	s9,1
40003ebc:	06600893          	li	a7,102
40003ec0:	4d05                	li	s10,1
40003ec2:	b99d                	j	40003b38 <_svfprintf_r+0x1878>
40003ec4:	57d2                	lw	a5,52(sp)
40003ec6:	4be6                	lw	s7,88(sp)
40003ec8:	06600893          	li	a7,102
40003ecc:	00178e13          	addi	t3,a5,1
40003ed0:	012e0d33          	add	s10,t3,s2
40003ed4:	fffd4693          	not	a3,s10
40003ed8:	86fd                	srai	a3,a3,0x1f
40003eda:	00dd7cb3          	and	s9,s10,a3
40003ede:	b9a9                	j	40003b38 <_svfprintf_r+0x1878>
40003ee0:	d402                	sw	zero,40(sp)
40003ee2:	d602                	sw	zero,44(sp)
40003ee4:	bfa5                	j	40003e5c <_svfprintf_r+0x1b9c>
40003ee6:	4722                	lw	a4,8(sp)
40003ee8:	00c75783          	lhu	a5,12(a4)
40003eec:	0407e793          	ori	a5,a5,64
40003ef0:	00f71623          	sh	a5,12(a4)
40003ef4:	df4fe06f          	j	400024e8 <_svfprintf_r+0x228>

40003ef8 <_malloc_trim_r>:
40003ef8:	1101                	addi	sp,sp,-32
40003efa:	c64e                	sw	s3,12(sp)
40003efc:	4000c9b7          	lui	s3,0x4000c
40003f00:	cc22                	sw	s0,24(sp)
40003f02:	ca26                	sw	s1,20(sp)
40003f04:	c84a                	sw	s2,16(sp)
40003f06:	c452                	sw	s4,8(sp)
40003f08:	ce06                	sw	ra,28(sp)
40003f0a:	8a2e                	mv	s4,a1
40003f0c:	892a                	mv	s2,a0
40003f0e:	d9c98993          	addi	s3,s3,-612 # 4000bd9c <__malloc_av_>
40003f12:	261020ef          	jal	ra,40006972 <__malloc_lock>
40003f16:	0089a703          	lw	a4,8(s3)
40003f1a:	6785                	lui	a5,0x1
40003f1c:	fef78413          	addi	s0,a5,-17 # fef <__stack_size+0xec3>
40003f20:	4344                	lw	s1,4(a4)
40003f22:	98f1                	andi	s1,s1,-4
40003f24:	9426                	add	s0,s0,s1
40003f26:	41440433          	sub	s0,s0,s4
40003f2a:	8031                	srli	s0,s0,0xc
40003f2c:	147d                	addi	s0,s0,-1
40003f2e:	0432                	slli	s0,s0,0xc
40003f30:	00f44b63          	blt	s0,a5,40003f46 <_malloc_trim_r+0x4e>
40003f34:	4581                	li	a1,0
40003f36:	854a                	mv	a0,s2
40003f38:	2b3020ef          	jal	ra,400069ea <_sbrk_r>
40003f3c:	0089a783          	lw	a5,8(s3)
40003f40:	97a6                	add	a5,a5,s1
40003f42:	00f50e63          	beq	a0,a5,40003f5e <_malloc_trim_r+0x66>
40003f46:	854a                	mv	a0,s2
40003f48:	22d020ef          	jal	ra,40006974 <__malloc_unlock>
40003f4c:	40f2                	lw	ra,28(sp)
40003f4e:	4462                	lw	s0,24(sp)
40003f50:	44d2                	lw	s1,20(sp)
40003f52:	4942                	lw	s2,16(sp)
40003f54:	49b2                	lw	s3,12(sp)
40003f56:	4a22                	lw	s4,8(sp)
40003f58:	4501                	li	a0,0
40003f5a:	6105                	addi	sp,sp,32
40003f5c:	8082                	ret
40003f5e:	408005b3          	neg	a1,s0
40003f62:	854a                	mv	a0,s2
40003f64:	287020ef          	jal	ra,400069ea <_sbrk_r>
40003f68:	57fd                	li	a5,-1
40003f6a:	02f50b63          	beq	a0,a5,40003fa0 <_malloc_trim_r+0xa8>
40003f6e:	4001e7b7          	lui	a5,0x4001e
40003f72:	fb078793          	addi	a5,a5,-80 # 4001dfb0 <__malloc_current_mallinfo>
40003f76:	4398                	lw	a4,0(a5)
40003f78:	0089a683          	lw	a3,8(s3)
40003f7c:	8c81                	sub	s1,s1,s0
40003f7e:	0014e493          	ori	s1,s1,1
40003f82:	8f01                	sub	a4,a4,s0
40003f84:	854a                	mv	a0,s2
40003f86:	c2c4                	sw	s1,4(a3)
40003f88:	c398                	sw	a4,0(a5)
40003f8a:	1eb020ef          	jal	ra,40006974 <__malloc_unlock>
40003f8e:	40f2                	lw	ra,28(sp)
40003f90:	4462                	lw	s0,24(sp)
40003f92:	44d2                	lw	s1,20(sp)
40003f94:	4942                	lw	s2,16(sp)
40003f96:	49b2                	lw	s3,12(sp)
40003f98:	4a22                	lw	s4,8(sp)
40003f9a:	4505                	li	a0,1
40003f9c:	6105                	addi	sp,sp,32
40003f9e:	8082                	ret
40003fa0:	4581                	li	a1,0
40003fa2:	854a                	mv	a0,s2
40003fa4:	247020ef          	jal	ra,400069ea <_sbrk_r>
40003fa8:	0089a703          	lw	a4,8(s3)
40003fac:	46bd                	li	a3,15
40003fae:	40e507b3          	sub	a5,a0,a4
40003fb2:	f8f6dae3          	bge	a3,a5,40003f46 <_malloc_trim_r+0x4e>
40003fb6:	8101a683          	lw	a3,-2032(gp) # 4000c1b8 <__malloc_sbrk_base>
40003fba:	0017e793          	ori	a5,a5,1
40003fbe:	c35c                	sw	a5,4(a4)
40003fc0:	8d15                	sub	a0,a0,a3
40003fc2:	4001e6b7          	lui	a3,0x4001e
40003fc6:	faa6a823          	sw	a0,-80(a3) # 4001dfb0 <__malloc_current_mallinfo>
40003fca:	bfb5                	j	40003f46 <_malloc_trim_r+0x4e>

40003fcc <_free_r>:
40003fcc:	10058e63          	beqz	a1,400040e8 <_free_r+0x11c>
40003fd0:	1141                	addi	sp,sp,-16
40003fd2:	c422                	sw	s0,8(sp)
40003fd4:	c226                	sw	s1,4(sp)
40003fd6:	842e                	mv	s0,a1
40003fd8:	84aa                	mv	s1,a0
40003fda:	c606                	sw	ra,12(sp)
40003fdc:	197020ef          	jal	ra,40006972 <__malloc_lock>
40003fe0:	ffc42503          	lw	a0,-4(s0)
40003fe4:	ff840713          	addi	a4,s0,-8
40003fe8:	4000c5b7          	lui	a1,0x4000c
40003fec:	ffe57793          	andi	a5,a0,-2
40003ff0:	00f70633          	add	a2,a4,a5
40003ff4:	d9c58593          	addi	a1,a1,-612 # 4000bd9c <__malloc_av_>
40003ff8:	4254                	lw	a3,4(a2)
40003ffa:	0085a803          	lw	a6,8(a1)
40003ffe:	9af1                	andi	a3,a3,-4
40004000:	12c80763          	beq	a6,a2,4000412e <_free_r+0x162>
40004004:	c254                	sw	a3,4(a2)
40004006:	8905                	andi	a0,a0,1
40004008:	00d60833          	add	a6,a2,a3
4000400c:	ed25                	bnez	a0,40004084 <_free_r+0xb8>
4000400e:	ff842303          	lw	t1,-8(s0)
40004012:	00482803          	lw	a6,4(a6)
40004016:	4000c537          	lui	a0,0x4000c
4000401a:	40670733          	sub	a4,a4,t1
4000401e:	00872883          	lw	a7,8(a4)
40004022:	da450513          	addi	a0,a0,-604 # 4000bda4 <__malloc_av_+0x8>
40004026:	979a                	add	a5,a5,t1
40004028:	00187813          	andi	a6,a6,1
4000402c:	0ea88463          	beq	a7,a0,40004114 <_free_r+0x148>
40004030:	00c72303          	lw	t1,12(a4)
40004034:	0068a623          	sw	t1,12(a7)
40004038:	01132423          	sw	a7,8(t1) # 80000008 <_bss_lma+0xfffff568>
4000403c:	12080463          	beqz	a6,40004164 <_free_r+0x198>
40004040:	0017e693          	ori	a3,a5,1
40004044:	c354                	sw	a3,4(a4)
40004046:	c21c                	sw	a5,0(a2)
40004048:	1ff00693          	li	a3,511
4000404c:	04f6e963          	bltu	a3,a5,4000409e <_free_r+0xd2>
40004050:	ff87f693          	andi	a3,a5,-8
40004054:	06a1                	addi	a3,a3,8
40004056:	41c8                	lw	a0,4(a1)
40004058:	96ae                	add	a3,a3,a1
4000405a:	4290                	lw	a2,0(a3)
4000405c:	0057d813          	srli	a6,a5,0x5
40004060:	4785                	li	a5,1
40004062:	010797b3          	sll	a5,a5,a6
40004066:	8fc9                	or	a5,a5,a0
40004068:	ff868513          	addi	a0,a3,-8
4000406c:	c748                	sw	a0,12(a4)
4000406e:	c710                	sw	a2,8(a4)
40004070:	c1dc                	sw	a5,4(a1)
40004072:	c298                	sw	a4,0(a3)
40004074:	c658                	sw	a4,12(a2)
40004076:	4422                	lw	s0,8(sp)
40004078:	40b2                	lw	ra,12(sp)
4000407a:	8526                	mv	a0,s1
4000407c:	4492                	lw	s1,4(sp)
4000407e:	0141                	addi	sp,sp,16
40004080:	0f50206f          	j	40006974 <__malloc_unlock>
40004084:	00482503          	lw	a0,4(a6)
40004088:	8905                	andi	a0,a0,1
4000408a:	c125                	beqz	a0,400040ea <_free_r+0x11e>
4000408c:	0017e693          	ori	a3,a5,1
40004090:	fed42e23          	sw	a3,-4(s0)
40004094:	c21c                	sw	a5,0(a2)
40004096:	1ff00693          	li	a3,511
4000409a:	faf6fbe3          	bgeu	a3,a5,40004050 <_free_r+0x84>
4000409e:	0097d693          	srli	a3,a5,0x9
400040a2:	4611                	li	a2,4
400040a4:	0cd66263          	bltu	a2,a3,40004168 <_free_r+0x19c>
400040a8:	0067d693          	srli	a3,a5,0x6
400040ac:	03968513          	addi	a0,a3,57
400040b0:	03868613          	addi	a2,a3,56
400040b4:	050e                	slli	a0,a0,0x3
400040b6:	952e                	add	a0,a0,a1
400040b8:	4114                	lw	a3,0(a0)
400040ba:	1561                	addi	a0,a0,-8
400040bc:	00d51663          	bne	a0,a3,400040c8 <_free_r+0xfc>
400040c0:	a0dd                	j	400041a6 <_free_r+0x1da>
400040c2:	4694                	lw	a3,8(a3)
400040c4:	00d50663          	beq	a0,a3,400040d0 <_free_r+0x104>
400040c8:	42d0                	lw	a2,4(a3)
400040ca:	9a71                	andi	a2,a2,-4
400040cc:	fec7ebe3          	bltu	a5,a2,400040c2 <_free_r+0xf6>
400040d0:	46c8                	lw	a0,12(a3)
400040d2:	c748                	sw	a0,12(a4)
400040d4:	c714                	sw	a3,8(a4)
400040d6:	4422                	lw	s0,8(sp)
400040d8:	c518                	sw	a4,8(a0)
400040da:	40b2                	lw	ra,12(sp)
400040dc:	8526                	mv	a0,s1
400040de:	4492                	lw	s1,4(sp)
400040e0:	c6d8                	sw	a4,12(a3)
400040e2:	0141                	addi	sp,sp,16
400040e4:	0910206f          	j	40006974 <__malloc_unlock>
400040e8:	8082                	ret
400040ea:	4000c537          	lui	a0,0x4000c
400040ee:	97b6                	add	a5,a5,a3
400040f0:	da450513          	addi	a0,a0,-604 # 4000bda4 <__malloc_av_+0x8>
400040f4:	4614                	lw	a3,8(a2)
400040f6:	08a68e63          	beq	a3,a0,40004192 <_free_r+0x1c6>
400040fa:	00c62803          	lw	a6,12(a2)
400040fe:	0017e513          	ori	a0,a5,1
40004102:	00f70633          	add	a2,a4,a5
40004106:	0106a623          	sw	a6,12(a3)
4000410a:	00d82423          	sw	a3,8(a6)
4000410e:	c348                	sw	a0,4(a4)
40004110:	c21c                	sw	a5,0(a2)
40004112:	bf1d                	j	40004048 <_free_r+0x7c>
40004114:	0e081063          	bnez	a6,400041f4 <_free_r+0x228>
40004118:	460c                	lw	a1,8(a2)
4000411a:	4650                	lw	a2,12(a2)
4000411c:	96be                	add	a3,a3,a5
4000411e:	0016e793          	ori	a5,a3,1
40004122:	c5d0                	sw	a2,12(a1)
40004124:	c60c                	sw	a1,8(a2)
40004126:	c35c                	sw	a5,4(a4)
40004128:	9736                	add	a4,a4,a3
4000412a:	c314                	sw	a3,0(a4)
4000412c:	b7a9                	j	40004076 <_free_r+0xaa>
4000412e:	8905                	andi	a0,a0,1
40004130:	96be                	add	a3,a3,a5
40004132:	e909                	bnez	a0,40004144 <_free_r+0x178>
40004134:	ff842503          	lw	a0,-8(s0)
40004138:	8f09                	sub	a4,a4,a0
4000413a:	475c                	lw	a5,12(a4)
4000413c:	4710                	lw	a2,8(a4)
4000413e:	96aa                	add	a3,a3,a0
40004140:	c65c                	sw	a5,12(a2)
40004142:	c790                	sw	a2,8(a5)
40004144:	0016e613          	ori	a2,a3,1
40004148:	8141a783          	lw	a5,-2028(gp) # 4000c1bc <__malloc_trim_threshold>
4000414c:	c350                	sw	a2,4(a4)
4000414e:	c598                	sw	a4,8(a1)
40004150:	f2f6e3e3          	bltu	a3,a5,40004076 <_free_r+0xaa>
40004154:	4000c7b7          	lui	a5,0x4000c
40004158:	24c7a583          	lw	a1,588(a5) # 4000c24c <__malloc_top_pad>
4000415c:	8526                	mv	a0,s1
4000415e:	d9bff0ef          	jal	ra,40003ef8 <_malloc_trim_r>
40004162:	bf11                	j	40004076 <_free_r+0xaa>
40004164:	97b6                	add	a5,a5,a3
40004166:	b779                	j	400040f4 <_free_r+0x128>
40004168:	4651                	li	a2,20
4000416a:	00d67e63          	bgeu	a2,a3,40004186 <_free_r+0x1ba>
4000416e:	05400613          	li	a2,84
40004172:	04d66463          	bltu	a2,a3,400041ba <_free_r+0x1ee>
40004176:	00c7d693          	srli	a3,a5,0xc
4000417a:	06f68513          	addi	a0,a3,111
4000417e:	06e68613          	addi	a2,a3,110
40004182:	050e                	slli	a0,a0,0x3
40004184:	bf0d                	j	400040b6 <_free_r+0xea>
40004186:	05c68513          	addi	a0,a3,92
4000418a:	05b68613          	addi	a2,a3,91
4000418e:	050e                	slli	a0,a0,0x3
40004190:	b71d                	j	400040b6 <_free_r+0xea>
40004192:	c9d8                	sw	a4,20(a1)
40004194:	c998                	sw	a4,16(a1)
40004196:	0017e693          	ori	a3,a5,1
4000419a:	c748                	sw	a0,12(a4)
4000419c:	c708                	sw	a0,8(a4)
4000419e:	c354                	sw	a3,4(a4)
400041a0:	973e                	add	a4,a4,a5
400041a2:	c31c                	sw	a5,0(a4)
400041a4:	bdc9                	j	40004076 <_free_r+0xaa>
400041a6:	0045a803          	lw	a6,4(a1)
400041aa:	8609                	srai	a2,a2,0x2
400041ac:	4785                	li	a5,1
400041ae:	00c797b3          	sll	a5,a5,a2
400041b2:	0107e7b3          	or	a5,a5,a6
400041b6:	c1dc                	sw	a5,4(a1)
400041b8:	bf29                	j	400040d2 <_free_r+0x106>
400041ba:	15400613          	li	a2,340
400041be:	00d66a63          	bltu	a2,a3,400041d2 <_free_r+0x206>
400041c2:	00f7d693          	srli	a3,a5,0xf
400041c6:	07868513          	addi	a0,a3,120
400041ca:	07768613          	addi	a2,a3,119
400041ce:	050e                	slli	a0,a0,0x3
400041d0:	b5dd                	j	400040b6 <_free_r+0xea>
400041d2:	55400613          	li	a2,1364
400041d6:	00d66a63          	bltu	a2,a3,400041ea <_free_r+0x21e>
400041da:	0127d693          	srli	a3,a5,0x12
400041de:	07d68513          	addi	a0,a3,125
400041e2:	07c68613          	addi	a2,a3,124
400041e6:	050e                	slli	a0,a0,0x3
400041e8:	b5f9                	j	400040b6 <_free_r+0xea>
400041ea:	3f800513          	li	a0,1016
400041ee:	07e00613          	li	a2,126
400041f2:	b5d1                	j	400040b6 <_free_r+0xea>
400041f4:	0017e693          	ori	a3,a5,1
400041f8:	c354                	sw	a3,4(a4)
400041fa:	c21c                	sw	a5,0(a2)
400041fc:	bdad                	j	40004076 <_free_r+0xaa>

400041fe <eshdn1>:
400041fe:	00450693          	addi	a3,a0,4
40004202:	4701                	li	a4,0
40004204:	0569                	addi	a0,a0,26
40004206:	7861                	lui	a6,0xffff8
40004208:	0006d783          	lhu	a5,0(a3)
4000420c:	0017f613          	andi	a2,a5,1
40004210:	c219                	beqz	a2,40004216 <eshdn1+0x18>
40004212:	00176713          	ori	a4,a4,1
40004216:	00277613          	andi	a2,a4,2
4000421a:	8385                	srli	a5,a5,0x1
4000421c:	0706                	slli	a4,a4,0x1
4000421e:	0107e5b3          	or	a1,a5,a6
40004222:	c601                	beqz	a2,4000422a <eshdn1+0x2c>
40004224:	01059793          	slli	a5,a1,0x10
40004228:	83c1                	srli	a5,a5,0x10
4000422a:	00f69023          	sh	a5,0(a3)
4000422e:	0742                	slli	a4,a4,0x10
40004230:	0689                	addi	a3,a3,2
40004232:	8341                	srli	a4,a4,0x10
40004234:	fcd51ae3          	bne	a0,a3,40004208 <eshdn1+0xa>
40004238:	8082                	ret

4000423a <eshup1>:
4000423a:	01850693          	addi	a3,a0,24
4000423e:	4701                	li	a4,0
40004240:	0509                	addi	a0,a0,2
40004242:	0006d783          	lhu	a5,0(a3)
40004246:	01079613          	slli	a2,a5,0x10
4000424a:	8641                	srai	a2,a2,0x10
4000424c:	0786                	slli	a5,a5,0x1
4000424e:	00065463          	bgez	a2,40004256 <eshup1+0x1c>
40004252:	00176713          	ori	a4,a4,1
40004256:	00277613          	andi	a2,a4,2
4000425a:	07c2                	slli	a5,a5,0x10
4000425c:	0706                	slli	a4,a4,0x1
4000425e:	83c1                	srli	a5,a5,0x10
40004260:	c219                	beqz	a2,40004266 <eshup1+0x2c>
40004262:	0017e793          	ori	a5,a5,1
40004266:	00f69023          	sh	a5,0(a3)
4000426a:	0742                	slli	a4,a4,0x10
4000426c:	16f9                	addi	a3,a3,-2
4000426e:	8341                	srli	a4,a4,0x10
40004270:	fcd519e3          	bne	a0,a3,40004242 <eshup1+0x8>
40004274:	8082                	ret

40004276 <m16m>:
40004276:	1101                	addi	sp,sp,-32
40004278:	6e41                	lui	t3,0x10
4000427a:	00011d23          	sh	zero,26(sp)
4000427e:	00011e23          	sh	zero,28(sp)
40004282:	05e1                	addi	a1,a1,24
40004284:	087c                	addi	a5,sp,28
40004286:	00810813          	addi	a6,sp,8
4000428a:	1e7d                	addi	t3,t3,-1 # ffff <__stack_size+0xfed3>
4000428c:	0005d703          	lhu	a4,0(a1)
40004290:	17f9                	addi	a5,a5,-2
40004292:	15f9                	addi	a1,a1,-2
40004294:	c705                	beqz	a4,400042bc <m16m+0x46>
40004296:	02a70733          	mul	a4,a4,a0
4000429a:	0027d883          	lhu	a7,2(a5)
4000429e:	0007d303          	lhu	t1,0(a5)
400042a2:	01c776b3          	and	a3,a4,t3
400042a6:	96c6                	add	a3,a3,a7
400042a8:	8341                	srli	a4,a4,0x10
400042aa:	0106d893          	srli	a7,a3,0x10
400042ae:	971a                	add	a4,a4,t1
400042b0:	9746                	add	a4,a4,a7
400042b2:	00e79023          	sh	a4,0(a5)
400042b6:	00d79123          	sh	a3,2(a5)
400042ba:	8341                	srli	a4,a4,0x10
400042bc:	fee79f23          	sh	a4,-2(a5)
400042c0:	fd0796e3          	bne	a5,a6,4000428c <m16m+0x16>
400042c4:	0611                	addi	a2,a2,4
400042c6:	01e10693          	addi	a3,sp,30
400042ca:	0007d703          	lhu	a4,0(a5)
400042ce:	0789                	addi	a5,a5,2
400042d0:	0609                	addi	a2,a2,2
400042d2:	fee61f23          	sh	a4,-2(a2)
400042d6:	fed79ae3          	bne	a5,a3,400042ca <m16m+0x54>
400042da:	6105                	addi	sp,sp,32
400042dc:	8082                	ret

400042de <emovo.constprop.0>:
400042de:	00055703          	lhu	a4,0(a0)
400042e2:	00255783          	lhu	a5,2(a0)
400042e6:	c319                	beqz	a4,400042ec <emovo.constprop.0+0xe>
400042e8:	6721                	lui	a4,0x8
400042ea:	8fd9                	or	a5,a5,a4
400042ec:	00f59923          	sh	a5,18(a1)
400042f0:	00255703          	lhu	a4,2(a0)
400042f4:	67a1                	lui	a5,0x8
400042f6:	17fd                	addi	a5,a5,-1 # 7fff <__stack_size+0x7ed3>
400042f8:	00f70f63          	beq	a4,a5,40004316 <emovo.constprop.0+0x38>
400042fc:	00650793          	addi	a5,a0,6
40004300:	05c1                	addi	a1,a1,16
40004302:	0561                	addi	a0,a0,24
40004304:	0007d703          	lhu	a4,0(a5)
40004308:	0789                	addi	a5,a5,2
4000430a:	15f9                	addi	a1,a1,-2
4000430c:	00e59123          	sh	a4,2(a1)
40004310:	fea79ae3          	bne	a5,a0,40004304 <emovo.constprop.0+0x26>
40004314:	8082                	ret
40004316:	00650793          	addi	a5,a0,6
4000431a:	0569                	addi	a0,a0,26
4000431c:	0007d703          	lhu	a4,0(a5)
40004320:	0789                	addi	a5,a5,2
40004322:	e31d                	bnez	a4,40004348 <emovo.constprop.0+0x6a>
40004324:	fef51ce3          	bne	a0,a5,4000431c <emovo.constprop.0+0x3e>
40004328:	01258713          	addi	a4,a1,18
4000432c:	87ae                	mv	a5,a1
4000432e:	0789                	addi	a5,a5,2
40004330:	fe079f23          	sh	zero,-2(a5)
40004334:	fee79de3          	bne	a5,a4,4000432e <emovo.constprop.0+0x50>
40004338:	0125d783          	lhu	a5,18(a1)
4000433c:	6721                	lui	a4,0x8
4000433e:	177d                	addi	a4,a4,-1 # 7fff <__stack_size+0x7ed3>
40004340:	8fd9                	or	a5,a5,a4
40004342:	00f59923          	sh	a5,18(a1)
40004346:	8082                	ret
40004348:	01058713          	addi	a4,a1,16
4000434c:	87ae                	mv	a5,a1
4000434e:	0789                	addi	a5,a5,2
40004350:	fe079f23          	sh	zero,-2(a5)
40004354:	fee79de3          	bne	a5,a4,4000434e <emovo.constprop.0+0x70>
40004358:	77f1                	lui	a5,0xffffc
4000435a:	00f59823          	sh	a5,16(a1)
4000435e:	77e1                	lui	a5,0xffff8
40004360:	fff7c793          	not	a5,a5
40004364:	00f59923          	sh	a5,18(a1)
40004368:	8082                	ret

4000436a <enormlz>:
4000436a:	00455783          	lhu	a5,4(a0)
4000436e:	1141                	addi	sp,sp,-16
40004370:	c226                	sw	s1,4(sp)
40004372:	c606                	sw	ra,12(sp)
40004374:	c422                	sw	s0,8(sp)
40004376:	c04a                	sw	s2,0(sp)
40004378:	84aa                	mv	s1,a0
4000437a:	e3d5                	bnez	a5,4000441e <enormlz+0xb4>
4000437c:	00655783          	lhu	a5,6(a0)
40004380:	4401                	li	s0,0
40004382:	01079713          	slli	a4,a5,0x10
40004386:	8741                	srai	a4,a4,0x10
40004388:	08074463          	bltz	a4,40004410 <enormlz+0xa6>
4000438c:	01850693          	addi	a3,a0,24
40004390:	0a000613          	li	a2,160
40004394:	e395                	bnez	a5,400043b8 <enormlz+0x4e>
40004396:	00448793          	addi	a5,s1,4
4000439a:	0027d703          	lhu	a4,2(a5) # ffff8002 <_bss_lma+0x7fff7562>
4000439e:	0789                	addi	a5,a5,2
400043a0:	fee79f23          	sh	a4,-2(a5)
400043a4:	fed79be3          	bne	a5,a3,4000439a <enormlz+0x30>
400043a8:	00049c23          	sh	zero,24(s1)
400043ac:	0441                	addi	s0,s0,16
400043ae:	06c40163          	beq	s0,a2,40004410 <enormlz+0xa6>
400043b2:	0064d783          	lhu	a5,6(s1)
400043b6:	d3e5                	beqz	a5,40004396 <enormlz+0x2c>
400043b8:	0ff00713          	li	a4,255
400043bc:	02f76b63          	bltu	a4,a5,400043f2 <enormlz+0x88>
400043c0:	01848813          	addi	a6,s1,24
400043c4:	00248593          	addi	a1,s1,2
400043c8:	0ff00513          	li	a0,255
400043cc:	4781                	li	a5,0
400043ce:	8742                	mv	a4,a6
400043d0:	00075683          	lhu	a3,0(a4)
400043d4:	1779                	addi	a4,a4,-2
400043d6:	00869613          	slli	a2,a3,0x8
400043da:	8fd1                	or	a5,a5,a2
400043dc:	00f71123          	sh	a5,2(a4)
400043e0:	0086d793          	srli	a5,a3,0x8
400043e4:	feb716e3          	bne	a4,a1,400043d0 <enormlz+0x66>
400043e8:	0064d783          	lhu	a5,6(s1)
400043ec:	0421                	addi	s0,s0,8
400043ee:	fcf57fe3          	bgeu	a0,a5,400043cc <enormlz+0x62>
400043f2:	0a000913          	li	s2,160
400043f6:	a801                	j	40004406 <enormlz+0x9c>
400043f8:	0405                	addi	s0,s0,1
400043fa:	e41ff0ef          	jal	ra,4000423a <eshup1>
400043fe:	00894963          	blt	s2,s0,40004410 <enormlz+0xa6>
40004402:	0064d783          	lhu	a5,6(s1)
40004406:	07c2                	slli	a5,a5,0x10
40004408:	87c1                	srai	a5,a5,0x10
4000440a:	8526                	mv	a0,s1
4000440c:	fe07d6e3          	bgez	a5,400043f8 <enormlz+0x8e>
40004410:	40b2                	lw	ra,12(sp)
40004412:	8522                	mv	a0,s0
40004414:	4422                	lw	s0,8(sp)
40004416:	4492                	lw	s1,4(sp)
40004418:	4902                	lw	s2,0(sp)
4000441a:	0141                	addi	sp,sp,16
4000441c:	8082                	ret
4000441e:	0ff00713          	li	a4,255
40004422:	4401                	li	s0,0
40004424:	02f76563          	bltu	a4,a5,4000444e <enormlz+0xe4>
40004428:	f6f00913          	li	s2,-145
4000442c:	a801                	j	4000443c <enormlz+0xd2>
4000442e:	147d                	addi	s0,s0,-1
40004430:	dcfff0ef          	jal	ra,400041fe <eshdn1>
40004434:	fd240ee3          	beq	s0,s2,40004410 <enormlz+0xa6>
40004438:	0044d783          	lhu	a5,4(s1)
4000443c:	8526                	mv	a0,s1
4000443e:	fbe5                	bnez	a5,4000442e <enormlz+0xc4>
40004440:	40b2                	lw	ra,12(sp)
40004442:	8522                	mv	a0,s0
40004444:	4422                	lw	s0,8(sp)
40004446:	4492                	lw	s1,4(sp)
40004448:	4902                	lw	s2,0(sp)
4000444a:	0141                	addi	sp,sp,16
4000444c:	8082                	ret
4000444e:	00450713          	addi	a4,a0,4
40004452:	01a50593          	addi	a1,a0,26
40004456:	4781                	li	a5,0
40004458:	00075683          	lhu	a3,0(a4)
4000445c:	0709                	addi	a4,a4,2
4000445e:	0086d613          	srli	a2,a3,0x8
40004462:	8fd1                	or	a5,a5,a2
40004464:	06a2                	slli	a3,a3,0x8
40004466:	fef71f23          	sh	a5,-2(a4)
4000446a:	01069793          	slli	a5,a3,0x10
4000446e:	83c1                	srli	a5,a5,0x10
40004470:	feb714e3          	bne	a4,a1,40004458 <enormlz+0xee>
40004474:	0044d783          	lhu	a5,4(s1)
40004478:	5461                	li	s0,-8
4000447a:	b77d                	j	40004428 <enormlz+0xbe>

4000447c <eshift.part.0>:
4000447c:	1101                	addi	sp,sp,-32
4000447e:	cc22                	sw	s0,24(sp)
40004480:	ca26                	sw	s1,20(sp)
40004482:	ce06                	sw	ra,28(sp)
40004484:	c84a                	sw	s2,16(sp)
40004486:	c64e                	sw	s3,12(sp)
40004488:	84ae                	mv	s1,a1
4000448a:	842a                	mv	s0,a0
4000448c:	0605cb63          	bltz	a1,40004502 <eshift.part.0+0x86>
40004490:	47bd                	li	a5,15
40004492:	862e                	mv	a2,a1
40004494:	0511                	addi	a0,a0,4
40004496:	01840693          	addi	a3,s0,24
4000449a:	45bd                	li	a1,15
4000449c:	0297d063          	bge	a5,s1,400044bc <eshift.part.0+0x40>
400044a0:	87aa                	mv	a5,a0
400044a2:	0027d703          	lhu	a4,2(a5)
400044a6:	0789                	addi	a5,a5,2
400044a8:	fee79f23          	sh	a4,-2(a5)
400044ac:	fef69be3          	bne	a3,a5,400044a2 <eshift.part.0+0x26>
400044b0:	00041c23          	sh	zero,24(s0)
400044b4:	1641                	addi	a2,a2,-16
400044b6:	fec5c5e3          	blt	a1,a2,400044a0 <eshift.part.0+0x24>
400044ba:	88bd                	andi	s1,s1,15
400044bc:	479d                	li	a5,7
400044be:	0297d463          	bge	a5,s1,400044e6 <eshift.part.0+0x6a>
400044c2:	01840713          	addi	a4,s0,24
400044c6:	00240593          	addi	a1,s0,2
400044ca:	4781                	li	a5,0
400044cc:	00075683          	lhu	a3,0(a4)
400044d0:	1779                	addi	a4,a4,-2
400044d2:	00869613          	slli	a2,a3,0x8
400044d6:	8fd1                	or	a5,a5,a2
400044d8:	00f71123          	sh	a5,2(a4)
400044dc:	0086d793          	srli	a5,a3,0x8
400044e0:	feb716e3          	bne	a4,a1,400044cc <eshift.part.0+0x50>
400044e4:	14e1                	addi	s1,s1,-8
400044e6:	c491                	beqz	s1,400044f2 <eshift.part.0+0x76>
400044e8:	14fd                	addi	s1,s1,-1
400044ea:	8522                	mv	a0,s0
400044ec:	d4fff0ef          	jal	ra,4000423a <eshup1>
400044f0:	fce5                	bnez	s1,400044e8 <eshift.part.0+0x6c>
400044f2:	40f2                	lw	ra,28(sp)
400044f4:	4462                	lw	s0,24(sp)
400044f6:	44d2                	lw	s1,20(sp)
400044f8:	4942                	lw	s2,16(sp)
400044fa:	49b2                	lw	s3,12(sp)
400044fc:	4501                	li	a0,0
400044fe:	6105                	addi	sp,sp,32
40004500:	8082                	ret
40004502:	57c5                	li	a5,-15
40004504:	40b00933          	neg	s2,a1
40004508:	4981                	li	s3,0
4000450a:	01850593          	addi	a1,a0,24
4000450e:	00450693          	addi	a3,a0,4
40004512:	463d                	li	a2,15
40004514:	08f4df63          	bge	s1,a5,400045b2 <eshift.part.0+0x136>
40004518:	01845703          	lhu	a4,24(s0)
4000451c:	87ae                	mv	a5,a1
4000451e:	00e9e9b3          	or	s3,s3,a4
40004522:	ffe7d703          	lhu	a4,-2(a5)
40004526:	17f9                	addi	a5,a5,-2
40004528:	00e79123          	sh	a4,2(a5)
4000452c:	fed79be3          	bne	a5,a3,40004522 <eshift.part.0+0xa6>
40004530:	00041223          	sh	zero,4(s0)
40004534:	1941                	addi	s2,s2,-16
40004536:	ff2641e3          	blt	a2,s2,40004518 <eshift.part.0+0x9c>
4000453a:	5941                	li	s2,-16
4000453c:	5745                	li	a4,-15
4000453e:	40990933          	sub	s2,s2,s1
40004542:	4781                	li	a5,0
40004544:	06e4c263          	blt	s1,a4,400045a8 <eshift.part.0+0x12c>
40004548:	993e                	add	s2,s2,a5
4000454a:	479d                	li	a5,7
4000454c:	0327d863          	bge	a5,s2,4000457c <eshift.part.0+0x100>
40004550:	01844783          	lbu	a5,24(s0)
40004554:	01a40593          	addi	a1,s0,26
40004558:	00f9e9b3          	or	s3,s3,a5
4000455c:	4781                	li	a5,0
4000455e:	0006d703          	lhu	a4,0(a3)
40004562:	0689                	addi	a3,a3,2
40004564:	00875613          	srli	a2,a4,0x8
40004568:	8fd1                	or	a5,a5,a2
4000456a:	0722                	slli	a4,a4,0x8
4000456c:	fef69f23          	sh	a5,-2(a3)
40004570:	01071793          	slli	a5,a4,0x10
40004574:	83c1                	srli	a5,a5,0x10
40004576:	feb694e3          	bne	a3,a1,4000455e <eshift.part.0+0xe2>
4000457a:	1961                	addi	s2,s2,-8
4000457c:	00090d63          	beqz	s2,40004596 <eshift.part.0+0x11a>
40004580:	01845783          	lhu	a5,24(s0)
40004584:	197d                	addi	s2,s2,-1
40004586:	8522                	mv	a0,s0
40004588:	8b85                	andi	a5,a5,1
4000458a:	00f9e9b3          	or	s3,s3,a5
4000458e:	c71ff0ef          	jal	ra,400041fe <eshdn1>
40004592:	fe0917e3          	bnez	s2,40004580 <eshift.part.0+0x104>
40004596:	40f2                	lw	ra,28(sp)
40004598:	4462                	lw	s0,24(sp)
4000459a:	44d2                	lw	s1,20(sp)
4000459c:	4942                	lw	s2,16(sp)
4000459e:	01303533          	snez	a0,s3
400045a2:	49b2                	lw	s3,12(sp)
400045a4:	6105                	addi	sp,sp,32
400045a6:	8082                	ret
400045a8:	ff097793          	andi	a5,s2,-16
400045ac:	40f007b3          	neg	a5,a5
400045b0:	bf61                	j	40004548 <eshift.part.0+0xcc>
400045b2:	57e5                	li	a5,-7
400045b4:	f8f4cee3          	blt	s1,a5,40004550 <eshift.part.0+0xd4>
400045b8:	b7e1                	j	40004580 <eshift.part.0+0x104>

400045ba <emovi>:
400045ba:	01255783          	lhu	a5,18(a0)
400045be:	66a1                	lui	a3,0x8
400045c0:	16fd                	addi	a3,a3,-1 # 7fff <__stack_size+0x7ed3>
400045c2:	83bd                	srli	a5,a5,0xf
400045c4:	40f007b3          	neg	a5,a5
400045c8:	00f59023          	sh	a5,0(a1)
400045cc:	01255703          	lhu	a4,18(a0)
400045d0:	01050793          	addi	a5,a0,16
400045d4:	8f75                	and	a4,a4,a3
400045d6:	00e59123          	sh	a4,2(a1)
400045da:	02d70263          	beq	a4,a3,400045fe <emovi+0x44>
400045de:	00658713          	addi	a4,a1,6
400045e2:	00059223          	sh	zero,4(a1)
400045e6:	1579                	addi	a0,a0,-2
400045e8:	0007d683          	lhu	a3,0(a5)
400045ec:	17f9                	addi	a5,a5,-2
400045ee:	0709                	addi	a4,a4,2
400045f0:	fed71f23          	sh	a3,-2(a4)
400045f4:	fea79ae3          	bne	a5,a0,400045e8 <emovi+0x2e>
400045f8:	00059c23          	sh	zero,24(a1)
400045fc:	8082                	ret
400045fe:	01255683          	lhu	a3,18(a0)
40004602:	8ef9                	and	a3,a3,a4
40004604:	00e69b63          	bne	a3,a4,4000461a <emovi+0x60>
40004608:	01250613          	addi	a2,a0,18
4000460c:	872a                	mv	a4,a0
4000460e:	00075683          	lhu	a3,0(a4)
40004612:	0709                	addi	a4,a4,2
40004614:	ee81                	bnez	a3,4000462c <emovi+0x72>
40004616:	fec71ce3          	bne	a4,a2,4000460e <emovi+0x54>
4000461a:	00458793          	addi	a5,a1,4
4000461e:	05e9                	addi	a1,a1,26
40004620:	0789                	addi	a5,a5,2
40004622:	fe079f23          	sh	zero,-2(a5)
40004626:	feb79de3          	bne	a5,a1,40004620 <emovi+0x66>
4000462a:	8082                	ret
4000462c:	00658713          	addi	a4,a1,6
40004630:	00059223          	sh	zero,4(a1)
40004634:	1571                	addi	a0,a0,-4
40004636:	0007d683          	lhu	a3,0(a5)
4000463a:	17f9                	addi	a5,a5,-2
4000463c:	0709                	addi	a4,a4,2
4000463e:	fed71f23          	sh	a3,-2(a4)
40004642:	fef51ae3          	bne	a0,a5,40004636 <emovi+0x7c>
40004646:	8082                	ret

40004648 <ecmp>:
40004648:	01255783          	lhu	a5,18(a0)
4000464c:	715d                	addi	sp,sp,-80
4000464e:	c4a2                	sw	s0,72(sp)
40004650:	fff7c793          	not	a5,a5
40004654:	c686                	sw	ra,76(sp)
40004656:	01179713          	slli	a4,a5,0x11
4000465a:	842e                	mv	s0,a1
4000465c:	eb11                	bnez	a4,40004670 <ecmp+0x28>
4000465e:	01250693          	addi	a3,a0,18
40004662:	87aa                	mv	a5,a0
40004664:	0007d703          	lhu	a4,0(a5)
40004668:	0789                	addi	a5,a5,2
4000466a:	e735                	bnez	a4,400046d6 <ecmp+0x8e>
4000466c:	fed79ce3          	bne	a5,a3,40004664 <ecmp+0x1c>
40004670:	01245783          	lhu	a5,18(s0)
40004674:	fff7c793          	not	a5,a5
40004678:	01179713          	slli	a4,a5,0x11
4000467c:	c321                	beqz	a4,400046bc <ecmp+0x74>
4000467e:	002c                	addi	a1,sp,8
40004680:	3f2d                	jal	400045ba <emovi>
40004682:	104c                	addi	a1,sp,36
40004684:	8522                	mv	a0,s0
40004686:	3f15                	jal	400045ba <emovi>
40004688:	00815583          	lhu	a1,8(sp)
4000468c:	02415503          	lhu	a0,36(sp)
40004690:	04b50863          	beq	a0,a1,400046e0 <ecmp+0x98>
40004694:	00a10793          	addi	a5,sp,10
40004698:	02610713          	addi	a4,sp,38
4000469c:	1010                	addi	a2,sp,32
4000469e:	0007d683          	lhu	a3,0(a5)
400046a2:	0789                	addi	a5,a5,2
400046a4:	eeb5                	bnez	a3,40004720 <ecmp+0xd8>
400046a6:	00075683          	lhu	a3,0(a4)
400046aa:	0709                	addi	a4,a4,2
400046ac:	eab5                	bnez	a3,40004720 <ecmp+0xd8>
400046ae:	fef618e3          	bne	a2,a5,4000469e <ecmp+0x56>
400046b2:	4501                	li	a0,0
400046b4:	40b6                	lw	ra,76(sp)
400046b6:	4426                	lw	s0,72(sp)
400046b8:	6161                	addi	sp,sp,80
400046ba:	8082                	ret
400046bc:	87a2                	mv	a5,s0
400046be:	0007d703          	lhu	a4,0(a5)
400046c2:	01240693          	addi	a3,s0,18
400046c6:	0789                	addi	a5,a5,2
400046c8:	e719                	bnez	a4,400046d6 <ecmp+0x8e>
400046ca:	fad78ae3          	beq	a5,a3,4000467e <ecmp+0x36>
400046ce:	0007d703          	lhu	a4,0(a5)
400046d2:	0789                	addi	a5,a5,2
400046d4:	db7d                	beqz	a4,400046ca <ecmp+0x82>
400046d6:	40b6                	lw	ra,76(sp)
400046d8:	4426                	lw	s0,72(sp)
400046da:	5579                	li	a0,-2
400046dc:	6161                	addi	sp,sp,80
400046de:	8082                	ret
400046e0:	00815603          	lhu	a2,8(sp)
400046e4:	02415683          	lhu	a3,36(sp)
400046e8:	00a03533          	snez	a0,a0
400046ec:	1058                	addi	a4,sp,36
400046ee:	003c                	addi	a5,sp,8
400046f0:	40a00533          	neg	a0,a0
400046f4:	00156513          	ori	a0,a0,1
400046f8:	100c                	addi	a1,sp,32
400046fa:	0789                	addi	a5,a5,2
400046fc:	0709                	addi	a4,a4,2
400046fe:	00d61c63          	bne	a2,a3,40004716 <ecmp+0xce>
40004702:	fab788e3          	beq	a5,a1,400046b2 <ecmp+0x6a>
40004706:	0007d603          	lhu	a2,0(a5)
4000470a:	00075683          	lhu	a3,0(a4)
4000470e:	0789                	addi	a5,a5,2
40004710:	0709                	addi	a4,a4,2
40004712:	fed608e3          	beq	a2,a3,40004702 <ecmp+0xba>
40004716:	f8c6efe3          	bltu	a3,a2,400046b4 <ecmp+0x6c>
4000471a:	40a00533          	neg	a0,a0
4000471e:	bf59                	j	400046b4 <ecmp+0x6c>
40004720:	e591                	bnez	a1,4000472c <ecmp+0xe4>
40004722:	40b6                	lw	ra,76(sp)
40004724:	4426                	lw	s0,72(sp)
40004726:	4505                	li	a0,1
40004728:	6161                	addi	sp,sp,80
4000472a:	8082                	ret
4000472c:	557d                	li	a0,-1
4000472e:	b759                	j	400046b4 <ecmp+0x6c>

40004730 <emdnorm>:
40004730:	1101                	addi	sp,sp,-32
40004732:	cc22                	sw	s0,24(sp)
40004734:	ca26                	sw	s1,20(sp)
40004736:	c84a                	sw	s2,16(sp)
40004738:	c64e                	sw	s3,12(sp)
4000473a:	c452                	sw	s4,8(sp)
4000473c:	c256                	sw	s5,4(sp)
4000473e:	8936                	mv	s2,a3
40004740:	843e                	mv	s0,a5
40004742:	ce06                	sw	ra,28(sp)
40004744:	84aa                	mv	s1,a0
40004746:	89ae                	mv	s3,a1
40004748:	8a32                	mv	s4,a2
4000474a:	8aba                	mv	s5,a4
4000474c:	c1fff0ef          	jal	ra,4000436a <enormlz>
40004750:	09000793          	li	a5,144
40004754:	40a90933          	sub	s2,s2,a0
40004758:	12a7d163          	bge	a5,a0,4000487a <emdnorm+0x14a>
4000475c:	67a1                	lui	a5,0x8
4000475e:	17f9                	addi	a5,a5,-2 # 7ffe <__stack_size+0x7ed2>
40004760:	2327d463          	bge	a5,s2,40004988 <emdnorm+0x258>
40004764:	1a0a8563          	beqz	s5,4000490e <emdnorm+0x1de>
40004768:	00442a83          	lw	s5,4(s0)
4000476c:	401c                	lw	a5,0(s0)
4000476e:	1efa8a63          	beq	s5,a5,40004962 <emdnorm+0x232>
40004772:	01a40713          	addi	a4,s0,26
40004776:	03440793          	addi	a5,s0,52
4000477a:	0709                	addi	a4,a4,2
4000477c:	fe071f23          	sh	zero,-2(a4)
40004780:	fee79de3          	bne	a5,a4,4000477a <emdnorm+0x4a>
40004784:	03800793          	li	a5,56
40004788:	2afa8563          	beq	s5,a5,40004a32 <emdnorm+0x302>
4000478c:	1357df63          	bge	a5,s5,400048ca <emdnorm+0x19a>
40004790:	04000793          	li	a5,64
40004794:	20fa8363          	beq	s5,a5,4000499a <emdnorm+0x26a>
40004798:	07100793          	li	a5,113
4000479c:	2cfa9363          	bne	s5,a5,40004a62 <emdnorm+0x332>
400047a0:	400087b7          	lui	a5,0x40008
400047a4:	46a9                	li	a3,10
400047a6:	7761                	lui	a4,0xffff8
400047a8:	17fd                	addi	a5,a5,-1 # 40007fff <_vfiprintf_r+0xcd3>
400047aa:	c414                	sw	a3,8(s0)
400047ac:	c85c                	sw	a5,20(s0)
400047ae:	00e41c23          	sh	a4,24(s0)
400047b2:	c454                	sw	a3,12(s0)
400047b4:	02e41723          	sh	a4,46(s0)
400047b8:	01542023          	sw	s5,0(s0)
400047bc:	19205b63          	blez	s2,40004952 <emdnorm+0x222>
400047c0:	0144d683          	lhu	a3,20(s1)
400047c4:	01448613          	addi	a2,s1,20
400047c8:	47ad                	li	a5,11
400047ca:	06c6                	slli	a3,a3,0x11
400047cc:	82c5                	srli	a3,a3,0x11
400047ce:	0786                	slli	a5,a5,0x1
400047d0:	97a6                	add	a5,a5,s1
400047d2:	01a48593          	addi	a1,s1,26
400047d6:	0007d703          	lhu	a4,0(a5)
400047da:	c319                	beqz	a4,400047e0 <emdnorm+0xb0>
400047dc:	0016e693          	ori	a3,a3,1
400047e0:	00079023          	sh	zero,0(a5)
400047e4:	0789                	addi	a5,a5,2
400047e6:	feb798e3          	bne	a5,a1,400047d6 <emdnorm+0xa6>
400047ea:	00065703          	lhu	a4,0(a2)
400047ee:	01445583          	lhu	a1,20(s0)
400047f2:	fff5c593          	not	a1,a1
400047f6:	8f6d                	and	a4,a4,a1
400047f8:	00e61023          	sh	a4,0(a2)
400047fc:	01645783          	lhu	a5,22(s0)
40004800:	00d7f733          	and	a4,a5,a3
40004804:	c721                	beqz	a4,4000484c <emdnorm+0x11c>
40004806:	00d79d63          	bne	a5,a3,40004820 <emdnorm+0xf0>
4000480a:	22099163          	bnez	s3,40004a2c <emdnorm+0x2fc>
4000480e:	445c                	lw	a5,12(s0)
40004810:	01845703          	lhu	a4,24(s0)
40004814:	0786                	slli	a5,a5,0x1
40004816:	97a6                	add	a5,a5,s1
40004818:	0007d783          	lhu	a5,0(a5)
4000481c:	8ff9                	and	a5,a5,a4
4000481e:	c79d                	beqz	a5,4000484c <emdnorm+0x11c>
40004820:	03240793          	addi	a5,s0,50
40004824:	01848613          	addi	a2,s1,24
40004828:	00248593          	addi	a1,s1,2
4000482c:	4501                	li	a0,0
4000482e:	0007d703          	lhu	a4,0(a5)
40004832:	00065683          	lhu	a3,0(a2)
40004836:	1679                	addi	a2,a2,-2
40004838:	17f9                	addi	a5,a5,-2
4000483a:	9736                	add	a4,a4,a3
4000483c:	972a                	add	a4,a4,a0
4000483e:	01075513          	srli	a0,a4,0x10
40004842:	00e61123          	sh	a4,2(a2)
40004846:	8905                	andi	a0,a0,1
40004848:	fec593e3          	bne	a1,a2,4000482e <emdnorm+0xfe>
4000484c:	1b205763          	blez	s2,400049fa <emdnorm+0x2ca>
40004850:	0044d783          	lhu	a5,4(s1)
40004854:	18079863          	bnez	a5,400049e4 <emdnorm+0x2b4>
40004858:	67a1                	lui	a5,0x8
4000485a:	00049c23          	sh	zero,24(s1)
4000485e:	17f9                	addi	a5,a5,-2 # 7ffe <__stack_size+0x7ed2>
40004860:	0b27c963          	blt	a5,s2,40004912 <emdnorm+0x1e2>
40004864:	01249123          	sh	s2,2(s1)
40004868:	40f2                	lw	ra,28(sp)
4000486a:	4462                	lw	s0,24(sp)
4000486c:	44d2                	lw	s1,20(sp)
4000486e:	4942                	lw	s2,16(sp)
40004870:	49b2                	lw	s3,12(sp)
40004872:	4a22                	lw	s4,8(sp)
40004874:	4a92                	lw	s5,4(sp)
40004876:	6105                	addi	sp,sp,32
40004878:	8082                	ret
4000487a:	02094b63          	bltz	s2,400048b0 <emdnorm+0x180>
4000487e:	fc0a8de3          	beqz	s5,40004858 <emdnorm+0x128>
40004882:	00442a83          	lw	s5,4(s0)
40004886:	401c                	lw	a5,0(s0)
40004888:	eefa95e3          	bne	s5,a5,40004772 <emdnorm+0x42>
4000488c:	21204f63          	bgtz	s2,40004aaa <emdnorm+0x37a>
40004890:	09000713          	li	a4,144
40004894:	20e79d63          	bne	a5,a4,40004aae <emdnorm+0x37e>
40004898:	4410                	lw	a2,8(s0)
4000489a:	01445583          	lhu	a1,20(s0)
4000489e:	09000a93          	li	s5,144
400048a2:	0606                	slli	a2,a2,0x1
400048a4:	9626                	add	a2,a2,s1
400048a6:	00065703          	lhu	a4,0(a2)
400048aa:	00b776b3          	and	a3,a4,a1
400048ae:	b791                	j	400047f2 <emdnorm+0xc2>
400048b0:	f7000793          	li	a5,-144
400048b4:	10f95a63          	bge	s2,a5,400049c8 <emdnorm+0x298>
400048b8:	00248793          	addi	a5,s1,2
400048bc:	04e9                	addi	s1,s1,26
400048be:	0789                	addi	a5,a5,2
400048c0:	fe079f23          	sh	zero,-2(a5)
400048c4:	fef49de3          	bne	s1,a5,400048be <emdnorm+0x18e>
400048c8:	b745                	j	40004868 <emdnorm+0x138>
400048ca:	47e1                	li	a5,24
400048cc:	06fa8163          	beq	s5,a5,4000492e <emdnorm+0x1fe>
400048d0:	03500793          	li	a5,53
400048d4:	18fa9763          	bne	s5,a5,40004a62 <emdnorm+0x332>
400048d8:	6785                	lui	a5,0x1
400048da:	04000737          	lui	a4,0x4000
400048de:	4699                	li	a3,6
400048e0:	80078793          	addi	a5,a5,-2048 # 800 <__stack_size+0x6d4>
400048e4:	7ff70713          	addi	a4,a4,2047 # 40007ff <__stack_size+0x40006d3>
400048e8:	c414                	sw	a3,8(s0)
400048ea:	c858                	sw	a4,20(s0)
400048ec:	00f41c23          	sh	a5,24(s0)
400048f0:	c454                	sw	a3,12(s0)
400048f2:	02f41323          	sh	a5,38(s0)
400048f6:	01542023          	sw	s5,0(s0)
400048fa:	05205c63          	blez	s2,40004952 <emdnorm+0x222>
400048fe:	00c4d683          	lhu	a3,12(s1)
40004902:	00c48613          	addi	a2,s1,12
40004906:	479d                	li	a5,7
40004908:	7ff6f693          	andi	a3,a3,2047
4000490c:	b5c9                	j	400047ce <emdnorm+0x9e>
4000490e:	00049c23          	sh	zero,24(s1)
40004912:	77e1                	lui	a5,0xffff8
40004914:	fff7c793          	not	a5,a5
40004918:	00f49123          	sh	a5,2(s1)
4000491c:	00448793          	addi	a5,s1,4
40004920:	04e1                	addi	s1,s1,24
40004922:	00079023          	sh	zero,0(a5) # ffff8000 <_bss_lma+0x7fff7560>
40004926:	0789                	addi	a5,a5,2
40004928:	fef49de3          	bne	s1,a5,40004922 <emdnorm+0x1f2>
4000492c:	bf35                	j	40004868 <emdnorm+0x138>
4000492e:	008007b7          	lui	a5,0x800
40004932:	4691                	li	a3,4
40004934:	10000713          	li	a4,256
40004938:	0ff78793          	addi	a5,a5,255 # 8000ff <__stack_size+0x7fffd3>
4000493c:	c414                	sw	a3,8(s0)
4000493e:	c85c                	sw	a5,20(s0)
40004940:	00e41c23          	sh	a4,24(s0)
40004944:	c454                	sw	a3,12(s0)
40004946:	02e41123          	sh	a4,34(s0)
4000494a:	01542023          	sw	s5,0(s0)
4000494e:	15204363          	bgtz	s2,40004a94 <emdnorm+0x364>
40004952:	0184d783          	lhu	a5,24(s1)
40004956:	8526                	mv	a0,s1
40004958:	8b85                	andi	a5,a5,1
4000495a:	00f9e9b3          	or	s3,s3,a5
4000495e:	8a1ff0ef          	jal	ra,400041fe <eshdn1>
40004962:	441c                	lw	a5,8(s0)
40004964:	01445583          	lhu	a1,20(s0)
40004968:	08f00513          	li	a0,143
4000496c:	00179613          	slli	a2,a5,0x1
40004970:	9626                	add	a2,a2,s1
40004972:	00065703          	lhu	a4,0(a2)
40004976:	00b776b3          	and	a3,a4,a1
4000497a:	e7554ce3          	blt	a0,s5,400047f2 <emdnorm+0xc2>
4000497e:	0785                	addi	a5,a5,1
40004980:	4531                	li	a0,12
40004982:	e4f556e3          	bge	a0,a5,400047ce <emdnorm+0x9e>
40004986:	b5b5                	j	400047f2 <emdnorm+0xc2>
40004988:	00248793          	addi	a5,s1,2
4000498c:	04e9                	addi	s1,s1,26
4000498e:	0789                	addi	a5,a5,2
40004990:	fe079f23          	sh	zero,-2(a5)
40004994:	fef49de3          	bne	s1,a5,4000498e <emdnorm+0x25e>
40004998:	bdc1                	j	40004868 <emdnorm+0x138>
4000499a:	479d                	li	a5,7
4000499c:	c41c                	sw	a5,8(s0)
4000499e:	800107b7          	lui	a5,0x80010
400049a2:	17fd                	addi	a5,a5,-1 # 8000ffff <_bss_lma+0xf55f>
400049a4:	4705                	li	a4,1
400049a6:	c85c                	sw	a5,20(s0)
400049a8:	4799                	li	a5,6
400049aa:	00e41c23          	sh	a4,24(s0)
400049ae:	c45c                	sw	a5,12(s0)
400049b0:	02e41323          	sh	a4,38(s0)
400049b4:	01542023          	sw	s5,0(s0)
400049b8:	f9205de3          	blez	s2,40004952 <emdnorm+0x222>
400049bc:	00e4d683          	lhu	a3,14(s1)
400049c0:	00e48613          	addi	a2,s1,14
400049c4:	47a1                	li	a5,8
400049c6:	b521                	j	400047ce <emdnorm+0x9e>
400049c8:	85ca                	mv	a1,s2
400049ca:	8526                	mv	a0,s1
400049cc:	ab1ff0ef          	jal	ra,4000447c <eshift.part.0>
400049d0:	c955                	beqz	a0,40004a84 <emdnorm+0x354>
400049d2:	0c0a8763          	beqz	s5,40004aa0 <emdnorm+0x370>
400049d6:	00442a83          	lw	s5,4(s0)
400049da:	401c                	lw	a5,0(s0)
400049dc:	4985                	li	s3,1
400049de:	d8fa9ae3          	bne	s5,a5,40004772 <emdnorm+0x42>
400049e2:	b57d                	j	40004890 <emdnorm+0x160>
400049e4:	8526                	mv	a0,s1
400049e6:	819ff0ef          	jal	ra,400041fe <eshdn1>
400049ea:	67a1                	lui	a5,0x8
400049ec:	0905                	addi	s2,s2,1
400049ee:	00049c23          	sh	zero,24(s1)
400049f2:	17f9                	addi	a5,a5,-2 # 7ffe <__stack_size+0x7ed2>
400049f4:	f127cfe3          	blt	a5,s2,40004912 <emdnorm+0x1e2>
400049f8:	b5b5                	j	40004864 <emdnorm+0x134>
400049fa:	09000793          	li	a5,144
400049fe:	00fa8f63          	beq	s5,a5,40004a1c <emdnorm+0x2ec>
40004a02:	8526                	mv	a0,s1
40004a04:	837ff0ef          	jal	ra,4000423a <eshup1>
40004a08:	0044d783          	lhu	a5,4(s1)
40004a0c:	eb99                	bnez	a5,40004a22 <emdnorm+0x2f2>
40004a0e:	00049c23          	sh	zero,24(s1)
40004a12:	e40959e3          	bgez	s2,40004864 <emdnorm+0x134>
40004a16:	00049123          	sh	zero,2(s1)
40004a1a:	b5b9                	j	40004868 <emdnorm+0x138>
40004a1c:	0044d783          	lhu	a5,4(s1)
40004a20:	d7fd                	beqz	a5,40004a0e <emdnorm+0x2de>
40004a22:	8526                	mv	a0,s1
40004a24:	fdaff0ef          	jal	ra,400041fe <eshdn1>
40004a28:	0905                	addi	s2,s2,1
40004a2a:	b7d5                	j	40004a0e <emdnorm+0x2de>
40004a2c:	de0a0ae3          	beqz	s4,40004820 <emdnorm+0xf0>
40004a30:	bd31                	j	4000484c <emdnorm+0x11c>
40004a32:	008007b7          	lui	a5,0x800
40004a36:	4699                	li	a3,6
40004a38:	10000713          	li	a4,256
40004a3c:	0ff78793          	addi	a5,a5,255 # 8000ff <__stack_size+0x7fffd3>
40004a40:	c414                	sw	a3,8(s0)
40004a42:	c85c                	sw	a5,20(s0)
40004a44:	00e41c23          	sh	a4,24(s0)
40004a48:	c454                	sw	a3,12(s0)
40004a4a:	02e41323          	sh	a4,38(s0)
40004a4e:	01542023          	sw	s5,0(s0)
40004a52:	f12050e3          	blez	s2,40004952 <emdnorm+0x222>
40004a56:	00c4c683          	lbu	a3,12(s1)
40004a5a:	00c48613          	addi	a2,s1,12
40004a5e:	479d                	li	a5,7
40004a60:	b3bd                	j	400047ce <emdnorm+0x9e>
40004a62:	47b1                	li	a5,12
40004a64:	c41c                	sw	a5,8(s0)
40004a66:	800107b7          	lui	a5,0x80010
40004a6a:	17fd                	addi	a5,a5,-1 # 8000ffff <_bss_lma+0xf55f>
40004a6c:	4705                	li	a4,1
40004a6e:	c85c                	sw	a5,20(s0)
40004a70:	47ad                	li	a5,11
40004a72:	c45c                	sw	a5,12(s0)
40004a74:	00e41c23          	sh	a4,24(s0)
40004a78:	02e41823          	sh	a4,48(s0)
40004a7c:	01542023          	sw	s5,0(s0)
40004a80:	87d6                	mv	a5,s5
40004a82:	b529                	j	4000488c <emdnorm+0x15c>
40004a84:	000a8e63          	beqz	s5,40004aa0 <emdnorm+0x370>
40004a88:	00442a83          	lw	s5,4(s0)
40004a8c:	401c                	lw	a5,0(s0)
40004a8e:	cefa92e3          	bne	s5,a5,40004772 <emdnorm+0x42>
40004a92:	bbfd                	j	40004890 <emdnorm+0x160>
40004a94:	0084c683          	lbu	a3,8(s1)
40004a98:	00848613          	addi	a2,s1,8
40004a9c:	4795                	li	a5,5
40004a9e:	bb05                	j	400047ce <emdnorm+0x9e>
40004aa0:	00049c23          	sh	zero,24(s1)
40004aa4:	00049123          	sh	zero,2(s1)
40004aa8:	b3c1                	j	40004868 <emdnorm+0x138>
40004aaa:	8abe                	mv	s5,a5
40004aac:	bd5d                	j	40004962 <emdnorm+0x232>
40004aae:	8abe                	mv	s5,a5
40004ab0:	b54d                	j	40004952 <emdnorm+0x222>

40004ab2 <eiremain>:
40004ab2:	7179                	addi	sp,sp,-48
40004ab4:	d04a                	sw	s2,32(sp)
40004ab6:	ce4e                	sw	s3,28(sp)
40004ab8:	892e                	mv	s2,a1
40004aba:	00255983          	lhu	s3,2(a0)
40004abe:	d606                	sw	ra,44(sp)
40004ac0:	d422                	sw	s0,40(sp)
40004ac2:	d226                	sw	s1,36(sp)
40004ac4:	cc52                	sw	s4,24(sp)
40004ac6:	84b2                	mv	s1,a2
40004ac8:	c65e                	sw	s7,12(sp)
40004aca:	ca56                	sw	s5,20(sp)
40004acc:	c85a                	sw	s6,16(sp)
40004ace:	c462                	sw	s8,8(sp)
40004ad0:	c266                	sw	s9,4(sp)
40004ad2:	c06a                	sw	s10,0(sp)
40004ad4:	8baa                	mv	s7,a0
40004ad6:	895ff0ef          	jal	ra,4000436a <enormlz>
40004ada:	00295403          	lhu	s0,2(s2)
40004ade:	87aa                	mv	a5,a0
40004ae0:	854a                	mv	a0,s2
40004ae2:	40f989b3          	sub	s3,s3,a5
40004ae6:	03448a13          	addi	s4,s1,52
40004aea:	881ff0ef          	jal	ra,4000436a <enormlz>
40004aee:	8c09                	sub	s0,s0,a0
40004af0:	04e48713          	addi	a4,s1,78
40004af4:	87d2                	mv	a5,s4
40004af6:	0789                	addi	a5,a5,2
40004af8:	fe079f23          	sh	zero,-2(a5)
40004afc:	fee79de3          	bne	a5,a4,40004af6 <eiremain+0x44>
40004b00:	07344a63          	blt	s0,s3,40004b74 <eiremain+0xc2>
40004b04:	004b8b13          	addi	s6,s7,4
40004b08:	00490a93          	addi	s5,s2,4
40004b0c:	01ab8c13          	addi	s8,s7,26
40004b10:	00290d13          	addi	s10,s2,2
40004b14:	8756                	mv	a4,s5
40004b16:	87da                	mv	a5,s6
40004b18:	0007d603          	lhu	a2,0(a5)
40004b1c:	00075683          	lhu	a3,0(a4)
40004b20:	0789                	addi	a5,a5,2
40004b22:	0709                	addi	a4,a4,2
40004b24:	06d61d63          	bne	a2,a3,40004b9e <eiremain+0xec>
40004b28:	fefc18e3          	bne	s8,a5,40004b18 <eiremain+0x66>
40004b2c:	018b8613          	addi	a2,s7,24
40004b30:	01890713          	addi	a4,s2,24
40004b34:	4681                	li	a3,0
40004b36:	00075783          	lhu	a5,0(a4)
40004b3a:	00065583          	lhu	a1,0(a2)
40004b3e:	1779                	addi	a4,a4,-2
40004b40:	1679                	addi	a2,a2,-2
40004b42:	8f8d                	sub	a5,a5,a1
40004b44:	8f95                	sub	a5,a5,a3
40004b46:	0107d693          	srli	a3,a5,0x10
40004b4a:	00f71123          	sh	a5,2(a4)
40004b4e:	8a85                	andi	a3,a3,1
40004b50:	ffa713e3          	bne	a4,s10,40004b36 <eiremain+0x84>
40004b54:	4c85                	li	s9,1
40004b56:	8552                	mv	a0,s4
40004b58:	ee2ff0ef          	jal	ra,4000423a <eshup1>
40004b5c:	04c4d783          	lhu	a5,76(s1)
40004b60:	147d                	addi	s0,s0,-1
40004b62:	854a                	mv	a0,s2
40004b64:	00fce7b3          	or	a5,s9,a5
40004b68:	04f49623          	sh	a5,76(s1)
40004b6c:	eceff0ef          	jal	ra,4000423a <eshup1>
40004b70:	fb3452e3          	bge	s0,s3,40004b14 <eiremain+0x62>
40004b74:	86a2                	mv	a3,s0
40004b76:	5422                	lw	s0,40(sp)
40004b78:	50b2                	lw	ra,44(sp)
40004b7a:	49f2                	lw	s3,28(sp)
40004b7c:	4a62                	lw	s4,24(sp)
40004b7e:	4ad2                	lw	s5,20(sp)
40004b80:	4b42                	lw	s6,16(sp)
40004b82:	4bb2                	lw	s7,12(sp)
40004b84:	4c22                	lw	s8,8(sp)
40004b86:	4c92                	lw	s9,4(sp)
40004b88:	4d02                	lw	s10,0(sp)
40004b8a:	87a6                	mv	a5,s1
40004b8c:	854a                	mv	a0,s2
40004b8e:	5492                	lw	s1,36(sp)
40004b90:	5902                	lw	s2,32(sp)
40004b92:	4701                	li	a4,0
40004b94:	4601                	li	a2,0
40004b96:	4581                	li	a1,0
40004b98:	6145                	addi	sp,sp,48
40004b9a:	b97ff06f          	j	40004730 <emdnorm>
40004b9e:	4c81                	li	s9,0
40004ba0:	fac6ebe3          	bltu	a3,a2,40004b56 <eiremain+0xa4>
40004ba4:	b761                	j	40004b2c <eiremain+0x7a>

40004ba6 <e113toe.isra.0>:
40004ba6:	7179                	addi	sp,sp,-48
40004ba8:	d422                	sw	s0,40(sp)
40004baa:	d606                	sw	ra,44(sp)
40004bac:	842e                	mv	s0,a1
40004bae:	005c                	addi	a5,sp,4
40004bb0:	01e10713          	addi	a4,sp,30
40004bb4:	0789                	addi	a5,a5,2
40004bb6:	fe079f23          	sh	zero,-2(a5)
40004bba:	fee79de3          	bne	a5,a4,40004bb4 <e113toe.isra.0+0xe>
40004bbe:	00e55603          	lhu	a2,14(a0)
40004bc2:	67a1                	lui	a5,0x8
40004bc4:	17fd                	addi	a5,a5,-1 # 7fff <__stack_size+0x7ed3>
40004bc6:	00f65713          	srli	a4,a2,0xf
40004bca:	40e00733          	neg	a4,a4
40004bce:	00e11223          	sh	a4,4(sp)
40004bd2:	8e7d                	and	a2,a2,a5
40004bd4:	04f60363          	beq	a2,a5,40004c1a <e113toe.isra.0+0x74>
40004bd8:	00e50793          	addi	a5,a0,14
40004bdc:	00c11323          	sh	a2,6(sp)
40004be0:	00a10713          	addi	a4,sp,10
40004be4:	ffe7d683          	lhu	a3,-2(a5)
40004be8:	17f9                	addi	a5,a5,-2
40004bea:	0709                	addi	a4,a4,2
40004bec:	fed71f23          	sh	a3,-2(a4)
40004bf0:	fef51ae3          	bne	a0,a5,40004be4 <e113toe.isra.0+0x3e>
40004bf4:	ea19                	bnez	a2,40004c0a <e113toe.isra.0+0x64>
40004bf6:	00011423          	sh	zero,8(sp)
40004bfa:	85a2                	mv	a1,s0
40004bfc:	0048                	addi	a0,sp,4
40004bfe:	ee0ff0ef          	jal	ra,400042de <emovo.constprop.0>
40004c02:	50b2                	lw	ra,44(sp)
40004c04:	5422                	lw	s0,40(sp)
40004c06:	6145                	addi	sp,sp,48
40004c08:	8082                	ret
40004c0a:	4785                	li	a5,1
40004c0c:	55fd                	li	a1,-1
40004c0e:	0048                	addi	a0,sp,4
40004c10:	00f11423          	sh	a5,8(sp)
40004c14:	869ff0ef          	jal	ra,4000447c <eshift.part.0>
40004c18:	b7cd                	j	40004bfa <e113toe.isra.0+0x54>
40004c1a:	87aa                	mv	a5,a0
40004c1c:	00e50693          	addi	a3,a0,14
40004c20:	0007d703          	lhu	a4,0(a5)
40004c24:	0789                	addi	a5,a5,2
40004c26:	ef21                	bnez	a4,40004c7e <e113toe.isra.0+0xd8>
40004c28:	fed79ce3          	bne	a5,a3,40004c20 <e113toe.isra.0+0x7a>
40004c2c:	01440713          	addi	a4,s0,20
40004c30:	87a2                	mv	a5,s0
40004c32:	0789                	addi	a5,a5,2
40004c34:	fe079f23          	sh	zero,-2(a5)
40004c38:	fee79de3          	bne	a5,a4,40004c32 <e113toe.isra.0+0x8c>
40004c3c:	01240713          	addi	a4,s0,18
40004c40:	87a2                	mv	a5,s0
40004c42:	0789                	addi	a5,a5,2
40004c44:	fe079f23          	sh	zero,-2(a5)
40004c48:	fee79de3          	bne	a5,a4,40004c42 <e113toe.isra.0+0x9c>
40004c4c:	01245783          	lhu	a5,18(s0)
40004c50:	66a1                	lui	a3,0x8
40004c52:	16fd                	addi	a3,a3,-1 # 7fff <__stack_size+0x7ed3>
40004c54:	8fd5                	or	a5,a5,a3
40004c56:	07c2                	slli	a5,a5,0x10
40004c58:	83c1                	srli	a5,a5,0x10
40004c5a:	00f41923          	sh	a5,18(s0)
40004c5e:	00e51683          	lh	a3,14(a0)
40004c62:	fa06d0e3          	bgez	a3,40004c02 <e113toe.isra.0+0x5c>
40004c66:	86a2                	mv	a3,s0
40004c68:	0006d603          	lhu	a2,0(a3)
40004c6c:	0689                	addi	a3,a3,2
40004c6e:	fa51                	bnez	a2,40004c02 <e113toe.isra.0+0x5c>
40004c70:	fee69ce3          	bne	a3,a4,40004c68 <e113toe.isra.0+0xc2>
40004c74:	7761                	lui	a4,0xffff8
40004c76:	8fb9                	xor	a5,a5,a4
40004c78:	00f41923          	sh	a5,18(s0)
40004c7c:	b759                	j	40004c02 <e113toe.isra.0+0x5c>
40004c7e:	01040713          	addi	a4,s0,16
40004c82:	87a2                	mv	a5,s0
40004c84:	0789                	addi	a5,a5,2
40004c86:	fe079f23          	sh	zero,-2(a5)
40004c8a:	fee79de3          	bne	a5,a4,40004c84 <e113toe.isra.0+0xde>
40004c8e:	77f1                	lui	a5,0xffffc
40004c90:	00f41823          	sh	a5,16(s0)
40004c94:	77e1                	lui	a5,0xffff8
40004c96:	fff7c793          	not	a5,a5
40004c9a:	00f41923          	sh	a5,18(s0)
40004c9e:	b795                	j	40004c02 <e113toe.isra.0+0x5c>

40004ca0 <ediv>:
40004ca0:	01255783          	lhu	a5,18(a0)
40004ca4:	7171                	addi	sp,sp,-176
40004ca6:	d522                	sw	s0,168(sp)
40004ca8:	fff7c793          	not	a5,a5
40004cac:	d326                	sw	s1,164(sp)
40004cae:	d14a                	sw	s2,160(sp)
40004cb0:	cf4e                	sw	s3,156(sp)
40004cb2:	d706                	sw	ra,172(sp)
40004cb4:	cd52                	sw	s4,152(sp)
40004cb6:	cb56                	sw	s5,148(sp)
40004cb8:	c95a                	sw	s6,144(sp)
40004cba:	c75e                	sw	s7,140(sp)
40004cbc:	c562                	sw	s8,136(sp)
40004cbe:	c366                	sw	s9,132(sp)
40004cc0:	c16a                	sw	s10,128(sp)
40004cc2:	deee                	sw	s11,124(sp)
40004cc4:	01179713          	slli	a4,a5,0x11
40004cc8:	84aa                	mv	s1,a0
40004cca:	89ae                	mv	s3,a1
40004ccc:	8432                	mv	s0,a2
40004cce:	8936                	mv	s2,a3
40004cd0:	eb11                	bnez	a4,40004ce4 <ediv+0x44>
40004cd2:	01250693          	addi	a3,a0,18
40004cd6:	87aa                	mv	a5,a0
40004cd8:	0007d703          	lhu	a4,0(a5) # ffff8000 <_bss_lma+0x7fff7560>
40004cdc:	0789                	addi	a5,a5,2
40004cde:	ef4d                	bnez	a4,40004d98 <ediv+0xf8>
40004ce0:	fed79ce3          	bne	a5,a3,40004cd8 <ediv+0x38>
40004ce4:	0129d783          	lhu	a5,18(s3)
40004ce8:	fff7c793          	not	a5,a5
40004cec:	01179713          	slli	a4,a5,0x11
40004cf0:	eb11                	bnez	a4,40004d04 <ediv+0x64>
40004cf2:	01298693          	addi	a3,s3,18
40004cf6:	87ce                	mv	a5,s3
40004cf8:	0007d703          	lhu	a4,0(a5)
40004cfc:	0789                	addi	a5,a5,2
40004cfe:	eb45                	bnez	a4,40004dae <ediv+0x10e>
40004d00:	fed79ce3          	bne	a5,a3,40004cf8 <ediv+0x58>
40004d04:	80000a37          	lui	s4,0x80000
40004d08:	7aca0593          	addi	a1,s4,1964 # 800007ac <_bss_lma+0xfffffd0c>
40004d0c:	8526                	mv	a0,s1
40004d0e:	93bff0ef          	jal	ra,40004648 <ecmp>
40004d12:	12050663          	beqz	a0,40004e3e <ediv+0x19e>
40004d16:	0124d603          	lhu	a2,18(s1)
40004d1a:	67a1                	lui	a5,0x8
40004d1c:	17fd                	addi	a5,a5,-1 # 7fff <__stack_size+0x7ed3>
40004d1e:	00f67533          	and	a0,a2,a5
40004d22:	0af51163          	bne	a0,a5,40004dc4 <ediv+0x124>
40004d26:	01248693          	addi	a3,s1,18
40004d2a:	87a6                	mv	a5,s1
40004d2c:	0007d703          	lhu	a4,0(a5)
40004d30:	0789                	addi	a5,a5,2
40004d32:	eb49                	bnez	a4,40004dc4 <ediv+0x124>
40004d34:	fed79ce3          	bne	a5,a3,40004d2c <ediv+0x8c>
40004d38:	0129d703          	lhu	a4,18(s3)
40004d3c:	fff74793          	not	a5,a4
40004d40:	01179693          	slli	a3,a5,0x11
40004d44:	e6ed                	bnez	a3,40004e2e <ediv+0x18e>
40004d46:	01298693          	addi	a3,s3,18
40004d4a:	87ce                	mv	a5,s3
40004d4c:	0007d583          	lhu	a1,0(a5)
40004d50:	0789                	addi	a5,a5,2
40004d52:	36059763          	bnez	a1,400050c0 <ediv+0x420>
40004d56:	fed79be3          	bne	a5,a3,40004d4c <ediv+0xac>
40004d5a:	01040713          	addi	a4,s0,16
40004d5e:	87a2                	mv	a5,s0
40004d60:	0789                	addi	a5,a5,2
40004d62:	fe079f23          	sh	zero,-2(a5)
40004d66:	fee79de3          	bne	a5,a4,40004d60 <ediv+0xc0>
40004d6a:	77f1                	lui	a5,0xffffc
40004d6c:	00f41823          	sh	a5,16(s0)
40004d70:	77e1                	lui	a5,0xffff8
40004d72:	fff7c793          	not	a5,a5
40004d76:	00f41923          	sh	a5,18(s0)
40004d7a:	50ba                	lw	ra,172(sp)
40004d7c:	542a                	lw	s0,168(sp)
40004d7e:	549a                	lw	s1,164(sp)
40004d80:	590a                	lw	s2,160(sp)
40004d82:	49fa                	lw	s3,156(sp)
40004d84:	4a6a                	lw	s4,152(sp)
40004d86:	4ada                	lw	s5,148(sp)
40004d88:	4b4a                	lw	s6,144(sp)
40004d8a:	4bba                	lw	s7,140(sp)
40004d8c:	4c2a                	lw	s8,136(sp)
40004d8e:	4c9a                	lw	s9,132(sp)
40004d90:	4d0a                	lw	s10,128(sp)
40004d92:	5df6                	lw	s11,124(sp)
40004d94:	614d                	addi	sp,sp,176
40004d96:	8082                	ret
40004d98:	01448713          	addi	a4,s1,20
40004d9c:	0004d783          	lhu	a5,0(s1)
40004da0:	0489                	addi	s1,s1,2
40004da2:	0409                	addi	s0,s0,2
40004da4:	fef41f23          	sh	a5,-2(s0)
40004da8:	fee49ae3          	bne	s1,a4,40004d9c <ediv+0xfc>
40004dac:	b7f9                	j	40004d7a <ediv+0xda>
40004dae:	01440713          	addi	a4,s0,20
40004db2:	0009d783          	lhu	a5,0(s3)
40004db6:	0409                	addi	s0,s0,2
40004db8:	0989                	addi	s3,s3,2
40004dba:	fef41f23          	sh	a5,-2(s0)
40004dbe:	fee41ae3          	bne	s0,a4,40004db2 <ediv+0x112>
40004dc2:	bf65                	j	40004d7a <ediv+0xda>
40004dc4:	0129d703          	lhu	a4,18(s3)
40004dc8:	fff74793          	not	a5,a4
40004dcc:	01179693          	slli	a3,a5,0x11
40004dd0:	eebd                	bnez	a3,40004e4e <ediv+0x1ae>
40004dd2:	4801                	li	a6,0
40004dd4:	01298693          	addi	a3,s3,18
40004dd8:	87ce                	mv	a5,s3
40004dda:	0007d583          	lhu	a1,0(a5) # ffff8000 <_bss_lma+0x7fff7560>
40004dde:	0789                	addi	a5,a5,2
40004de0:	e5a9                	bnez	a1,40004e2a <ediv+0x18a>
40004de2:	fed79ce3          	bne	a5,a3,40004dda <ediv+0x13a>
40004de6:	67a1                	lui	a5,0x8
40004de8:	17fd                	addi	a5,a5,-1 # 7fff <__stack_size+0x7ed3>
40004dea:	0af50363          	beq	a0,a5,40004e90 <ediv+0x1f0>
40004dee:	823d                	srli	a2,a2,0xf
40004df0:	0009d783          	lhu	a5,0(s3)
40004df4:	0989                	addi	s3,s3,2
40004df6:	2c079163          	bnez	a5,400050b8 <ediv+0x418>
40004dfa:	fed99be3          	bne	s3,a3,40004df0 <ediv+0x150>
40004dfe:	00f75793          	srli	a5,a4,0xf
40004e02:	8fb1                	xor	a5,a5,a2
40004e04:	07be                	slli	a5,a5,0xf
40004e06:	00f41923          	sh	a5,18(s0)
40004e0a:	01240713          	addi	a4,s0,18
40004e0e:	87a2                	mv	a5,s0
40004e10:	0789                	addi	a5,a5,2
40004e12:	fe079f23          	sh	zero,-2(a5)
40004e16:	fee79de3          	bne	a5,a4,40004e10 <ediv+0x170>
40004e1a:	01245783          	lhu	a5,18(s0)
40004e1e:	6721                	lui	a4,0x8
40004e20:	177d                	addi	a4,a4,-1 # 7fff <__stack_size+0x7ed3>
40004e22:	8fd9                	or	a5,a5,a4
40004e24:	00f41923          	sh	a5,18(s0)
40004e28:	bf89                	j	40004d7a <ediv+0xda>
40004e2a:	02080263          	beqz	a6,40004e4e <ediv+0x1ae>
40004e2e:	01440793          	addi	a5,s0,20
40004e32:	0409                	addi	s0,s0,2
40004e34:	fe041f23          	sh	zero,-2(s0)
40004e38:	fef41de3          	bne	s0,a5,40004e32 <ediv+0x192>
40004e3c:	bf3d                	j	40004d7a <ediv+0xda>
40004e3e:	7aca0593          	addi	a1,s4,1964
40004e42:	854e                	mv	a0,s3
40004e44:	805ff0ef          	jal	ra,40004648 <ecmp>
40004e48:	ec0517e3          	bnez	a0,40004d16 <ediv+0x76>
40004e4c:	b739                	j	40004d5a <ediv+0xba>
40004e4e:	086c                	addi	a1,sp,28
40004e50:	8526                	mv	a0,s1
40004e52:	f68ff0ef          	jal	ra,400045ba <emovi>
40004e56:	182c                	addi	a1,sp,56
40004e58:	854e                	mv	a0,s3
40004e5a:	f60ff0ef          	jal	ra,400045ba <emovi>
40004e5e:	03a15b03          	lhu	s6,58(sp)
40004e62:	01e15c03          	lhu	s8,30(sp)
40004e66:	020b1f63          	bnez	s6,40004ea4 <ediv+0x204>
40004e6a:	03a10793          	addi	a5,sp,58
40004e6e:	05010c93          	addi	s9,sp,80
40004e72:	0007d703          	lhu	a4,0(a5)
40004e76:	0789                	addi	a5,a5,2
40004e78:	22071263          	bnez	a4,4000509c <ediv+0x3fc>
40004e7c:	fefc9be3          	bne	s9,a5,40004e72 <ediv+0x1d2>
40004e80:	01440793          	addi	a5,s0,20
40004e84:	0409                	addi	s0,s0,2
40004e86:	fe041f23          	sh	zero,-2(s0)
40004e8a:	fef41de3          	bne	s0,a5,40004e84 <ediv+0x1e4>
40004e8e:	b5f5                	j	40004d7a <ediv+0xda>
40004e90:	01248593          	addi	a1,s1,18
40004e94:	0004d783          	lhu	a5,0(s1)
40004e98:	0489                	addi	s1,s1,2
40004e9a:	22079163          	bnez	a5,400050bc <ediv+0x41c>
40004e9e:	feb49be3          	bne	s1,a1,40004e94 <ediv+0x1f4>
40004ea2:	b7b1                	j	40004dee <ediv+0x14e>
40004ea4:	c25a                	sw	s6,4(sp)
40004ea6:	020c1f63          	bnez	s8,40004ee4 <ediv+0x244>
40004eaa:	01e10793          	addi	a5,sp,30
40004eae:	1854                	addi	a3,sp,52
40004eb0:	0007d703          	lhu	a4,0(a5)
40004eb4:	0789                	addi	a5,a5,2
40004eb6:	1e071a63          	bnez	a4,400050aa <ediv+0x40a>
40004eba:	fed79be3          	bne	a5,a3,40004eb0 <ediv+0x210>
40004ebe:	01c15683          	lhu	a3,28(sp)
40004ec2:	03815603          	lhu	a2,56(sp)
40004ec6:	01240713          	addi	a4,s0,18
40004eca:	87a2                	mv	a5,s0
40004ecc:	8e91                	sub	a3,a3,a2
40004ece:	00d036b3          	snez	a3,a3
40004ed2:	06be                	slli	a3,a3,0xf
40004ed4:	00d41923          	sh	a3,18(s0)
40004ed8:	0789                	addi	a5,a5,2
40004eda:	fe079f23          	sh	zero,-2(a5)
40004ede:	fee79de3          	bne	a5,a4,40004ed8 <ediv+0x238>
40004ee2:	bf25                	j	40004e1a <ediv+0x17a>
40004ee4:	c462                	sw	s8,8(sp)
40004ee6:	03490793          	addi	a5,s2,52
40004eea:	c63e                	sw	a5,12(sp)
40004eec:	57e2                	lw	a5,56(sp)
40004eee:	03890493          	addi	s1,s2,56
40004ef2:	04e90993          	addi	s3,s2,78
40004ef6:	02f92a23          	sw	a5,52(s2)
40004efa:	87a6                	mv	a5,s1
40004efc:	0789                	addi	a5,a5,2
40004efe:	fe079f23          	sh	zero,-2(a5)
40004f02:	ff379de3          	bne	a5,s3,40004efc <ediv+0x25c>
40004f06:	1828                	addi	a0,sp,56
40004f08:	af6ff0ef          	jal	ra,400041fe <eshdn1>
40004f0c:	02215b83          	lhu	s7,34(sp)
40004f10:	6a41                	lui	s4,0x10
40004f12:	03a10d13          	addi	s10,sp,58
40004f16:	010b9a93          	slli	s5,s7,0x10
40004f1a:	417a8ab3          	sub	s5,s5,s7
40004f1e:	05010c93          	addi	s9,sp,80
40004f22:	1a7d                	addi	s4,s4,-1 # ffff <__stack_size+0xfed3>
40004f24:	06e10d93          	addi	s11,sp,110
40004f28:	05610c13          	addi	s8,sp,86
40004f2c:	03c15783          	lhu	a5,60(sp)
40004f30:	03e15703          	lhu	a4,62(sp)
40004f34:	8b52                	mv	s6,s4
40004f36:	07c2                	slli	a5,a5,0x10
40004f38:	97ba                	add	a5,a5,a4
40004f3a:	00fae863          	bltu	s5,a5,40004f4a <ediv+0x2aa>
40004f3e:	0377d7b3          	divu	a5,a5,s7
40004f42:	01079b13          	slli	s6,a5,0x10
40004f46:	010b5b13          	srli	s6,s6,0x10
40004f4a:	08d0                	addi	a2,sp,84
40004f4c:	086c                	addi	a1,sp,28
40004f4e:	855a                	mv	a0,s6
40004f50:	b26ff0ef          	jal	ra,40004276 <m16m>
40004f54:	1878                	addi	a4,sp,60
40004f56:	08bc                	addi	a5,sp,88
40004f58:	0007d603          	lhu	a2,0(a5)
40004f5c:	00075683          	lhu	a3,0(a4)
40004f60:	0789                	addi	a5,a5,2
40004f62:	0709                	addi	a4,a4,2
40004f64:	0ad61963          	bne	a2,a3,40005016 <ediv+0x376>
40004f68:	ffb798e3          	bne	a5,s11,40004f58 <ediv+0x2b8>
40004f6c:	4681                	li	a3,0
40004f6e:	10f0                	addi	a2,sp,108
40004f70:	87e6                	mv	a5,s9
40004f72:	0007d703          	lhu	a4,0(a5)
40004f76:	00065583          	lhu	a1,0(a2)
40004f7a:	17f9                	addi	a5,a5,-2
40004f7c:	1679                	addi	a2,a2,-2
40004f7e:	8f0d                	sub	a4,a4,a1
40004f80:	8f15                	sub	a4,a4,a3
40004f82:	01075693          	srli	a3,a4,0x10
40004f86:	00e79123          	sh	a4,2(a5)
40004f8a:	8a85                	andi	a3,a3,1
40004f8c:	ffa793e3          	bne	a5,s10,40004f72 <ediv+0x2d2>
40004f90:	01649023          	sh	s6,0(s1)
40004f94:	187c                	addi	a5,sp,60
40004f96:	0027d703          	lhu	a4,2(a5)
40004f9a:	0789                	addi	a5,a5,2
40004f9c:	fee79f23          	sh	a4,-2(a5)
40004fa0:	ff979be3          	bne	a5,s9,40004f96 <ediv+0x2f6>
40004fa4:	04011823          	sh	zero,80(sp)
40004fa8:	0489                	addi	s1,s1,2
40004faa:	f89991e3          	bne	s3,s1,40004f2c <ediv+0x28c>
40004fae:	4701                	li	a4,0
40004fb0:	187c                	addi	a5,sp,60
40004fb2:	05210693          	addi	a3,sp,82
40004fb6:	0007d603          	lhu	a2,0(a5)
40004fba:	0789                	addi	a5,a5,2
40004fbc:	8f51                	or	a4,a4,a2
40004fbe:	fed79ce3          	bne	a5,a3,40004fb6 <ediv+0x316>
40004fc2:	44b2                	lw	s1,12(sp)
40004fc4:	00e035b3          	snez	a1,a4
40004fc8:	183c                	addi	a5,sp,56
40004fca:	0004d703          	lhu	a4,0(s1)
40004fce:	0789                	addi	a5,a5,2
40004fd0:	0489                	addi	s1,s1,2
40004fd2:	fee79f23          	sh	a4,-2(a5)
40004fd6:	fef69ae3          	bne	a3,a5,40004fca <ediv+0x32a>
40004fda:	4792                	lw	a5,4(sp)
40004fdc:	4722                	lw	a4,8(sp)
40004fde:	6691                	lui	a3,0x4
40004fe0:	16fd                	addi	a3,a3,-1 # 3fff <__stack_size+0x3ed3>
40004fe2:	40e78b33          	sub	s6,a5,a4
40004fe6:	1828                	addi	a0,sp,56
40004fe8:	87ca                	mv	a5,s2
40004fea:	04000713          	li	a4,64
40004fee:	96da                	add	a3,a3,s6
40004ff0:	4601                	li	a2,0
40004ff2:	f3eff0ef          	jal	ra,40004730 <emdnorm>
40004ff6:	03815703          	lhu	a4,56(sp)
40004ffa:	01c15783          	lhu	a5,28(sp)
40004ffe:	85a2                	mv	a1,s0
40005000:	1828                	addi	a0,sp,56
40005002:	8f99                	sub	a5,a5,a4
40005004:	00f037b3          	snez	a5,a5
40005008:	40f007b3          	neg	a5,a5
4000500c:	02f11c23          	sh	a5,56(sp)
40005010:	aceff0ef          	jal	ra,400042de <emovo.constprop.0>
40005014:	b39d                	j	40004d7a <ediv+0xda>
40005016:	f4c6fbe3          	bgeu	a3,a2,40004f6c <ediv+0x2cc>
4000501a:	fffb0793          	addi	a5,s6,-1
4000501e:	01079313          	slli	t1,a5,0x10
40005022:	01035313          	srli	t1,t1,0x10
40005026:	4681                	li	a3,0
40005028:	1850                	addi	a2,sp,52
4000502a:	10f8                	addi	a4,sp,108
4000502c:	00075783          	lhu	a5,0(a4)
40005030:	00065583          	lhu	a1,0(a2)
40005034:	1779                	addi	a4,a4,-2
40005036:	1679                	addi	a2,a2,-2
40005038:	8f8d                	sub	a5,a5,a1
4000503a:	8f95                	sub	a5,a5,a3
4000503c:	0107d693          	srli	a3,a5,0x10
40005040:	00f71123          	sh	a5,2(a4)
40005044:	8a85                	andi	a3,a3,1
40005046:	ff8713e3          	bne	a4,s8,4000502c <ediv+0x38c>
4000504a:	1878                	addi	a4,sp,60
4000504c:	08bc                	addi	a5,sp,88
4000504e:	0007d603          	lhu	a2,0(a5)
40005052:	00075683          	lhu	a3,0(a4)
40005056:	0789                	addi	a5,a5,2
40005058:	0709                	addi	a4,a4,2
4000505a:	00d61663          	bne	a2,a3,40005066 <ediv+0x3c6>
4000505e:	ffb798e3          	bne	a5,s11,4000504e <ediv+0x3ae>
40005062:	8b1a                	mv	s6,t1
40005064:	b721                	j	40004f6c <ediv+0x2cc>
40005066:	fec6fee3          	bgeu	a3,a2,40005062 <ediv+0x3c2>
4000506a:	ffeb0513          	addi	a0,s6,-2
4000506e:	01051b13          	slli	s6,a0,0x10
40005072:	010b5b13          	srli	s6,s6,0x10
40005076:	4681                	li	a3,0
40005078:	1850                	addi	a2,sp,52
4000507a:	10f8                	addi	a4,sp,108
4000507c:	00075783          	lhu	a5,0(a4)
40005080:	00065583          	lhu	a1,0(a2)
40005084:	1779                	addi	a4,a4,-2
40005086:	1679                	addi	a2,a2,-2
40005088:	8f8d                	sub	a5,a5,a1
4000508a:	8f95                	sub	a5,a5,a3
4000508c:	0107d693          	srli	a3,a5,0x10
40005090:	00f71123          	sh	a5,2(a4)
40005094:	8a85                	andi	a3,a3,1
40005096:	ff8713e3          	bne	a4,s8,4000507c <ediv+0x3dc>
4000509a:	bdc9                	j	40004f6c <ediv+0x2cc>
4000509c:	1828                	addi	a0,sp,56
4000509e:	accff0ef          	jal	ra,4000436a <enormlz>
400050a2:	40a007b3          	neg	a5,a0
400050a6:	c23e                	sw	a5,4(sp)
400050a8:	bbfd                	j	40004ea6 <ediv+0x206>
400050aa:	0868                	addi	a0,sp,28
400050ac:	abeff0ef          	jal	ra,4000436a <enormlz>
400050b0:	40a007b3          	neg	a5,a0
400050b4:	c43e                	sw	a5,8(sp)
400050b6:	bd05                	j	40004ee6 <ediv+0x246>
400050b8:	4781                	li	a5,0
400050ba:	b3a1                	j	40004e02 <ediv+0x162>
400050bc:	4601                	li	a2,0
400050be:	bb0d                	j	40004df0 <ediv+0x150>
400050c0:	4805                	li	a6,1
400050c2:	bb19                	j	40004dd8 <ediv+0x138>

400050c4 <emul>:
400050c4:	01255803          	lhu	a6,18(a0)
400050c8:	6721                	lui	a4,0x8
400050ca:	7175                	addi	sp,sp,-144
400050cc:	177d                	addi	a4,a4,-1 # 7fff <__stack_size+0x7ed3>
400050ce:	c522                	sw	s0,136(sp)
400050d0:	c326                	sw	s1,132(sp)
400050d2:	c14a                	sw	s2,128(sp)
400050d4:	dad6                	sw	s5,116(sp)
400050d6:	84aa                	mv	s1,a0
400050d8:	c706                	sw	ra,140(sp)
400050da:	dece                	sw	s3,124(sp)
400050dc:	dcd2                	sw	s4,120(sp)
400050de:	d8da                	sw	s6,112(sp)
400050e0:	d6de                	sw	s7,108(sp)
400050e2:	d4e2                	sw	s8,104(sp)
400050e4:	d2e6                	sw	s9,100(sp)
400050e6:	d0ea                	sw	s10,96(sp)
400050e8:	00e87533          	and	a0,a6,a4
400050ec:	892e                	mv	s2,a1
400050ee:	8432                	mv	s0,a2
400050f0:	8ab6                	mv	s5,a3
400050f2:	12e51263          	bne	a0,a4,40005216 <emul+0x152>
400050f6:	01248993          	addi	s3,s1,18
400050fa:	8726                	mv	a4,s1
400050fc:	00075603          	lhu	a2,0(a4)
40005100:	0709                	addi	a4,a4,2
40005102:	18061463          	bnez	a2,4000528a <emul+0x1c6>
40005106:	ff371be3          	bne	a4,s3,400050fc <emul+0x38>
4000510a:	01295603          	lhu	a2,18(s2)
4000510e:	fff64793          	not	a5,a2
40005112:	01179713          	slli	a4,a5,0x11
40005116:	10070663          	beqz	a4,40005222 <emul+0x15e>
4000511a:	87a6                	mv	a5,s1
4000511c:	0007d703          	lhu	a4,0(a5)
40005120:	0789                	addi	a5,a5,2
40005122:	1e071763          	bnez	a4,40005310 <emul+0x24c>
40005126:	ff379be3          	bne	a5,s3,4000511c <emul+0x58>
4000512a:	800005b7          	lui	a1,0x80000
4000512e:	7ac58593          	addi	a1,a1,1964 # 800007ac <_bss_lma+0xfffffd0c>
40005132:	854a                	mv	a0,s2
40005134:	d14ff0ef          	jal	ra,40004648 <ecmp>
40005138:	1e050563          	beqz	a0,40005322 <emul+0x25e>
4000513c:	01295603          	lhu	a2,18(s2)
40005140:	6721                	lui	a4,0x8
40005142:	177d                	addi	a4,a4,-1 # 7fff <__stack_size+0x7ed3>
40005144:	00e676b3          	and	a3,a2,a4
40005148:	01290793          	addi	a5,s2,18
4000514c:	30e69363          	bne	a3,a4,40005452 <emul+0x38e>
40005150:	874a                	mv	a4,s2
40005152:	00075683          	lhu	a3,0(a4)
40005156:	0709                	addi	a4,a4,2
40005158:	18069163          	bnez	a3,400052da <emul+0x216>
4000515c:	fef71be3          	bne	a4,a5,40005152 <emul+0x8e>
40005160:	800005b7          	lui	a1,0x80000
40005164:	7ac58593          	addi	a1,a1,1964 # 800007ac <_bss_lma+0xfffffd0c>
40005168:	8526                	mv	a0,s1
4000516a:	cdeff0ef          	jal	ra,40004648 <ecmp>
4000516e:	1a050a63          	beqz	a0,40005322 <emul+0x25e>
40005172:	0124d803          	lhu	a6,18(s1)
40005176:	01295603          	lhu	a2,18(s2)
4000517a:	67a1                	lui	a5,0x8
4000517c:	17fd                	addi	a5,a5,-1 # 7fff <__stack_size+0x7ed3>
4000517e:	00f87733          	and	a4,a6,a5
40005182:	00f676b3          	and	a3,a2,a5
40005186:	16f70263          	beq	a4,a5,400052ea <emul+0x226>
4000518a:	85b6                	mv	a1,a3
4000518c:	86ba                	mv	a3,a4
4000518e:	67a1                	lui	a5,0x8
40005190:	17fd                	addi	a5,a5,-1 # 7fff <__stack_size+0x7ed3>
40005192:	0af59b63          	bne	a1,a5,40005248 <emul+0x184>
40005196:	01290793          	addi	a5,s2,18
4000519a:	874a                	mv	a4,s2
4000519c:	00075583          	lhu	a1,0(a4)
400051a0:	0709                	addi	a4,a4,2
400051a2:	e1dd                	bnez	a1,40005248 <emul+0x184>
400051a4:	fee79ce3          	bne	a5,a4,4000519c <emul+0xd8>
400051a8:	6721                	lui	a4,0x8
400051aa:	177d                	addi	a4,a4,-1 # 7fff <__stack_size+0x7ed3>
400051ac:	01248993          	addi	s3,s1,18
400051b0:	18e69a63          	bne	a3,a4,40005344 <emul+0x280>
400051b4:	0004d783          	lhu	a5,0(s1)
400051b8:	0489                	addi	s1,s1,2
400051ba:	18079a63          	bnez	a5,4000534e <emul+0x28a>
400051be:	fe999be3          	bne	s3,s1,400051b4 <emul+0xf0>
400051c2:	00f85813          	srli	a6,a6,0xf
400051c6:	67a1                	lui	a5,0x8
400051c8:	17fd                	addi	a5,a5,-1 # 7fff <__stack_size+0x7ed3>
400051ca:	12f68a63          	beq	a3,a5,400052fe <emul+0x23a>
400051ce:	00f65793          	srli	a5,a2,0xf
400051d2:	0107c7b3          	xor	a5,a5,a6
400051d6:	07be                	slli	a5,a5,0xf
400051d8:	00f41923          	sh	a5,18(s0)
400051dc:	01240713          	addi	a4,s0,18
400051e0:	87a2                	mv	a5,s0
400051e2:	0789                	addi	a5,a5,2
400051e4:	fe079f23          	sh	zero,-2(a5)
400051e8:	fee79de3          	bne	a5,a4,400051e2 <emul+0x11e>
400051ec:	01245783          	lhu	a5,18(s0)
400051f0:	6721                	lui	a4,0x8
400051f2:	177d                	addi	a4,a4,-1 # 7fff <__stack_size+0x7ed3>
400051f4:	8fd9                	or	a5,a5,a4
400051f6:	00f41923          	sh	a5,18(s0)
400051fa:	40ba                	lw	ra,140(sp)
400051fc:	442a                	lw	s0,136(sp)
400051fe:	449a                	lw	s1,132(sp)
40005200:	490a                	lw	s2,128(sp)
40005202:	59f6                	lw	s3,124(sp)
40005204:	5a66                	lw	s4,120(sp)
40005206:	5ad6                	lw	s5,116(sp)
40005208:	5b46                	lw	s6,112(sp)
4000520a:	5bb6                	lw	s7,108(sp)
4000520c:	5c26                	lw	s8,104(sp)
4000520e:	5c96                	lw	s9,100(sp)
40005210:	5d06                	lw	s10,96(sp)
40005212:	6149                	addi	sp,sp,144
40005214:	8082                	ret
40005216:	0125d603          	lhu	a2,18(a1)
4000521a:	00e677b3          	and	a5,a2,a4
4000521e:	02e79563          	bne	a5,a4,40005248 <emul+0x184>
40005222:	01290793          	addi	a5,s2,18
40005226:	874a                	mv	a4,s2
40005228:	00075683          	lhu	a3,0(a4)
4000522c:	0709                	addi	a4,a4,2
4000522e:	eaad                	bnez	a3,400052a0 <emul+0x1dc>
40005230:	fef71ce3          	bne	a4,a5,40005228 <emul+0x164>
40005234:	6721                	lui	a4,0x8
40005236:	177d                	addi	a4,a4,-1 # 7fff <__stack_size+0x7ed3>
40005238:	01248993          	addi	s3,s1,18
4000523c:	ece50fe3          	beq	a0,a4,4000511a <emul+0x56>
40005240:	00e676b3          	and	a3,a2,a4
40005244:	f0e686e3          	beq	a3,a4,40005150 <emul+0x8c>
40005248:	8526                	mv	a0,s1
4000524a:	006c                	addi	a1,sp,12
4000524c:	b6eff0ef          	jal	ra,400045ba <emovi>
40005250:	854a                	mv	a0,s2
40005252:	102c                	addi	a1,sp,40
40005254:	b66ff0ef          	jal	ra,400045ba <emovi>
40005258:	00e15903          	lhu	s2,14(sp)
4000525c:	02a15483          	lhu	s1,42(sp)
40005260:	04090b63          	beqz	s2,400052b6 <emul+0x1f2>
40005264:	e8fd                	bnez	s1,4000535a <emul+0x296>
40005266:	02a10793          	addi	a5,sp,42
4000526a:	0094                	addi	a3,sp,64
4000526c:	0007d703          	lhu	a4,0(a5)
40005270:	0789                	addi	a5,a5,2
40005272:	1c071863          	bnez	a4,40005442 <emul+0x37e>
40005276:	fed79be3          	bne	a5,a3,4000526c <emul+0x1a8>
4000527a:	01440793          	addi	a5,s0,20
4000527e:	0409                	addi	s0,s0,2
40005280:	fe041f23          	sh	zero,-2(s0)
40005284:	fe879de3          	bne	a5,s0,4000527e <emul+0x1ba>
40005288:	bf8d                	j	400051fa <emul+0x136>
4000528a:	01440713          	addi	a4,s0,20
4000528e:	0004d783          	lhu	a5,0(s1)
40005292:	0409                	addi	s0,s0,2
40005294:	0489                	addi	s1,s1,2
40005296:	fef41f23          	sh	a5,-2(s0)
4000529a:	fee41ae3          	bne	s0,a4,4000528e <emul+0x1ca>
4000529e:	bfb1                	j	400051fa <emul+0x136>
400052a0:	01490713          	addi	a4,s2,20
400052a4:	00095783          	lhu	a5,0(s2)
400052a8:	0909                	addi	s2,s2,2
400052aa:	0409                	addi	s0,s0,2
400052ac:	fef41f23          	sh	a5,-2(s0)
400052b0:	ff271ae3          	bne	a4,s2,400052a4 <emul+0x1e0>
400052b4:	b799                	j	400051fa <emul+0x136>
400052b6:	00e10793          	addi	a5,sp,14
400052ba:	1054                	addi	a3,sp,36
400052bc:	0007d703          	lhu	a4,0(a5)
400052c0:	0789                	addi	a5,a5,2
400052c2:	16071a63          	bnez	a4,40005436 <emul+0x372>
400052c6:	fef69be3          	bne	a3,a5,400052bc <emul+0x1f8>
400052ca:	01440793          	addi	a5,s0,20
400052ce:	0409                	addi	s0,s0,2
400052d0:	fe041f23          	sh	zero,-2(s0)
400052d4:	fef41de3          	bne	s0,a5,400052ce <emul+0x20a>
400052d8:	b70d                	j	400051fa <emul+0x136>
400052da:	0124d803          	lhu	a6,18(s1)
400052de:	6721                	lui	a4,0x8
400052e0:	177d                	addi	a4,a4,-1 # 7fff <__stack_size+0x7ed3>
400052e2:	00e876b3          	and	a3,a6,a4
400052e6:	eae69ae3          	bne	a3,a4,4000519a <emul+0xd6>
400052ea:	01248993          	addi	s3,s1,18
400052ee:	87a6                	mv	a5,s1
400052f0:	0007d703          	lhu	a4,0(a5)
400052f4:	0789                	addi	a5,a5,2
400052f6:	ef31                	bnez	a4,40005352 <emul+0x28e>
400052f8:	fef99ce3          	bne	s3,a5,400052f0 <emul+0x22c>
400052fc:	bd65                	j	400051b4 <emul+0xf0>
400052fe:	01290793          	addi	a5,s2,18
40005302:	00095703          	lhu	a4,0(s2)
40005306:	0909                	addi	s2,s2,2
40005308:	e329                	bnez	a4,4000534a <emul+0x286>
4000530a:	ff279ce3          	bne	a5,s2,40005302 <emul+0x23e>
4000530e:	b5c1                	j	400051ce <emul+0x10a>
40005310:	6721                	lui	a4,0x8
40005312:	177d                	addi	a4,a4,-1 # 7fff <__stack_size+0x7ed3>
40005314:	00e676b3          	and	a3,a2,a4
40005318:	01290793          	addi	a5,s2,18
4000531c:	e2e68ae3          	beq	a3,a4,40005150 <emul+0x8c>
40005320:	b7f9                	j	400052ee <emul+0x22a>
40005322:	01040713          	addi	a4,s0,16
40005326:	87a2                	mv	a5,s0
40005328:	0789                	addi	a5,a5,2
4000532a:	fe079f23          	sh	zero,-2(a5)
4000532e:	fee79de3          	bne	a5,a4,40005328 <emul+0x264>
40005332:	77f1                	lui	a5,0xffffc
40005334:	00f41823          	sh	a5,16(s0)
40005338:	77e1                	lui	a5,0xffff8
4000533a:	fff7c793          	not	a5,a5
4000533e:	00f41923          	sh	a5,18(s0)
40005342:	bd65                	j	400051fa <emul+0x136>
40005344:	00f85813          	srli	a6,a6,0xf
40005348:	bf6d                	j	40005302 <emul+0x23e>
4000534a:	4781                	li	a5,0
4000534c:	b559                	j	400051d2 <emul+0x10e>
4000534e:	4801                	li	a6,0
40005350:	bd9d                	j	400051c6 <emul+0x102>
40005352:	85b6                	mv	a1,a3
40005354:	66a1                	lui	a3,0x8
40005356:	16fd                	addi	a3,a3,-1 # 7fff <__stack_size+0x7ed3>
40005358:	bd1d                	j	4000518e <emul+0xca>
4000535a:	89a6                	mv	s3,s1
4000535c:	02815783          	lhu	a5,40(sp)
40005360:	04c2                	slli	s1,s1,0x10
40005362:	038a8a13          	addi	s4,s5,56
40005366:	8fc5                	or	a5,a5,s1
40005368:	02faaa23          	sw	a5,52(s5)
4000536c:	034a8493          	addi	s1,s5,52
40005370:	87d2                	mv	a5,s4
40005372:	04ea8713          	addi	a4,s5,78
40005376:	00079023          	sh	zero,0(a5) # ffff8000 <_bss_lma+0x7fff7560>
4000537a:	0789                	addi	a5,a5,2
4000537c:	fee79de3          	bne	a5,a4,40005376 <emul+0x2b2>
40005380:	04ca8c93          	addi	s9,s5,76
40005384:	4c01                	li	s8,0
40005386:	02410b13          	addi	s6,sp,36
4000538a:	01010d13          	addi	s10,sp,16
4000538e:	04610b93          	addi	s7,sp,70
40005392:	000b5503          	lhu	a0,0(s6)
40005396:	1b79                	addi	s6,s6,-2
40005398:	e925                	bnez	a0,40005408 <emul+0x344>
4000539a:	04cad783          	lhu	a5,76(s5)
4000539e:	8766                	mv	a4,s9
400053a0:	00fc6c33          	or	s8,s8,a5
400053a4:	ffe75603          	lhu	a2,-2(a4)
400053a8:	1779                	addi	a4,a4,-2
400053aa:	00c71123          	sh	a2,2(a4)
400053ae:	feea1be3          	bne	s4,a4,400053a4 <emul+0x2e0>
400053b2:	020a9c23          	sh	zero,56(s5)
400053b6:	fdab1ee3          	bne	s6,s10,40005392 <emul+0x2ce>
400053ba:	103c                	addi	a5,sp,40
400053bc:	04210693          	addi	a3,sp,66
400053c0:	0004d703          	lhu	a4,0(s1)
400053c4:	0789                	addi	a5,a5,2
400053c6:	0489                	addi	s1,s1,2
400053c8:	fee79f23          	sh	a4,-2(a5)
400053cc:	fef69ae3          	bne	a3,a5,400053c0 <emul+0x2fc>
400053d0:	76f1                	lui	a3,0xffffc
400053d2:	994e                	add	s2,s2,s3
400053d4:	0689                	addi	a3,a3,2 # ffffc002 <_bss_lma+0x7fffb562>
400053d6:	85e2                	mv	a1,s8
400053d8:	1028                	addi	a0,sp,40
400053da:	87d6                	mv	a5,s5
400053dc:	04000713          	li	a4,64
400053e0:	96ca                	add	a3,a3,s2
400053e2:	4601                	li	a2,0
400053e4:	b4cff0ef          	jal	ra,40004730 <emdnorm>
400053e8:	02815703          	lhu	a4,40(sp)
400053ec:	00c15783          	lhu	a5,12(sp)
400053f0:	85a2                	mv	a1,s0
400053f2:	1028                	addi	a0,sp,40
400053f4:	8f99                	sub	a5,a5,a4
400053f6:	00f037b3          	snez	a5,a5
400053fa:	40f007b3          	neg	a5,a5
400053fe:	02f11423          	sh	a5,40(sp)
40005402:	eddfe0ef          	jal	ra,400042de <emovo.constprop.0>
40005406:	bbd5                	j	400051fa <emul+0x136>
40005408:	00d0                	addi	a2,sp,68
4000540a:	102c                	addi	a1,sp,40
4000540c:	e6bfe0ef          	jal	ra,40004276 <m16m>
40005410:	8566                	mv	a0,s9
40005412:	4581                	li	a1,0
40005414:	08f0                	addi	a2,sp,92
40005416:	00055783          	lhu	a5,0(a0)
4000541a:	00065703          	lhu	a4,0(a2)
4000541e:	1579                	addi	a0,a0,-2
40005420:	1679                	addi	a2,a2,-2
40005422:	973e                	add	a4,a4,a5
40005424:	972e                	add	a4,a4,a1
40005426:	01075593          	srli	a1,a4,0x10
4000542a:	00e51123          	sh	a4,2(a0)
4000542e:	8985                	andi	a1,a1,1
40005430:	ff7613e3          	bne	a2,s7,40005416 <emul+0x352>
40005434:	b79d                	j	4000539a <emul+0x2d6>
40005436:	0068                	addi	a0,sp,12
40005438:	f33fe0ef          	jal	ra,4000436a <enormlz>
4000543c:	40a00933          	neg	s2,a0
40005440:	b515                	j	40005264 <emul+0x1a0>
40005442:	1028                	addi	a0,sp,40
40005444:	f27fe0ef          	jal	ra,4000436a <enormlz>
40005448:	40a009b3          	neg	s3,a0
4000544c:	02a15483          	lhu	s1,42(sp)
40005450:	b731                	j	4000535c <emul+0x298>
40005452:	0124d803          	lhu	a6,18(s1)
40005456:	00e877b3          	and	a5,a6,a4
4000545a:	e8e78ae3          	beq	a5,a4,400052ee <emul+0x22a>
4000545e:	b3ed                	j	40005248 <emul+0x184>

40005460 <_ldtoa_r>:
40005460:	00c5a883          	lw	a7,12(a1)
40005464:	7101                	addi	sp,sp,-512
40005466:	0005ae83          	lw	t4,0(a1)
4000546a:	0045ae03          	lw	t3,4(a1)
4000546e:	0085a303          	lw	t1,8(a1)
40005472:	c6c6                	sw	a7,76(sp)
40005474:	412c                	lw	a1,64(a0)
40005476:	58fd                	li	a7,-1
40005478:	17112823          	sw	a7,368(sp)
4000547c:	09000893          	li	a7,144
40005480:	1e812c23          	sw	s0,504(sp)
40005484:	1f412423          	sw	s4,488(sp)
40005488:	1e112e23          	sw	ra,508(sp)
4000548c:	1e912a23          	sw	s1,500(sp)
40005490:	1f212823          	sw	s2,496(sp)
40005494:	1f312623          	sw	s3,492(sp)
40005498:	1f512223          	sw	s5,484(sp)
4000549c:	1f612023          	sw	s6,480(sp)
400054a0:	1d712e23          	sw	s7,476(sp)
400054a4:	1d812c23          	sw	s8,472(sp)
400054a8:	1d912a23          	sw	s9,468(sp)
400054ac:	1da12823          	sw	s10,464(sp)
400054b0:	1db12623          	sw	s11,460(sp)
400054b4:	c02a                	sw	a0,0(sp)
400054b6:	c0f6                	sw	t4,64(sp)
400054b8:	c2f2                	sw	t3,68(sp)
400054ba:	c49a                	sw	t1,72(sp)
400054bc:	17112a23          	sw	a7,372(sp)
400054c0:	c436                	sw	a3,8(sp)
400054c2:	c63a                	sw	a4,12(sp)
400054c4:	c842                	sw	a6,16(sp)
400054c6:	8a32                	mv	s4,a2
400054c8:	843e                	mv	s0,a5
400054ca:	cd81                	beqz	a1,400054e2 <_ldtoa_r+0x82>
400054cc:	4178                	lw	a4,68(a0)
400054ce:	4785                	li	a5,1
400054d0:	84aa                	mv	s1,a0
400054d2:	00e797b3          	sll	a5,a5,a4
400054d6:	c1d8                	sw	a4,4(a1)
400054d8:	c59c                	sw	a5,8(a1)
400054da:	4fe010ef          	jal	ra,400069d8 <_Bfree>
400054de:	0404a023          	sw	zero,64(s1)
400054e2:	188c                	addi	a1,sp,112
400054e4:	0088                	addi	a0,sp,64
400054e6:	ec0ff0ef          	jal	ra,40004ba6 <e113toe.isra.0>
400054ea:	08215603          	lhu	a2,130(sp)
400054ee:	6721                	lui	a4,0x8
400054f0:	177d                	addi	a4,a4,-1 # 7fff <__stack_size+0x7ed3>
400054f2:	00e677b3          	and	a5,a2,a4
400054f6:	ca3e                	sw	a5,20(sp)
400054f8:	34e78563          	beq	a5,a4,40005842 <_ldtoa_r+0x3e2>
400054fc:	823d                	srli	a2,a2,0xf
400054fe:	c010                	sw	a2,0(s0)
40005500:	478d                	li	a5,3
40005502:	70fa0263          	beq	s4,a5,40005c06 <_ldtoa_r+0x7a6>
40005506:	47d1                	li	a5,20
40005508:	c23e                	sw	a5,4(sp)
4000550a:	700a1663          	bnez	s4,40005c16 <_ldtoa_r+0x7b6>
4000550e:	189c                	addi	a5,sp,112
40005510:	0150                	addi	a2,sp,132
40005512:	0178                	addi	a4,sp,140
40005514:	4394                	lw	a3,0(a5)
40005516:	0791                	addi	a5,a5,4
40005518:	0711                	addi	a4,a4,4
4000551a:	fed72e23          	sw	a3,-4(a4)
4000551e:	fef61be3          	bne	a2,a5,40005514 <_ldtoa_r+0xb4>
40005522:	09e15d03          	lhu	s10,158(sp)
40005526:	4901                	li	s2,0
40005528:	010d1793          	slli	a5,s10,0x10
4000552c:	87c1                	srai	a5,a5,0x10
4000552e:	0007da63          	bgez	a5,40005542 <_ldtoa_r+0xe2>
40005532:	0d46                	slli	s10,s10,0x11
40005534:	011d5d13          	srli	s10,s10,0x11
40005538:	67c1                	lui	a5,0x10
4000553a:	09a11f23          	sh	s10,158(sp)
4000553e:	fff78913          	addi	s2,a5,-1 # ffff <__stack_size+0xfed3>
40005542:	80000bb7          	lui	s7,0x80000
40005546:	798b8713          	addi	a4,s7,1944 # 80000798 <_bss_lma+0xfffffcf8>
4000554a:	0a810993          	addi	s3,sp,168
4000554e:	01470a93          	addi	s5,a4,20
40005552:	864e                	mv	a2,s3
40005554:	798b8693          	addi	a3,s7,1944
40005558:	429c                	lw	a5,0(a3)
4000555a:	0691                	addi	a3,a3,4
4000555c:	0611                	addi	a2,a2,4
4000555e:	fef62e23          	sw	a5,-4(a2)
40005562:	ff569be3          	bne	a3,s5,40005558 <_ldtoa_r+0xf8>
40005566:	500d1e63          	bnez	s10,40005a82 <_ldtoa_r+0x622>
4000556a:	017c                	addi	a5,sp,140
4000556c:	09e10593          	addi	a1,sp,158
40005570:	86be                	mv	a3,a5
40005572:	0006d783          	lhu	a5,0(a3)
40005576:	50079e63          	bnez	a5,40005a92 <_ldtoa_r+0x632>
4000557a:	0689                	addi	a3,a3,2
4000557c:	fed59be3          	bne	a1,a3,40005572 <_ldtoa_r+0x112>
40005580:	4401                	li	s0,0
40005582:	13410d93          	addi	s11,sp,308
40005586:	17010b13          	addi	s6,sp,368
4000558a:	0e010c13          	addi	s8,sp,224
4000558e:	19a4                	addi	s1,sp,248
40005590:	85e2                	mv	a1,s8
40005592:	1128                	addi	a0,sp,168
40005594:	826ff0ef          	jal	ra,400045ba <emovi>
40005598:	8ae2                	mv	s5,s8
4000559a:	8762                	mv	a4,s8
4000559c:	431c                	lw	a5,0(a4)
4000559e:	0711                	addi	a4,a4,4
400055a0:	0991                	addi	s3,s3,4
400055a2:	fef9ae23          	sw	a5,-4(s3)
400055a6:	fee49be3          	bne	s1,a4,4000559c <_ldtoa_r+0x13c>
400055aa:	85e2                	mv	a1,s8
400055ac:	0168                	addi	a0,sp,140
400055ae:	0c011023          	sh	zero,192(sp)
400055b2:	808ff0ef          	jal	ra,400045ba <emovi>
400055b6:	0a410d13          	addi	s10,sp,164
400055ba:	017c                	addi	a5,sp,140
400055bc:	000aa703          	lw	a4,0(s5)
400055c0:	0791                	addi	a5,a5,4
400055c2:	0a91                	addi	s5,s5,4
400055c4:	fee7ae23          	sw	a4,-4(a5)
400055c8:	ffa79ae3          	bne	a5,s10,400055bc <_ldtoa_r+0x15c>
400055cc:	1128                	addi	a0,sp,168
400055ce:	865a                	mv	a2,s6
400055d0:	016c                	addi	a1,sp,140
400055d2:	0a011223          	sh	zero,164(sp)
400055d6:	cdcff0ef          	jal	ra,40004ab2 <eiremain>
400055da:	1bc15503          	lhu	a0,444(sp)
400055de:	80000ab7          	lui	s5,0x80000
400055e2:	10051363          	bnez	a0,400056e8 <_ldtoa_r+0x288>
400055e6:	08e10c93          	addi	s9,sp,142
400055ea:	0c610b93          	addi	s7,sp,198
400055ee:	7aca8593          	addi	a1,s5,1964 # 800007ac <_bss_lma+0xfffffd0c>
400055f2:	0168                	addi	a0,sp,140
400055f4:	854ff0ef          	jal	ra,40004648 <ecmp>
400055f8:	c965                	beqz	a0,400056e8 <_ldtoa_r+0x288>
400055fa:	4701                	li	a4,0
400055fc:	1154                	addi	a3,sp,164
400055fe:	0006d783          	lhu	a5,0(a3)
40005602:	01079613          	slli	a2,a5,0x10
40005606:	8641                	srai	a2,a2,0x10
40005608:	00065463          	bgez	a2,40005610 <_ldtoa_r+0x1b0>
4000560c:	00176713          	ori	a4,a4,1
40005610:	0786                	slli	a5,a5,0x1
40005612:	07c2                	slli	a5,a5,0x10
40005614:	00277613          	andi	a2,a4,2
40005618:	83c1                	srli	a5,a5,0x10
4000561a:	c219                	beqz	a2,40005620 <_ldtoa_r+0x1c0>
4000561c:	0017e793          	ori	a5,a5,1
40005620:	0706                	slli	a4,a4,0x1
40005622:	00f69023          	sh	a5,0(a3)
40005626:	0742                	slli	a4,a4,0x10
40005628:	16f9                	addi	a3,a3,-2
4000562a:	8341                	srli	a4,a4,0x10
4000562c:	fd9699e3          	bne	a3,s9,400055fe <_ldtoa_r+0x19e>
40005630:	01d8                	addi	a4,sp,196
40005632:	017c                	addi	a5,sp,140
40005634:	4394                	lw	a3,0(a5)
40005636:	0791                	addi	a5,a5,4
40005638:	0711                	addi	a4,a4,4
4000563a:	fed72e23          	sw	a3,-4(a4)
4000563e:	ffa79be3          	bne	a5,s10,40005634 <_ldtoa_r+0x1d4>
40005642:	0c011e23          	sh	zero,220(sp)
40005646:	4701                	li	a4,0
40005648:	09f4                	addi	a3,sp,220
4000564a:	0006d783          	lhu	a5,0(a3)
4000564e:	01079613          	slli	a2,a5,0x10
40005652:	8641                	srai	a2,a2,0x10
40005654:	00065463          	bgez	a2,4000565c <_ldtoa_r+0x1fc>
40005658:	00176713          	ori	a4,a4,1
4000565c:	0786                	slli	a5,a5,0x1
4000565e:	07c2                	slli	a5,a5,0x10
40005660:	00277613          	andi	a2,a4,2
40005664:	83c1                	srli	a5,a5,0x10
40005666:	c219                	beqz	a2,4000566c <_ldtoa_r+0x20c>
40005668:	0017e793          	ori	a5,a5,1
4000566c:	0706                	slli	a4,a4,0x1
4000566e:	00f69023          	sh	a5,0(a3)
40005672:	0742                	slli	a4,a4,0x10
40005674:	16f9                	addi	a3,a3,-2
40005676:	8341                	srli	a4,a4,0x10
40005678:	fd7699e3          	bne	a3,s7,4000564a <_ldtoa_r+0x1ea>
4000567c:	4701                	li	a4,0
4000567e:	09f4                	addi	a3,sp,220
40005680:	0006d783          	lhu	a5,0(a3)
40005684:	01079613          	slli	a2,a5,0x10
40005688:	8641                	srai	a2,a2,0x10
4000568a:	00065463          	bgez	a2,40005692 <_ldtoa_r+0x232>
4000568e:	00176713          	ori	a4,a4,1
40005692:	0786                	slli	a5,a5,0x1
40005694:	07c2                	slli	a5,a5,0x10
40005696:	00277613          	andi	a2,a4,2
4000569a:	83c1                	srli	a5,a5,0x10
4000569c:	c219                	beqz	a2,400056a2 <_ldtoa_r+0x242>
4000569e:	0017e793          	ori	a5,a5,1
400056a2:	0706                	slli	a4,a4,0x1
400056a4:	00f69023          	sh	a5,0(a3)
400056a8:	0742                	slli	a4,a4,0x10
400056aa:	16f9                	addi	a3,a3,-2
400056ac:	8341                	srli	a4,a4,0x10
400056ae:	fd7699e3          	bne	a3,s7,40005680 <_ldtoa_r+0x220>
400056b2:	4601                	li	a2,0
400056b4:	1154                	addi	a3,sp,164
400056b6:	09f8                	addi	a4,sp,220
400056b8:	0006d583          	lhu	a1,0(a3)
400056bc:	00075783          	lhu	a5,0(a4)
400056c0:	16f9                	addi	a3,a3,-2
400056c2:	1779                	addi	a4,a4,-2
400056c4:	97ae                	add	a5,a5,a1
400056c6:	97b2                	add	a5,a5,a2
400056c8:	0107d613          	srli	a2,a5,0x10
400056cc:	00f69123          	sh	a5,2(a3)
400056d0:	8a05                	andi	a2,a2,1
400056d2:	ff7713e3          	bne	a4,s7,400056b8 <_ldtoa_r+0x258>
400056d6:	1128                	addi	a0,sp,168
400056d8:	865a                	mv	a2,s6
400056da:	016c                	addi	a1,sp,140
400056dc:	bd6ff0ef          	jal	ra,40004ab2 <eiremain>
400056e0:	1bc15503          	lhu	a0,444(sp)
400056e4:	147d                	addi	s0,s0,-1
400056e6:	d501                	beqz	a0,400055ee <_ldtoa_r+0x18e>
400056e8:	00193793          	seqz	a5,s2
400056ec:	40f007b3          	neg	a5,a5
400056f0:	9bcd                	andi	a5,a5,-13
400056f2:	02d78793          	addi	a5,a5,45
400056f6:	12f10a23          	sb	a5,308(sp)
400056fa:	470d                	li	a4,3
400056fc:	4792                	lw	a5,4(sp)
400056fe:	00ea1363          	bne	s4,a4,40005704 <_ldtoa_r+0x2a4>
40005702:	97a2                	add	a5,a5,s0
40005704:	02a00713          	li	a4,42
40005708:	84be                	mv	s1,a5
4000570a:	00f75463          	bge	a4,a5,40005712 <_ldtoa_r+0x2b2>
4000570e:	02a00493          	li	s1,42
40005712:	4729                	li	a4,10
40005714:	4ce50663          	beq	a0,a4,40005be0 <_ldtoa_r+0x780>
40005718:	03050513          	addi	a0,a0,48
4000571c:	02e00713          	li	a4,46
40005720:	12a10aa3          	sb	a0,309(sp)
40005724:	12e10b23          	sb	a4,310(sp)
40005728:	1a07c763          	bltz	a5,400058d6 <_ldtoa_r+0x476>
4000572c:	13710993          	addi	s3,sp,311
40005730:	4c01                	li	s8,0
40005732:	0c410c93          	addi	s9,sp,196
40005736:	0dc10d13          	addi	s10,sp,220
4000573a:	08e10b93          	addi	s7,sp,142
4000573e:	0c610a93          	addi	s5,sp,198
40005742:	4701                	li	a4,0
40005744:	1154                	addi	a3,sp,164
40005746:	0006d783          	lhu	a5,0(a3)
4000574a:	01079613          	slli	a2,a5,0x10
4000574e:	8641                	srai	a2,a2,0x10
40005750:	00065463          	bgez	a2,40005758 <_ldtoa_r+0x2f8>
40005754:	00176713          	ori	a4,a4,1
40005758:	0786                	slli	a5,a5,0x1
4000575a:	07c2                	slli	a5,a5,0x10
4000575c:	00277613          	andi	a2,a4,2
40005760:	83c1                	srli	a5,a5,0x10
40005762:	c219                	beqz	a2,40005768 <_ldtoa_r+0x308>
40005764:	0017e793          	ori	a5,a5,1
40005768:	0706                	slli	a4,a4,0x1
4000576a:	00f69023          	sh	a5,0(a3)
4000576e:	0742                	slli	a4,a4,0x10
40005770:	16f9                	addi	a3,a3,-2
40005772:	8341                	srli	a4,a4,0x10
40005774:	fd7699e3          	bne	a3,s7,40005746 <_ldtoa_r+0x2e6>
40005778:	87e6                	mv	a5,s9
4000577a:	0178                	addi	a4,sp,140
4000577c:	4314                	lw	a3,0(a4)
4000577e:	0791                	addi	a5,a5,4
40005780:	0711                	addi	a4,a4,4
40005782:	fed7ae23          	sw	a3,-4(a5)
40005786:	fefd1be3          	bne	s10,a5,4000577c <_ldtoa_r+0x31c>
4000578a:	0c011e23          	sh	zero,220(sp)
4000578e:	4701                	li	a4,0
40005790:	86ea                	mv	a3,s10
40005792:	0006d783          	lhu	a5,0(a3)
40005796:	01079613          	slli	a2,a5,0x10
4000579a:	8641                	srai	a2,a2,0x10
4000579c:	00065463          	bgez	a2,400057a4 <_ldtoa_r+0x344>
400057a0:	00176713          	ori	a4,a4,1
400057a4:	0786                	slli	a5,a5,0x1
400057a6:	07c2                	slli	a5,a5,0x10
400057a8:	00277613          	andi	a2,a4,2
400057ac:	83c1                	srli	a5,a5,0x10
400057ae:	c219                	beqz	a2,400057b4 <_ldtoa_r+0x354>
400057b0:	0017e793          	ori	a5,a5,1
400057b4:	0706                	slli	a4,a4,0x1
400057b6:	00f69023          	sh	a5,0(a3)
400057ba:	0742                	slli	a4,a4,0x10
400057bc:	16f9                	addi	a3,a3,-2
400057be:	8341                	srli	a4,a4,0x10
400057c0:	fd5699e3          	bne	a3,s5,40005792 <_ldtoa_r+0x332>
400057c4:	4701                	li	a4,0
400057c6:	86ea                	mv	a3,s10
400057c8:	0006d783          	lhu	a5,0(a3)
400057cc:	01079613          	slli	a2,a5,0x10
400057d0:	8641                	srai	a2,a2,0x10
400057d2:	00065463          	bgez	a2,400057da <_ldtoa_r+0x37a>
400057d6:	00176713          	ori	a4,a4,1
400057da:	0786                	slli	a5,a5,0x1
400057dc:	07c2                	slli	a5,a5,0x10
400057de:	00277613          	andi	a2,a4,2
400057e2:	83c1                	srli	a5,a5,0x10
400057e4:	c219                	beqz	a2,400057ea <_ldtoa_r+0x38a>
400057e6:	0017e793          	ori	a5,a5,1
400057ea:	0706                	slli	a4,a4,0x1
400057ec:	00f69023          	sh	a5,0(a3)
400057f0:	0742                	slli	a4,a4,0x10
400057f2:	16f9                	addi	a3,a3,-2
400057f4:	8341                	srli	a4,a4,0x10
400057f6:	fd5699e3          	bne	a3,s5,400057c8 <_ldtoa_r+0x368>
400057fa:	4601                	li	a2,0
400057fc:	1154                	addi	a3,sp,164
400057fe:	876a                	mv	a4,s10
40005800:	0006d583          	lhu	a1,0(a3)
40005804:	00075783          	lhu	a5,0(a4)
40005808:	16f9                	addi	a3,a3,-2
4000580a:	1779                	addi	a4,a4,-2
4000580c:	97ae                	add	a5,a5,a1
4000580e:	97b2                	add	a5,a5,a2
40005810:	0107d613          	srli	a2,a5,0x10
40005814:	00f69123          	sh	a5,2(a3)
40005818:	8a05                	andi	a2,a2,1
4000581a:	ff5713e3          	bne	a4,s5,40005800 <_ldtoa_r+0x3a0>
4000581e:	016c                	addi	a1,sp,140
40005820:	865a                	mv	a2,s6
40005822:	1128                	addi	a0,sp,168
40005824:	a8eff0ef          	jal	ra,40004ab2 <eiremain>
40005828:	1bc15583          	lhu	a1,444(sp)
4000582c:	00198793          	addi	a5,s3,1
40005830:	0c05                	addi	s8,s8,1
40005832:	03058713          	addi	a4,a1,48
40005836:	fee78fa3          	sb	a4,-1(a5)
4000583a:	0b84c463          	blt	s1,s8,400058e2 <_ldtoa_r+0x482>
4000583e:	89be                	mv	s3,a5
40005840:	b709                	j	40005742 <_ldtoa_r+0x2e2>
40005842:	1898                	addi	a4,sp,112
40005844:	08210793          	addi	a5,sp,130
40005848:	00075683          	lhu	a3,0(a4)
4000584c:	0709                	addi	a4,a4,2
4000584e:	5e069963          	bnez	a3,40005e40 <_ldtoa_r+0x9e0>
40005852:	fef71be3          	bne	a4,a5,40005848 <_ldtoa_r+0x3e8>
40005856:	823d                	srli	a2,a2,0xf
40005858:	c010                	sw	a2,0(s0)
4000585a:	478d                	li	a5,3
4000585c:	5cfa0863          	beq	s4,a5,40005e2c <_ldtoa_r+0x9cc>
40005860:	47d1                	li	a5,20
40005862:	c23e                	sw	a5,4(sp)
40005864:	000a0a63          	beqz	s4,40005878 <_ldtoa_r+0x418>
40005868:	47a2                	lw	a5,8(sp)
4000586a:	17fd                	addi	a5,a5,-1
4000586c:	873e                	mv	a4,a5
4000586e:	c23e                	sw	a5,4(sp)
40005870:	02a00793          	li	a5,42
40005874:	5ce7c263          	blt	a5,a4,40005e38 <_ldtoa_r+0x9d8>
40005878:	07015703          	lhu	a4,112(sp)
4000587c:	189c                	addi	a5,sp,112
4000587e:	08210693          	addi	a3,sp,130
40005882:	0789                	addi	a5,a5,2
40005884:	e719                	bnez	a4,40005892 <_ldtoa_r+0x432>
40005886:	c8d784e3          	beq	a5,a3,4000550e <_ldtoa_r+0xae>
4000588a:	0007d703          	lhu	a4,0(a5)
4000588e:	0789                	addi	a5,a5,2
40005890:	db7d                	beqz	a4,40005886 <_ldtoa_r+0x426>
40005892:	13410d93          	addi	s11,sp,308
40005896:	800005b7          	lui	a1,0x80000
4000589a:	56458593          	addi	a1,a1,1380 # 80000564 <_bss_lma+0xfffffac4>
4000589e:	856e                	mv	a0,s11
400058a0:	975fc0ef          	jal	ra,40002214 <sprintf>
400058a4:	6409                	lui	s0,0x2
400058a6:	70f40413          	addi	s0,s0,1807 # 270f <__stack_size+0x25e3>
400058aa:	09000793          	li	a5,144
400058ae:	16f12a23          	sw	a5,372(sp)
400058b2:	18812023          	sw	s0,384(sp)
400058b6:	189c                	addi	a5,sp,112
400058b8:	08210693          	addi	a3,sp,130
400058bc:	0007d703          	lhu	a4,0(a5)
400058c0:	0789                	addi	a5,a5,2
400058c2:	70071163          	bnez	a4,40005fc4 <_ldtoa_r+0xb64>
400058c6:	fed79be3          	bne	a5,a3,400058bc <_ldtoa_r+0x45c>
400058ca:	4732                	lw	a4,12(sp)
400058cc:	6789                	lui	a5,0x2
400058ce:	70f78793          	addi	a5,a5,1807 # 270f <__stack_size+0x25e3>
400058d2:	c31c                	sw	a5,0(a4)
400058d4:	a875                	j	40005990 <_ldtoa_r+0x530>
400058d6:	1bc15583          	lhu	a1,444(sp)
400058da:	13610993          	addi	s3,sp,310
400058de:	13710793          	addi	a5,sp,311
400058e2:	4711                	li	a4,4
400058e4:	04b75463          	bge	a4,a1,4000592c <_ldtoa_r+0x4cc>
400058e8:	4715                	li	a4,5
400058ea:	70e58763          	beq	a1,a4,40005ff8 <_ldtoa_r+0xb98>
400058ee:	ffe7c703          	lbu	a4,-2(a5)
400058f2:	ffe78593          	addi	a1,a5,-2
400058f6:	07f77713          	andi	a4,a4,127
400058fa:	0204c463          	bltz	s1,40005922 <_ldtoa_r+0x4c2>
400058fe:	02e00793          	li	a5,46
40005902:	03800613          	li	a2,56
40005906:	03000513          	li	a0,48
4000590a:	6af70163          	beq	a4,a5,40005fac <_ldtoa_r+0xb4c>
4000590e:	68e67b63          	bgeu	a2,a4,40005fa4 <_ldtoa_r+0xb44>
40005912:	fff5c703          	lbu	a4,-1(a1)
40005916:	00a58023          	sb	a0,0(a1)
4000591a:	15fd                	addi	a1,a1,-1
4000591c:	07f77713          	andi	a4,a4,127
40005920:	b7ed                	j	4000590a <_ldtoa_r+0x4aa>
40005922:	03100713          	li	a4,49
40005926:	fee78f23          	sb	a4,-2(a5)
4000592a:	0405                	addi	s0,s0,1
4000592c:	800005b7          	lui	a1,0x80000
40005930:	8622                	mv	a2,s0
40005932:	50058593          	addi	a1,a1,1280 # 80000500 <_bss_lma+0xfffffa60>
40005936:	854e                	mv	a0,s3
40005938:	8ddfc0ef          	jal	ra,40002214 <sprintf>
4000593c:	09000793          	li	a5,144
40005940:	4752                	lw	a4,20(sp)
40005942:	16f12a23          	sw	a5,372(sp)
40005946:	67a1                	lui	a5,0x8
40005948:	18812023          	sw	s0,384(sp)
4000594c:	17fd                	addi	a5,a5,-1 # 7fff <__stack_size+0x7ed3>
4000594e:	f6f704e3          	beq	a4,a5,400058b6 <_ldtoa_r+0x456>
40005952:	46b2                	lw	a3,12(sp)
40005954:	13414703          	lbu	a4,308(sp)
40005958:	00140793          	addi	a5,s0,1
4000595c:	c29c                	sw	a5,0(a3)
4000595e:	4c070f63          	beqz	a4,40005e3c <_ldtoa_r+0x9dc>
40005962:	87ee                	mv	a5,s11
40005964:	02e00693          	li	a3,46
40005968:	24d70a63          	beq	a4,a3,40005bbc <_ldtoa_r+0x75c>
4000596c:	0017c703          	lbu	a4,1(a5)
40005970:	0785                	addi	a5,a5,1
40005972:	fb7d                	bnez	a4,40005968 <_ldtoa_r+0x508>
40005974:	04500693          	li	a3,69
40005978:	00fde563          	bltu	s11,a5,40005982 <_ldtoa_r+0x522>
4000597c:	a801                	j	4000598c <_ldtoa_r+0x52c>
4000597e:	4bb78f63          	beq	a5,s11,40005e3c <_ldtoa_r+0x9dc>
40005982:	fff7c703          	lbu	a4,-1(a5)
40005986:	17fd                	addi	a5,a5,-1
40005988:	fed71be3          	bne	a4,a3,4000597e <_ldtoa_r+0x51e>
4000598c:	00078023          	sb	zero,0(a5)
40005990:	87ee                	mv	a5,s11
40005992:	02000693          	li	a3,32
40005996:	02d00613          	li	a2,45
4000599a:	0007c703          	lbu	a4,0(a5)
4000599e:	00d70463          	beq	a4,a3,400059a6 <_ldtoa_r+0x546>
400059a2:	00c71463          	bne	a4,a2,400059aa <_ldtoa_r+0x54a>
400059a6:	0785                	addi	a5,a5,1
400059a8:	bfcd                	j	4000599a <_ldtoa_r+0x53a>
400059aa:	86ee                	mv	a3,s11
400059ac:	0007c703          	lbu	a4,0(a5)
400059b0:	89b6                	mv	s3,a3
400059b2:	0785                	addi	a5,a5,1
400059b4:	00e68023          	sb	a4,0(a3)
400059b8:	0685                	addi	a3,a3,1
400059ba:	fb6d                	bnez	a4,400059ac <_ldtoa_r+0x54c>
400059bc:	4789                	li	a5,2
400059be:	fff9c683          	lbu	a3,-1(s3)
400059c2:	1efa0363          	beq	s4,a5,40005ba8 <_ldtoa_r+0x748>
400059c6:	4792                	lw	a5,4(sp)
400059c8:	8722                	mv	a4,s0
400059ca:	00f45363          	bge	s0,a5,400059d0 <_ldtoa_r+0x570>
400059ce:	873e                	mv	a4,a5
400059d0:	03000793          	li	a5,48
400059d4:	02f69463          	bne	a3,a5,400059fc <_ldtoa_r+0x59c>
400059d8:	41b987b3          	sub	a5,s3,s11
400059dc:	02f75063          	bge	a4,a5,400059fc <_ldtoa_r+0x59c>
400059e0:	03000693          	li	a3,48
400059e4:	a029                	j	400059ee <_ldtoa_r+0x58e>
400059e6:	41b987b3          	sub	a5,s3,s11
400059ea:	00f75963          	bge	a4,a5,400059fc <_ldtoa_r+0x59c>
400059ee:	ffe9c783          	lbu	a5,-2(s3)
400059f2:	fe098fa3          	sb	zero,-1(s3)
400059f6:	19fd                	addi	s3,s3,-1
400059f8:	fed787e3          	beq	a5,a3,400059e6 <_ldtoa_r+0x586>
400059fc:	478d                	li	a5,3
400059fe:	16fa0f63          	beq	s4,a5,40005b7c <_ldtoa_r+0x71c>
40005a02:	47a2                	lw	a5,8(sp)
40005a04:	46dd                	li	a3,23
40005a06:	4705                	li	a4,1
40005a08:	00978493          	addi	s1,a5,9
40005a0c:	4791                	li	a5,4
40005a0e:	1896f863          	bgeu	a3,s1,40005b9e <_ldtoa_r+0x73e>
40005a12:	0786                	slli	a5,a5,0x1
40005a14:	01478693          	addi	a3,a5,20
40005a18:	85ba                	mv	a1,a4
40005a1a:	0705                	addi	a4,a4,1
40005a1c:	fed4fbe3          	bgeu	s1,a3,40005a12 <_ldtoa_r+0x5b2>
40005a20:	4782                	lw	a5,0(sp)
40005a22:	c3ec                	sw	a1,68(a5)
40005a24:	4502                	lw	a0,0(sp)
40005a26:	751000ef          	jal	ra,40006976 <_Balloc>
40005a2a:	842a                	mv	s0,a0
40005a2c:	76050963          	beqz	a0,4000619e <_ldtoa_r+0xd3e>
40005a30:	4782                	lw	a5,0(sp)
40005a32:	85ee                	mv	a1,s11
40005a34:	c3a8                	sw	a0,64(a5)
40005a36:	066010ef          	jal	ra,40006a9c <strcpy>
40005a3a:	4742                	lw	a4,16(sp)
40005a3c:	c709                	beqz	a4,40005a46 <_ldtoa_r+0x5e6>
40005a3e:	41b987b3          	sub	a5,s3,s11
40005a42:	97a2                	add	a5,a5,s0
40005a44:	c31c                	sw	a5,0(a4)
40005a46:	1fc12083          	lw	ra,508(sp)
40005a4a:	8522                	mv	a0,s0
40005a4c:	1f812403          	lw	s0,504(sp)
40005a50:	1f412483          	lw	s1,500(sp)
40005a54:	1f012903          	lw	s2,496(sp)
40005a58:	1ec12983          	lw	s3,492(sp)
40005a5c:	1e812a03          	lw	s4,488(sp)
40005a60:	1e412a83          	lw	s5,484(sp)
40005a64:	1e012b03          	lw	s6,480(sp)
40005a68:	1dc12b83          	lw	s7,476(sp)
40005a6c:	1d812c03          	lw	s8,472(sp)
40005a70:	1d412c83          	lw	s9,468(sp)
40005a74:	1d012d03          	lw	s10,464(sp)
40005a78:	1cc12d83          	lw	s11,460(sp)
40005a7c:	20010113          	addi	sp,sp,512
40005a80:	8082                	ret
40005a82:	66a1                	lui	a3,0x8
40005a84:	16fd                	addi	a3,a3,-1 # 7fff <__stack_size+0x7ed3>
40005a86:	4edd0d63          	beq	s10,a3,40005f80 <_ldtoa_r+0xb20>
40005a8a:	09c11683          	lh	a3,156(sp)
40005a8e:	5406db63          	bgez	a3,40005fe4 <_ldtoa_r+0xb84>
40005a92:	016c                	addi	a1,sp,140
40005a94:	798b8513          	addi	a0,s7,1944
40005a98:	cc3a                	sw	a4,24(sp)
40005a9a:	baffe0ef          	jal	ra,40004648 <ecmp>
40005a9e:	ae0501e3          	beqz	a0,40005580 <_ldtoa_r+0x120>
40005aa2:	4762                	lw	a4,24(sp)
40005aa4:	18054363          	bltz	a0,40005c2a <_ldtoa_r+0x7ca>
40005aa8:	5a0d1863          	bnez	s10,40006058 <_ldtoa_r+0xbf8>
40005aac:	09c11683          	lh	a3,156(sp)
40005ab0:	4401                	li	s0,0
40005ab2:	17010b13          	addi	s6,sp,368
40005ab6:	6a06c463          	bltz	a3,4000615e <_ldtoa_r+0xcfe>
40005aba:	80000d37          	lui	s10,0x80000
40005abe:	84ba                	mv	s1,a4
40005ac0:	0170                	addi	a2,sp,140
40005ac2:	86da                	mv	a3,s6
40005ac4:	85b2                	mv	a1,a2
40005ac6:	784d0513          	addi	a0,s10,1924 # 80000784 <_bss_lma+0xfffffce4>
40005aca:	dfaff0ef          	jal	ra,400050c4 <emul>
40005ace:	09c11783          	lh	a5,156(sp)
40005ad2:	147d                	addi	s0,s0,-1
40005ad4:	fe07d6e3          	bgez	a5,40005ac0 <_ldtoa_r+0x660>
40005ad8:	8726                	mv	a4,s1
40005ada:	0e010c13          	addi	s8,sp,224
40005ade:	19a4                	addi	s1,sp,248
40005ae0:	017c                	addi	a5,sp,140
40005ae2:	8662                	mv	a2,s8
40005ae4:	1108                	addi	a0,sp,160
40005ae6:	86be                	mv	a3,a5
40005ae8:	429c                	lw	a5,0(a3)
40005aea:	0691                	addi	a3,a3,4
40005aec:	0611                	addi	a2,a2,4
40005aee:	fef62e23          	sw	a5,-4(a2)
40005af2:	fea69be3          	bne	a3,a0,40005ae8 <_ldtoa_r+0x688>
40005af6:	1134                	addi	a3,sp,168
40005af8:	431c                	lw	a5,0(a4)
40005afa:	0711                	addi	a4,a4,4
40005afc:	0691                	addi	a3,a3,4
40005afe:	fef6ae23          	sw	a5,-4(a3)
40005b02:	ff571be3          	bne	a4,s5,40005af8 <_ldtoa_r+0x698>
40005b06:	80000d37          	lui	s10,0x80000
40005b0a:	80000cb7          	lui	s9,0x80000
40005b0e:	80000db7          	lui	s11,0x80000
40005b12:	7afd                	lui	s5,0xfffff
40005b14:	694d0d13          	addi	s10,s10,1684 # 80000694 <_bss_lma+0xfffffbf4>
40005b18:	590c8c93          	addi	s9,s9,1424 # 80000590 <_bss_lma+0xfffffaf0>
40005b1c:	680d8d93          	addi	s11,s11,1664 # 80000680 <_bss_lma+0xfffffbe0>
40005b20:	a019                	j	40005b26 <_ldtoa_r+0x6c6>
40005b22:	0cd1                	addi	s9,s9,20
40005b24:	0d51                	addi	s10,s10,20
40005b26:	85e2                	mv	a1,s8
40005b28:	798b8513          	addi	a0,s7,1944
40005b2c:	b1dfe0ef          	jal	ra,40004648 <ecmp>
40005b30:	02a05c63          	blez	a0,40005b68 <_ldtoa_r+0x708>
40005b34:	85e2                	mv	a1,s8
40005b36:	8566                	mv	a0,s9
40005b38:	b11fe0ef          	jal	ra,40004648 <ecmp>
40005b3c:	00054f63          	bltz	a0,40005b5a <_ldtoa_r+0x6fa>
40005b40:	86da                	mv	a3,s6
40005b42:	8662                	mv	a2,s8
40005b44:	85e2                	mv	a1,s8
40005b46:	856a                	mv	a0,s10
40005b48:	d7cff0ef          	jal	ra,400050c4 <emul>
40005b4c:	1130                	addi	a2,sp,168
40005b4e:	86da                	mv	a3,s6
40005b50:	85b2                	mv	a1,a2
40005b52:	856a                	mv	a0,s10
40005b54:	d70ff0ef          	jal	ra,400050c4 <emul>
40005b58:	9456                	add	s0,s0,s5
40005b5a:	01fad793          	srli	a5,s5,0x1f
40005b5e:	97d6                	add	a5,a5,s5
40005b60:	4017da93          	srai	s5,a5,0x1
40005b64:	fbbc9fe3          	bne	s9,s11,40005b22 <_ldtoa_r+0x6c2>
40005b68:	1130                	addi	a2,sp,168
40005b6a:	86da                	mv	a3,s6
40005b6c:	798b8593          	addi	a1,s7,1944
40005b70:	8532                	mv	a0,a2
40005b72:	92eff0ef          	jal	ra,40004ca0 <ediv>
40005b76:	13410d93          	addi	s11,sp,308
40005b7a:	bc19                	j	40005590 <_ldtoa_r+0x130>
40005b7c:	4792                	lw	a5,4(sp)
40005b7e:	943e                	add	s0,s0,a5
40005b80:	3e044163          	bltz	s0,40005f62 <_ldtoa_r+0xb02>
40005b84:	47b2                	lw	a5,12(sp)
40005b86:	4722                	lw	a4,8(sp)
40005b88:	439c                	lw	a5,0(a5)
40005b8a:	97ba                	add	a5,a5,a4
40005b8c:	c43e                	sw	a5,8(sp)
40005b8e:	47a2                	lw	a5,8(sp)
40005b90:	46dd                	li	a3,23
40005b92:	4705                	li	a4,1
40005b94:	00378493          	addi	s1,a5,3
40005b98:	4791                	li	a5,4
40005b9a:	e696ece3          	bltu	a3,s1,40005a12 <_ldtoa_r+0x5b2>
40005b9e:	4782                	lw	a5,0(sp)
40005ba0:	4581                	li	a1,0
40005ba2:	0407a223          	sw	zero,68(a5)
40005ba6:	bdbd                	j	40005a24 <_ldtoa_r+0x5c4>
40005ba8:	03000793          	li	a5,48
40005bac:	e4f69be3          	bne	a3,a5,40005a02 <_ldtoa_r+0x5a2>
40005bb0:	41b987b3          	sub	a5,s3,s11
40005bb4:	4705                	li	a4,1
40005bb6:	e2f745e3          	blt	a4,a5,400059e0 <_ldtoa_r+0x580>
40005bba:	b5a1                	j	40005a02 <_ldtoa_r+0x5a2>
40005bbc:	0007c703          	lbu	a4,0(a5)
40005bc0:	da070ae3          	beqz	a4,40005974 <_ldtoa_r+0x514>
40005bc4:	0017c703          	lbu	a4,1(a5)
40005bc8:	0785                	addi	a5,a5,1
40005bca:	fee78fa3          	sb	a4,-1(a5)
40005bce:	da0703e3          	beqz	a4,40005974 <_ldtoa_r+0x514>
40005bd2:	0017c703          	lbu	a4,1(a5)
40005bd6:	0785                	addi	a5,a5,1
40005bd8:	fee78fa3          	sb	a4,-1(a5)
40005bdc:	f765                	bnez	a4,40005bc4 <_ldtoa_r+0x764>
40005bde:	bb59                	j	40005974 <_ldtoa_r+0x514>
40005be0:	03100713          	li	a4,49
40005be4:	12e10aa3          	sb	a4,309(sp)
40005be8:	02e00713          	li	a4,46
40005bec:	12e10b23          	sb	a4,310(sp)
40005bf0:	0405                	addi	s0,s0,1
40005bf2:	22f05763          	blez	a5,40005e20 <_ldtoa_r+0x9c0>
40005bf6:	03000793          	li	a5,48
40005bfa:	12f10ba3          	sb	a5,311(sp)
40005bfe:	14fd                	addi	s1,s1,-1
40005c00:	13810993          	addi	s3,sp,312
40005c04:	b635                	j	40005730 <_ldtoa_r+0x2d0>
40005c06:	4722                	lw	a4,8(sp)
40005c08:	02a00793          	li	a5,42
40005c0c:	c23a                	sw	a4,4(sp)
40005c0e:	90e7d0e3          	bge	a5,a4,4000550e <_ldtoa_r+0xae>
40005c12:	c23e                	sw	a5,4(sp)
40005c14:	b8ed                	j	4000550e <_ldtoa_r+0xae>
40005c16:	47a2                	lw	a5,8(sp)
40005c18:	17fd                	addi	a5,a5,-1
40005c1a:	873e                	mv	a4,a5
40005c1c:	c23e                	sw	a5,4(sp)
40005c1e:	02a00793          	li	a5,42
40005c22:	8ee7d6e3          	bge	a5,a4,4000550e <_ldtoa_r+0xae>
40005c26:	c23e                	sw	a5,4(sp)
40005c28:	b0dd                	j	4000550e <_ldtoa_r+0xae>
40005c2a:	0c410c93          	addi	s9,sp,196
40005c2e:	84e6                	mv	s1,s9
40005c30:	0a010813          	addi	a6,sp,160
40005c34:	85e6                	mv	a1,s9
40005c36:	0170                	addi	a2,sp,140
40005c38:	421c                	lw	a5,0(a2)
40005c3a:	0611                	addi	a2,a2,4
40005c3c:	0591                	addi	a1,a1,4
40005c3e:	fef5ae23          	sw	a5,-4(a1)
40005c42:	ff061be3          	bne	a2,a6,40005c38 <_ldtoa_r+0x7d8>
40005c46:	6611                	lui	a2,0x4
40005c48:	08e60613          	addi	a2,a2,142 # 408e <__stack_size+0x3f62>
40005c4c:	0cc11b23          	sh	a2,214(sp)
40005c50:	80000637          	lui	a2,0x80000
40005c54:	73460393          	addi	t2,a2,1844 # 80000734 <_bss_lma+0xfffffc94>
40005c58:	1134                	addi	a3,sp,168
40005c5a:	80000637          	lui	a2,0x80000
40005c5e:	01268313          	addi	t1,a3,18
40005c62:	79860693          	addi	a3,a2,1944 # 80000798 <_bss_lma+0xfffffcf8>
40005c66:	6621                	lui	a2,0x8
40005c68:	d036                	sw	a3,32(sp)
40005c6a:	fff60693          	addi	a3,a2,-1 # 7fff <__stack_size+0x7ed3>
40005c6e:	7671                	lui	a2,0xffffc
40005c70:	cc36                	sw	a3,24(sp)
40005c72:	00260693          	addi	a3,a2,2 # ffffc002 <_bss_lma+0x7fffb562>
40005c76:	80000637          	lui	a2,0x80000
40005c7a:	0e010c13          	addi	s8,sp,224
40005c7e:	47c1                	li	a5,16
40005c80:	0bc10893          	addi	a7,sp,188
40005c84:	ce36                	sw	a3,28(sp)
40005c86:	56c60693          	addi	a3,a2,1388 # 8000056c <_bss_lma+0xfffffacc>
40005c8a:	d46a                	sw	s10,40(sp)
40005c8c:	d64a                	sw	s2,44(sp)
40005c8e:	d826                	sw	s1,48(sp)
40005c90:	dc4e                	sw	s3,56(sp)
40005c92:	8962                	mv	s2,s8
40005c94:	4401                	li	s0,0
40005c96:	8c52                	mv	s8,s4
40005c98:	13410d93          	addi	s11,sp,308
40005c9c:	17010b13          	addi	s6,sp,368
40005ca0:	d236                	sw	a3,36(sp)
40005ca2:	8d3e                	mv	s10,a5
40005ca4:	849e                	mv	s1,t2
40005ca6:	da3a                	sw	a4,52(sp)
40005ca8:	899a                	mv	s3,t1
40005caa:	8a46                	mv	s4,a7
40005cac:	1130                	addi	a2,sp,168
40005cae:	86da                	mv	a3,s6
40005cb0:	85e6                	mv	a1,s9
40005cb2:	8526                	mv	a0,s1
40005cb4:	fedfe0ef          	jal	ra,40004ca0 <ediv>
40005cb8:	08f0                	addi	a2,sp,92
40005cba:	8732                	mv	a4,a2
40005cbc:	113c                	addi	a5,sp,168
40005cbe:	07010813          	addi	a6,sp,112
40005cc2:	4394                	lw	a3,0(a5)
40005cc4:	0791                	addi	a5,a5,4
40005cc6:	0711                	addi	a4,a4,4
40005cc8:	fed72e23          	sw	a3,-4(a4)
40005ccc:	fefa1be3          	bne	s4,a5,40005cc2 <_ldtoa_r+0x862>
40005cd0:	47e2                	lw	a5,24(sp)
40005cd2:	06e15503          	lhu	a0,110(sp)
40005cd6:	00f57eb3          	and	t4,a0,a5
40005cda:	47f2                	lw	a5,28(sp)
40005cdc:	9ebe                	add	t4,t4,a5
40005cde:	29d05963          	blez	t4,40005f70 <_ldtoa_r+0xb10>
40005ce2:	09000793          	li	a5,144
40005ce6:	41d785b3          	sub	a1,a5,t4
40005cea:	874a                	mv	a4,s2
40005cec:	08fc                	addi	a5,sp,92
40005cee:	4394                	lw	a3,0(a5)
40005cf0:	0791                	addi	a5,a5,4
40005cf2:	0711                	addi	a4,a4,4
40005cf4:	fed72e23          	sw	a3,-4(a4)
40005cf8:	ff079be3          	bne	a5,a6,40005cee <_ldtoa_r+0x88e>
40005cfc:	04b05a63          	blez	a1,40005d50 <_ldtoa_r+0x8f0>
40005d00:	47bd                	li	a5,15
40005d02:	874a                	mv	a4,s2
40005d04:	02b7d763          	bge	a5,a1,40005d32 <_ldtoa_r+0x8d2>
40005d08:	08000693          	li	a3,128
40005d0c:	41d686b3          	sub	a3,a3,t4
40005d10:	8291                	srli	a3,a3,0x4
40005d12:	00168713          	addi	a4,a3,1
40005d16:	0706                	slli	a4,a4,0x1
40005d18:	974a                	add	a4,a4,s2
40005d1a:	87ca                	mv	a5,s2
40005d1c:	0789                	addi	a5,a5,2
40005d1e:	fe079f23          	sh	zero,-2(a5)
40005d22:	fef71de3          	bne	a4,a5,40005d1c <_ldtoa_r+0x8bc>
40005d26:	08000593          	li	a1,128
40005d2a:	41d585b3          	sub	a1,a1,t4
40005d2e:	0692                	slli	a3,a3,0x4
40005d30:	8d95                	sub	a1,a1,a3
40005d32:	5692                	lw	a3,36(sp)
40005d34:	00159793          	slli	a5,a1,0x1
40005d38:	97b6                	add	a5,a5,a3
40005d3a:	0007d783          	lhu	a5,0(a5)
40005d3e:	00075683          	lhu	a3,0(a4)
40005d42:	8ff5                	and	a5,a5,a3
40005d44:	00f71023          	sh	a5,0(a4)
40005d48:	0542                	slli	a0,a0,0x10
40005d4a:	8541                	srai	a0,a0,0x10
40005d4c:	0e054c63          	bltz	a0,40005e44 <_ldtoa_r+0x9e4>
40005d50:	874a                	mv	a4,s2
40005d52:	113c                	addi	a5,sp,168
40005d54:	0007d603          	lhu	a2,0(a5)
40005d58:	00075683          	lhu	a3,0(a4)
40005d5c:	02d61063          	bne	a2,a3,40005d7c <_ldtoa_r+0x91c>
40005d60:	0789                	addi	a5,a5,2
40005d62:	0709                	addi	a4,a4,2
40005d64:	ff3798e3          	bne	a5,s3,40005d54 <_ldtoa_r+0x8f4>
40005d68:	8766                	mv	a4,s9
40005d6a:	113c                	addi	a5,sp,168
40005d6c:	4394                	lw	a3,0(a5)
40005d6e:	0791                	addi	a5,a5,4
40005d70:	0711                	addi	a4,a4,4
40005d72:	fed72e23          	sw	a3,-4(a4)
40005d76:	fefa1be3          	bne	s4,a5,40005d6c <_ldtoa_r+0x90c>
40005d7a:	946a                	add	s0,s0,s10
40005d7c:	5782                	lw	a5,32(sp)
40005d7e:	04d1                	addi	s1,s1,20
40005d80:	001d5d13          	srli	s10,s10,0x1
40005d84:	f2f494e3          	bne	s1,a5,40005cac <_ldtoa_r+0x84c>
40005d88:	0d615603          	lhu	a2,214(sp)
40005d8c:	5d22                	lw	s10,40(sp)
40005d8e:	75f1                	lui	a1,0xffffc
40005d90:	f7258593          	addi	a1,a1,-142 # ffffbf72 <_bss_lma+0x7fffb4d2>
40005d94:	8a62                	mv	s4,s8
40005d96:	962e                	add	a2,a2,a1
40005d98:	8c4a                	mv	s8,s2
40005d9a:	54c2                	lw	s1,48(sp)
40005d9c:	5752                	lw	a4,52(sp)
40005d9e:	59e2                	lw	s3,56(sp)
40005da0:	5932                	lw	s2,44(sp)
40005da2:	966a                	add	a2,a2,s10
40005da4:	0cc11b23          	sh	a2,214(sp)
40005da8:	014c8513          	addi	a0,s9,20
40005dac:	0170                	addi	a2,sp,140
40005dae:	409c                	lw	a5,0(s1)
40005db0:	0491                	addi	s1,s1,4
40005db2:	0611                	addi	a2,a2,4
40005db4:	fef62e23          	sw	a5,-4(a2)
40005db8:	fe951be3          	bne	a0,s1,40005dae <_ldtoa_r+0x94e>
40005dbc:	1134                	addi	a3,sp,168
40005dbe:	431c                	lw	a5,0(a4)
40005dc0:	0711                	addi	a4,a4,4
40005dc2:	0691                	addi	a3,a3,4
40005dc4:	fef6ae23          	sw	a5,-4(a3)
40005dc8:	ff571be3          	bne	a4,s5,40005dbe <_ldtoa_r+0x95e>
40005dcc:	80000ab7          	lui	s5,0x80000
40005dd0:	6b85                	lui	s7,0x1
40005dd2:	694a8a93          	addi	s5,s5,1684 # 80000694 <_bss_lma+0xfffffbf4>
40005dd6:	80000d37          	lui	s10,0x80000
40005dda:	a801                	j	40005dea <_ldtoa_r+0x98a>
40005ddc:	784d0793          	addi	a5,s10,1924 # 80000784 <_bss_lma+0xfffffce4>
40005de0:	001bdb93          	srli	s7,s7,0x1
40005de4:	1afa8d63          	beq	s5,a5,40005f9e <_ldtoa_r+0xb3e>
40005de8:	0ad1                	addi	s5,s5,20
40005dea:	85e6                	mv	a1,s9
40005dec:	784d0513          	addi	a0,s10,1924
40005df0:	859fe0ef          	jal	ra,40004648 <ecmp>
40005df4:	1aa04563          	bgtz	a0,40005f9e <_ldtoa_r+0xb3e>
40005df8:	85e6                	mv	a1,s9
40005dfa:	8556                	mv	a0,s5
40005dfc:	84dfe0ef          	jal	ra,40004648 <ecmp>
40005e00:	fca04ee3          	bgtz	a0,40005ddc <_ldtoa_r+0x97c>
40005e04:	86da                	mv	a3,s6
40005e06:	8666                	mv	a2,s9
40005e08:	85e6                	mv	a1,s9
40005e0a:	8556                	mv	a0,s5
40005e0c:	e95fe0ef          	jal	ra,40004ca0 <ediv>
40005e10:	1130                	addi	a2,sp,168
40005e12:	86da                	mv	a3,s6
40005e14:	85b2                	mv	a1,a2
40005e16:	8556                	mv	a0,s5
40005e18:	aacff0ef          	jal	ra,400050c4 <emul>
40005e1c:	945e                	add	s0,s0,s7
40005e1e:	bf7d                	j	40005ddc <_ldtoa_r+0x97c>
40005e20:	13710993          	addi	s3,sp,311
40005e24:	4481                	li	s1,0
40005e26:	b00793e3          	bnez	a5,4000592c <_ldtoa_r+0x4cc>
40005e2a:	b219                	j	40005730 <_ldtoa_r+0x2d0>
40005e2c:	4722                	lw	a4,8(sp)
40005e2e:	02a00793          	li	a5,42
40005e32:	c23a                	sw	a4,4(sp)
40005e34:	a4e7d2e3          	bge	a5,a4,40005878 <_ldtoa_r+0x418>
40005e38:	c23e                	sw	a5,4(sp)
40005e3a:	bc3d                	j	40005878 <_ldtoa_r+0x418>
40005e3c:	87ee                	mv	a5,s11
40005e3e:	b6b9                	j	4000598c <_ldtoa_r+0x52c>
40005e40:	4601                	li	a2,0
40005e42:	bc19                	j	40005858 <_ldtoa_r+0x3f8>
40005e44:	87ca                	mv	a5,s2
40005e46:	a039                	j	40005e54 <_ldtoa_r+0x9f4>
40005e48:	0609                	addi	a2,a2,2
40005e4a:	06e10713          	addi	a4,sp,110
40005e4e:	0789                	addi	a5,a5,2
40005e50:	f0c700e3          	beq	a4,a2,40005d50 <_ldtoa_r+0x8f0>
40005e54:	00065683          	lhu	a3,0(a2)
40005e58:	0007d703          	lhu	a4,0(a5)
40005e5c:	fee686e3          	beq	a3,a4,40005e48 <_ldtoa_r+0x9e8>
40005e60:	0f215783          	lhu	a5,242(sp)
40005e64:	fff7c793          	not	a5,a5
40005e68:	01179713          	slli	a4,a5,0x11
40005e6c:	2c070663          	beqz	a4,40006138 <_ldtoa_r+0xcd8>
40005e70:	19ec                	addi	a1,sp,252
40005e72:	798b8513          	addi	a0,s7,1944 # 1798 <__stack_size+0x166c>
40005e76:	f44fe0ef          	jal	ra,400045ba <emovi>
40005e7a:	0a2c                	addi	a1,sp,280
40005e7c:	854a                	mv	a0,s2
40005e7e:	f3cfe0ef          	jal	ra,400045ba <emovi>
40005e82:	0fc15783          	lhu	a5,252(sp)
40005e86:	11a15603          	lhu	a2,282(sp)
40005e8a:	0fe15e83          	lhu	t4,254(sp)
40005e8e:	fff7c793          	not	a5,a5
40005e92:	0ef11e23          	sh	a5,252(sp)
40005e96:	40ce85b3          	sub	a1,t4,a2
40005e9a:	86b2                	mv	a3,a2
40005e9c:	04b05e63          	blez	a1,40005ef8 <_ldtoa_r+0xa98>
40005ea0:	0a28                	addi	a0,sp,280
40005ea2:	86ee                	mv	a3,s11
40005ea4:	1a1c                	addi	a5,sp,304
40005ea6:	85ee                	mv	a1,s11
40005ea8:	872a                	mv	a4,a0
40005eaa:	00072883          	lw	a7,0(a4)
40005eae:	0711                	addi	a4,a4,4
40005eb0:	0591                	addi	a1,a1,4
40005eb2:	ff15ae23          	sw	a7,-4(a1)
40005eb6:	fee79ae3          	bne	a5,a4,40005eaa <_ldtoa_r+0xa4a>
40005eba:	19ec                	addi	a1,sp,252
40005ebc:	14011623          	sh	zero,332(sp)
40005ec0:	0a58                	addi	a4,sp,276
40005ec2:	87ae                	mv	a5,a1
40005ec4:	0007a883          	lw	a7,0(a5)
40005ec8:	0791                	addi	a5,a5,4
40005eca:	0511                	addi	a0,a0,4
40005ecc:	ff152e23          	sw	a7,-4(a0)
40005ed0:	fef71ae3          	bne	a4,a5,40005ec4 <_ldtoa_r+0xa64>
40005ed4:	12011823          	sh	zero,304(sp)
40005ed8:	018d8793          	addi	a5,s11,24
40005edc:	4298                	lw	a4,0(a3)
40005ede:	0691                	addi	a3,a3,4
40005ee0:	0591                	addi	a1,a1,4
40005ee2:	fee5ae23          	sw	a4,-4(a1)
40005ee6:	fed79be3          	bne	a5,a3,40005edc <_ldtoa_r+0xa7c>
40005eea:	11a15683          	lhu	a3,282(sp)
40005eee:	41d605b3          	sub	a1,a2,t4
40005ef2:	10011a23          	sh	zero,276(sp)
40005ef6:	8636                	mv	a2,a3
40005ef8:	26058763          	beqz	a1,40006166 <_ldtoa_r+0xd06>
40005efc:	de36                	sw	a3,60(sp)
40005efe:	f6f00793          	li	a5,-145
40005f02:	04f5cb63          	blt	a1,a5,40005f58 <_ldtoa_r+0xaf8>
40005f06:	19e8                	addi	a0,sp,252
40005f08:	d74fe0ef          	jal	ra,4000447c <eshift.part.0>
40005f0c:	56f2                	lw	a3,60(sp)
40005f0e:	85aa                	mv	a1,a0
40005f10:	1a1c                	addi	a5,sp,304
40005f12:	0a58                	addi	a4,sp,276
40005f14:	0fc15503          	lhu	a0,252(sp)
40005f18:	11815603          	lhu	a2,280(sp)
40005f1c:	2cc50663          	beq	a0,a2,400061e8 <_ldtoa_r+0xd88>
40005f20:	4601                	li	a2,0
40005f22:	11a10e93          	addi	t4,sp,282
40005f26:	0007d503          	lhu	a0,0(a5)
40005f2a:	00075883          	lhu	a7,0(a4)
40005f2e:	17f9                	addi	a5,a5,-2
40005f30:	1779                	addi	a4,a4,-2
40005f32:	41150533          	sub	a0,a0,a7
40005f36:	40c50633          	sub	a2,a0,a2
40005f3a:	01065513          	srli	a0,a2,0x10
40005f3e:	00c79123          	sh	a2,2(a5)
40005f42:	00157613          	andi	a2,a0,1
40005f46:	ffd790e3          	bne	a5,t4,40005f26 <_ldtoa_r+0xac6>
40005f4a:	4605                	li	a2,1
40005f4c:	87da                	mv	a5,s6
40005f4e:	04000713          	li	a4,64
40005f52:	0a28                	addi	a0,sp,280
40005f54:	fdcfe0ef          	jal	ra,40004730 <emdnorm>
40005f58:	85ca                	mv	a1,s2
40005f5a:	0a28                	addi	a0,sp,280
40005f5c:	b82fe0ef          	jal	ra,400042de <emovo.constprop.0>
40005f60:	bbc5                	j	40005d50 <_ldtoa_r+0x8f0>
40005f62:	47b2                	lw	a5,12(sp)
40005f64:	12010a23          	sb	zero,308(sp)
40005f68:	89ee                	mv	s3,s11
40005f6a:	0007a023          	sw	zero,0(a5)
40005f6e:	b105                	j	40005b8e <_ldtoa_r+0x72e>
40005f70:	87ca                	mv	a5,s2
40005f72:	0789                	addi	a5,a5,2
40005f74:	19d8                	addi	a4,sp,244
40005f76:	fe079f23          	sh	zero,-2(a5)
40005f7a:	fee79ce3          	bne	a5,a4,40005f72 <_ldtoa_r+0xb12>
40005f7e:	b3e9                	j	40005d48 <_ldtoa_r+0x8e8>
40005f80:	13410d93          	addi	s11,sp,308
40005f84:	0a090e63          	beqz	s2,40006040 <_ldtoa_r+0xbe0>
40005f88:	800005b7          	lui	a1,0x80000
40005f8c:	4e458593          	addi	a1,a1,1252 # 800004e4 <_bss_lma+0xfffffa44>
40005f90:	856e                	mv	a0,s11
40005f92:	a82fc0ef          	jal	ra,40002214 <sprintf>
40005f96:	6409                	lui	s0,0x2
40005f98:	70f40413          	addi	s0,s0,1807 # 270f <__stack_size+0x25e3>
40005f9c:	b245                	j	4000593c <_ldtoa_r+0x4dc>
40005f9e:	19a4                	addi	s1,sp,248
40005fa0:	df0ff06f          	j	40005590 <_ldtoa_r+0x130>
40005fa4:	0705                	addi	a4,a4,1
40005fa6:	00e58023          	sb	a4,0(a1)
40005faa:	b249                	j	4000592c <_ldtoa_r+0x4cc>
40005fac:	fff5c783          	lbu	a5,-1(a1)
40005fb0:	03800713          	li	a4,56
40005fb4:	08f77e63          	bgeu	a4,a5,40006050 <_ldtoa_r+0xbf0>
40005fb8:	03100793          	li	a5,49
40005fbc:	0405                	addi	s0,s0,1
40005fbe:	fef58fa3          	sb	a5,-1(a1)
40005fc2:	b2ad                	j	4000592c <_ldtoa_r+0x4cc>
40005fc4:	189c                	addi	a5,sp,112
40005fc6:	08210693          	addi	a3,sp,130
40005fca:	a019                	j	40005fd0 <_ldtoa_r+0xb70>
40005fcc:	98d783e3          	beq	a5,a3,40005952 <_ldtoa_r+0x4f2>
40005fd0:	0007d703          	lhu	a4,0(a5)
40005fd4:	0789                	addi	a5,a5,2
40005fd6:	db7d                	beqz	a4,40005fcc <_ldtoa_r+0xb6c>
40005fd8:	4732                	lw	a4,12(sp)
40005fda:	6789                	lui	a5,0x2
40005fdc:	70f78793          	addi	a5,a5,1807 # 270f <__stack_size+0x25e3>
40005fe0:	c31c                	sw	a5,0(a4)
40005fe2:	b27d                	j	40005990 <_ldtoa_r+0x530>
40005fe4:	13410d93          	addi	s11,sp,308
40005fe8:	800005b7          	lui	a1,0x80000
40005fec:	4fc58593          	addi	a1,a1,1276 # 800004fc <_bss_lma+0xfffffa5c>
40005ff0:	856e                	mv	a0,s11
40005ff2:	a22fc0ef          	jal	ra,40002214 <sprintf>
40005ff6:	b745                	j	40005f96 <_ldtoa_r+0xb36>
40005ff8:	112c                	addi	a1,sp,168
40005ffa:	0168                	addi	a0,sp,140
40005ffc:	cc3e                	sw	a5,24(sp)
40005ffe:	ae0fe0ef          	jal	ra,400042de <emovo.constprop.0>
40006002:	800005b7          	lui	a1,0x80000
40006006:	7ac58593          	addi	a1,a1,1964 # 800007ac <_bss_lma+0xfffffd0c>
4000600a:	1128                	addi	a0,sp,168
4000600c:	e3cfe0ef          	jal	ra,40004648 <ecmp>
40006010:	47e2                	lw	a5,24(sp)
40006012:	8c051ee3          	bnez	a0,400058ee <_ldtoa_r+0x48e>
40006016:	9004cbe3          	bltz	s1,4000592c <_ldtoa_r+0x4cc>
4000601a:	ffe7c703          	lbu	a4,-2(a5)
4000601e:	ffe78593          	addi	a1,a5,-2
40006022:	fd270613          	addi	a2,a4,-46
40006026:	00163613          	seqz	a2,a2
4000602a:	fff64613          	not	a2,a2
4000602e:	964e                	add	a2,a2,s3
40006030:	00064603          	lbu	a2,0(a2)
40006034:	07f77713          	andi	a4,a4,127
40006038:	8a05                	andi	a2,a2,1
4000603a:	8c0612e3          	bnez	a2,400058fe <_ldtoa_r+0x49e>
4000603e:	b0fd                	j	4000592c <_ldtoa_r+0x4cc>
40006040:	800005b7          	lui	a1,0x80000
40006044:	4f058593          	addi	a1,a1,1264 # 800004f0 <_bss_lma+0xfffffa50>
40006048:	856e                	mv	a0,s11
4000604a:	9cafc0ef          	jal	ra,40002214 <sprintf>
4000604e:	b7a1                	j	40005f96 <_ldtoa_r+0xb36>
40006050:	0785                	addi	a5,a5,1
40006052:	fef58fa3          	sb	a5,-1(a1)
40006056:	b8d9                	j	4000592c <_ldtoa_r+0x4cc>
40006058:	0e010c13          	addi	s8,sp,224
4000605c:	85e2                	mv	a1,s8
4000605e:	0168                	addi	a0,sp,140
40006060:	6d11                	lui	s10,0x4
40006062:	ce3a                	sw	a4,28(sp)
40006064:	4401                	li	s0,0
40006066:	d54fe0ef          	jal	ra,400045ba <emovi>
4000606a:	19a4                	addi	s1,sp,248
4000606c:	0e210b13          	addi	s6,sp,226
40006070:	1d79                	addi	s10,s10,-2 # 3ffe <__stack_size+0x3ed2>
40006072:	0dc10c93          	addi	s9,sp,220
40006076:	fd500d93          	li	s11,-43
4000607a:	cc4a                	sw	s2,24(sp)
4000607c:	d04e                	sw	s3,32(sp)
4000607e:	0f815783          	lhu	a5,248(sp)
40006082:	8b9d                	andi	a5,a5,7
40006084:	efd1                	bnez	a5,40006120 <_ldtoa_r+0xcc0>
40006086:	0c410993          	addi	s3,sp,196
4000608a:	8962                	mv	s2,s8
4000608c:	874e                	mv	a4,s3
4000608e:	87e2                	mv	a5,s8
40006090:	4394                	lw	a3,0(a5)
40006092:	0791                	addi	a5,a5,4
40006094:	0711                	addi	a4,a4,4
40006096:	fed72e23          	sw	a3,-4(a4)
4000609a:	fe979be3          	bne	a5,s1,40006090 <_ldtoa_r+0xc30>
4000609e:	01c8                	addi	a0,sp,196
400060a0:	0c011e23          	sh	zero,220(sp)
400060a4:	95afe0ef          	jal	ra,400041fe <eshdn1>
400060a8:	01c8                	addi	a0,sp,196
400060aa:	954fe0ef          	jal	ra,400041fe <eshdn1>
400060ae:	4601                	li	a2,0
400060b0:	09f4                	addi	a3,sp,220
400060b2:	8726                	mv	a4,s1
400060b4:	0006d503          	lhu	a0,0(a3)
400060b8:	00075783          	lhu	a5,0(a4)
400060bc:	16f9                	addi	a3,a3,-2
400060be:	1779                	addi	a4,a4,-2
400060c0:	97aa                	add	a5,a5,a0
400060c2:	97b2                	add	a5,a5,a2
400060c4:	0107d613          	srli	a2,a5,0x10
400060c8:	00f69123          	sh	a5,2(a3)
400060cc:	8a05                	andi	a2,a2,1
400060ce:	ff6713e3          	bne	a4,s6,400060b4 <_ldtoa_r+0xc54>
400060d2:	0c615783          	lhu	a5,198(sp)
400060d6:	0c815703          	lhu	a4,200(sp)
400060da:	078d                	addi	a5,a5,3
400060dc:	0cf11323          	sh	a5,198(sp)
400060e0:	cf01                	beqz	a4,400060f8 <_ldtoa_r+0xc98>
400060e2:	01c8                	addi	a0,sp,196
400060e4:	91afe0ef          	jal	ra,400041fe <eshdn1>
400060e8:	0c615783          	lhu	a5,198(sp)
400060ec:	0c815703          	lhu	a4,200(sp)
400060f0:	0785                	addi	a5,a5,1
400060f2:	0cf11323          	sh	a5,198(sp)
400060f6:	f775                	bnez	a4,400060e2 <_ldtoa_r+0xc82>
400060f8:	0dc15783          	lhu	a5,220(sp)
400060fc:	e395                	bnez	a5,40006120 <_ldtoa_r+0xcc0>
400060fe:	0c615783          	lhu	a5,198(sp)
40006102:	00fd6f63          	bltu	s10,a5,40006120 <_ldtoa_r+0xcc0>
40006106:	0009a783          	lw	a5,0(s3)
4000610a:	0991                	addi	s3,s3,4
4000610c:	0911                	addi	s2,s2,4
4000610e:	fef92e23          	sw	a5,-4(s2)
40006112:	ff999ae3          	bne	s3,s9,40006106 <_ldtoa_r+0xca6>
40006116:	0e011c23          	sh	zero,248(sp)
4000611a:	147d                	addi	s0,s0,-1
4000611c:	f7b411e3          	bne	s0,s11,4000607e <_ldtoa_r+0xc1e>
40006120:	4772                	lw	a4,28(sp)
40006122:	016c                	addi	a1,sp,140
40006124:	8562                	mv	a0,s8
40006126:	4962                	lw	s2,24(sp)
40006128:	5982                	lw	s3,32(sp)
4000612a:	cc3a                	sw	a4,24(sp)
4000612c:	9b2fe0ef          	jal	ra,400042de <emovo.constprop.0>
40006130:	4762                	lw	a4,24(sp)
40006132:	17010b13          	addi	s6,sp,368
40006136:	b26d                	j	40005ae0 <_ldtoa_r+0x680>
40006138:	87ca                	mv	a5,s2
4000613a:	0f210713          	addi	a4,sp,242
4000613e:	0007d683          	lhu	a3,0(a5)
40006142:	0789                	addi	a5,a5,2
40006144:	c00696e3          	bnez	a3,40005d50 <_ldtoa_r+0x8f0>
40006148:	fee79be3          	bne	a5,a4,4000613e <_ldtoa_r+0xcde>
4000614c:	87ca                	mv	a5,s2
4000614e:	0007d683          	lhu	a3,0(a5)
40006152:	0789                	addi	a5,a5,2
40006154:	d0069ee3          	bnez	a3,40005e70 <_ldtoa_r+0xa10>
40006158:	fee79be3          	bne	a5,a4,4000614e <_ldtoa_r+0xcee>
4000615c:	bed5                	j	40005d50 <_ldtoa_r+0x8f0>
4000615e:	0e010c13          	addi	s8,sp,224
40006162:	19a4                	addi	s1,sp,248
40006164:	bab5                	j	40005ae0 <_ldtoa_r+0x680>
40006166:	0a78                	addi	a4,sp,284
40006168:	021c                	addi	a5,sp,256
4000616a:	11610f13          	addi	t5,sp,278
4000616e:	0007de83          	lhu	t4,0(a5)
40006172:	00075503          	lhu	a0,0(a4)
40006176:	0789                	addi	a5,a5,2
40006178:	0709                	addi	a4,a4,2
4000617a:	04ae9063          	bne	t4,a0,400061ba <_ldtoa_r+0xd5a>
4000617e:	ffe798e3          	bne	a5,t5,4000616e <_ldtoa_r+0xd0e>
40006182:	0fc15703          	lhu	a4,252(sp)
40006186:	11815783          	lhu	a5,280(sp)
4000618a:	02f70d63          	beq	a4,a5,400061c4 <_ldtoa_r+0xd64>
4000618e:	87ca                	mv	a5,s2
40006190:	19d8                	addi	a4,sp,244
40006192:	0789                	addi	a5,a5,2
40006194:	fe079f23          	sh	zero,-2(a5)
40006198:	fee79de3          	bne	a5,a4,40006192 <_ldtoa_r+0xd32>
4000619c:	be55                	j	40005d50 <_ldtoa_r+0x8f0>
4000619e:	800006b7          	lui	a3,0x80000
400061a2:	6585                	lui	a1,0x1
400061a4:	80000537          	lui	a0,0x80000
400061a8:	50468693          	addi	a3,a3,1284 # 80000504 <_bss_lma+0xfffffa64>
400061ac:	4601                	li	a2,0
400061ae:	b6e58593          	addi	a1,a1,-1170 # b6e <__stack_size+0xa42>
400061b2:	51850513          	addi	a0,a0,1304 # 80000518 <_bss_lma+0xfffffa78>
400061b6:	327000ef          	jal	ra,40006cdc <__assert_func>
400061ba:	05d56c63          	bltu	a0,t4,40006212 <_ldtoa_r+0xdb2>
400061be:	1a1c                	addi	a5,sp,304
400061c0:	0a58                	addi	a4,sp,276
400061c2:	bb89                	j	40005f14 <_ldtoa_r+0xab4>
400061c4:	87b6                	mv	a5,a3
400061c6:	e689                	bnez	a3,400061d0 <_ldtoa_r+0xd70>
400061c8:	11e11703          	lh	a4,286(sp)
400061cc:	08075d63          	bgez	a4,40006266 <_ldtoa_r+0xe06>
400061d0:	11a10713          	addi	a4,sp,282
400061d4:	1a1c                	addi	a5,sp,304
400061d6:	00075583          	lhu	a1,0(a4)
400061da:	e1f9                	bnez	a1,400062a0 <_ldtoa_r+0xe40>
400061dc:	0709                	addi	a4,a4,2
400061de:	fee79ce3          	bne	a5,a4,400061d6 <_ldtoa_r+0xd76>
400061e2:	10c11d23          	sh	a2,282(sp)
400061e6:	bb8d                	j	40005f58 <_ldtoa_r+0xaf8>
400061e8:	4601                	li	a2,0
400061ea:	0fe10e93          	addi	t4,sp,254
400061ee:	0007d883          	lhu	a7,0(a5)
400061f2:	00075503          	lhu	a0,0(a4)
400061f6:	17f9                	addi	a5,a5,-2
400061f8:	1779                	addi	a4,a4,-2
400061fa:	9546                	add	a0,a0,a7
400061fc:	962a                	add	a2,a2,a0
400061fe:	01065513          	srli	a0,a2,0x10
40006202:	00c79123          	sh	a2,2(a5)
40006206:	00157613          	andi	a2,a0,1
4000620a:	ffd712e3          	bne	a4,t4,400061ee <_ldtoa_r+0xd8e>
4000620e:	4601                	li	a2,0
40006210:	bb35                	j	40005f4c <_ldtoa_r+0xaec>
40006212:	11810f13          	addi	t5,sp,280
40006216:	856e                	mv	a0,s11
40006218:	1a1c                	addi	a5,sp,304
4000621a:	866e                	mv	a2,s11
4000621c:	877a                	mv	a4,t5
4000621e:	00072883          	lw	a7,0(a4)
40006222:	0711                	addi	a4,a4,4
40006224:	0611                	addi	a2,a2,4
40006226:	ff162e23          	sw	a7,-4(a2)
4000622a:	fee79ae3          	bne	a5,a4,4000621e <_ldtoa_r+0xdbe>
4000622e:	19f0                	addi	a2,sp,252
40006230:	14011623          	sh	zero,332(sp)
40006234:	0a58                	addi	a4,sp,276
40006236:	8eb2                	mv	t4,a2
40006238:	000ea883          	lw	a7,0(t4)
4000623c:	0e91                	addi	t4,t4,4
4000623e:	0f11                	addi	t5,t5,4
40006240:	ff1f2e23          	sw	a7,-4(t5)
40006244:	ffd71ae3          	bne	a4,t4,40006238 <_ldtoa_r+0xdd8>
40006248:	12011823          	sh	zero,304(sp)
4000624c:	018d8e93          	addi	t4,s11,24
40006250:	00052883          	lw	a7,0(a0)
40006254:	0511                	addi	a0,a0,4
40006256:	0611                	addi	a2,a2,4
40006258:	ff162e23          	sw	a7,-4(a2)
4000625c:	feae9ae3          	bne	t4,a0,40006250 <_ldtoa_r+0xdf0>
40006260:	10011a23          	sh	zero,276(sp)
40006264:	b945                	j	40005f14 <_ldtoa_r+0xab4>
40006266:	1a14                	addi	a3,sp,304
40006268:	11a10e93          	addi	t4,sp,282
4000626c:	0006d703          	lhu	a4,0(a3)
40006270:	01071613          	slli	a2,a4,0x10
40006274:	8641                	srai	a2,a2,0x10
40006276:	00065463          	bgez	a2,4000627e <_ldtoa_r+0xe1e>
4000627a:	0017e793          	ori	a5,a5,1
4000627e:	0706                	slli	a4,a4,0x1
40006280:	0742                	slli	a4,a4,0x10
40006282:	0027f613          	andi	a2,a5,2
40006286:	8341                	srli	a4,a4,0x10
40006288:	c219                	beqz	a2,4000628e <_ldtoa_r+0xe2e>
4000628a:	00176713          	ori	a4,a4,1
4000628e:	0786                	slli	a5,a5,0x1
40006290:	00e69023          	sh	a4,0(a3)
40006294:	07c2                	slli	a5,a5,0x10
40006296:	16f9                	addi	a3,a3,-2
40006298:	83c1                	srli	a5,a5,0x10
4000629a:	fdd699e3          	bne	a3,t4,4000626c <_ldtoa_r+0xe0c>
4000629e:	b96d                	j	40005f58 <_ldtoa_r+0xaf8>
400062a0:	00168613          	addi	a2,a3,1
400062a4:	10c11d23          	sh	a2,282(sp)
400062a8:	b945                	j	40005f58 <_ldtoa_r+0xaf8>

400062aa <_ldcheck>:
400062aa:	4518                	lw	a4,8(a0)
400062ac:	455c                	lw	a5,12(a0)
400062ae:	4110                	lw	a2,0(a0)
400062b0:	4154                	lw	a3,4(a0)
400062b2:	7139                	addi	sp,sp,-64
400062b4:	850a                	mv	a0,sp
400062b6:	084c                	addi	a1,sp,20
400062b8:	c43a                	sw	a4,8(sp)
400062ba:	c63e                	sw	a5,12(sp)
400062bc:	de06                	sw	ra,60(sp)
400062be:	c032                	sw	a2,0(sp)
400062c0:	c236                	sw	a3,4(sp)
400062c2:	8e5fe0ef          	jal	ra,40004ba6 <e113toe.isra.0>
400062c6:	02615783          	lhu	a5,38(sp)
400062ca:	4501                	li	a0,0
400062cc:	fff7c793          	not	a5,a5
400062d0:	01179713          	slli	a4,a5,0x11
400062d4:	eb19                	bnez	a4,400062ea <_ldcheck+0x40>
400062d6:	085c                	addi	a5,sp,20
400062d8:	02610693          	addi	a3,sp,38
400062dc:	0007d703          	lhu	a4,0(a5)
400062e0:	0789                	addi	a5,a5,2
400062e2:	e719                	bnez	a4,400062f0 <_ldcheck+0x46>
400062e4:	fed79ce3          	bne	a5,a3,400062dc <_ldcheck+0x32>
400062e8:	4509                	li	a0,2
400062ea:	50f2                	lw	ra,60(sp)
400062ec:	6121                	addi	sp,sp,64
400062ee:	8082                	ret
400062f0:	4505                	li	a0,1
400062f2:	bfe5                	j	400062ea <_ldcheck+0x40>

400062f4 <_localeconv_r>:
400062f4:	4000c537          	lui	a0,0x4000c
400062f8:	d2050513          	addi	a0,a0,-736 # 4000bd20 <__global_locale+0xf0>
400062fc:	8082                	ret

400062fe <__locale_mb_cur_max>:
400062fe:	4000c7b7          	lui	a5,0x4000c
40006302:	d587c503          	lbu	a0,-680(a5) # 4000bd58 <__global_locale+0x128>
40006306:	8082                	ret

40006308 <_malloc_r>:
40006308:	7179                	addi	sp,sp,-48
4000630a:	ce4e                	sw	s3,28(sp)
4000630c:	d606                	sw	ra,44(sp)
4000630e:	d422                	sw	s0,40(sp)
40006310:	d226                	sw	s1,36(sp)
40006312:	d04a                	sw	s2,32(sp)
40006314:	cc52                	sw	s4,24(sp)
40006316:	ca56                	sw	s5,20(sp)
40006318:	c85a                	sw	s6,16(sp)
4000631a:	c65e                	sw	s7,12(sp)
4000631c:	c462                	sw	s8,8(sp)
4000631e:	c266                	sw	s9,4(sp)
40006320:	00b58793          	addi	a5,a1,11
40006324:	4759                	li	a4,22
40006326:	89aa                	mv	s3,a0
40006328:	04f76f63          	bltu	a4,a5,40006386 <_malloc_r+0x7e>
4000632c:	47c1                	li	a5,16
4000632e:	18b7e063          	bltu	a5,a1,400064ae <_malloc_r+0x1a6>
40006332:	2581                	jal	40006972 <__malloc_lock>
40006334:	44c1                	li	s1,16
40006336:	47e1                	li	a5,24
40006338:	4589                	li	a1,2
4000633a:	4000c937          	lui	s2,0x4000c
4000633e:	d9c90913          	addi	s2,s2,-612 # 4000bd9c <__malloc_av_>
40006342:	97ca                	add	a5,a5,s2
40006344:	43c0                	lw	s0,4(a5)
40006346:	ff878713          	addi	a4,a5,-8
4000634a:	24e40363          	beq	s0,a4,40006590 <_malloc_r+0x288>
4000634e:	405c                	lw	a5,4(s0)
40006350:	4454                	lw	a3,12(s0)
40006352:	4410                	lw	a2,8(s0)
40006354:	9bf1                	andi	a5,a5,-4
40006356:	97a2                	add	a5,a5,s0
40006358:	43d8                	lw	a4,4(a5)
4000635a:	c654                	sw	a3,12(a2)
4000635c:	c690                	sw	a2,8(a3)
4000635e:	00176713          	ori	a4,a4,1
40006362:	854e                	mv	a0,s3
40006364:	c3d8                	sw	a4,4(a5)
40006366:	2539                	jal	40006974 <__malloc_unlock>
40006368:	00840513          	addi	a0,s0,8
4000636c:	50b2                	lw	ra,44(sp)
4000636e:	5422                	lw	s0,40(sp)
40006370:	5492                	lw	s1,36(sp)
40006372:	5902                	lw	s2,32(sp)
40006374:	49f2                	lw	s3,28(sp)
40006376:	4a62                	lw	s4,24(sp)
40006378:	4ad2                	lw	s5,20(sp)
4000637a:	4b42                	lw	s6,16(sp)
4000637c:	4bb2                	lw	s7,12(sp)
4000637e:	4c22                	lw	s8,8(sp)
40006380:	4c92                	lw	s9,4(sp)
40006382:	6145                	addi	sp,sp,48
40006384:	8082                	ret
40006386:	ff87f493          	andi	s1,a5,-8
4000638a:	1207c263          	bltz	a5,400064ae <_malloc_r+0x1a6>
4000638e:	12b4e063          	bltu	s1,a1,400064ae <_malloc_r+0x1a6>
40006392:	23c5                	jal	40006972 <__malloc_lock>
40006394:	1f700793          	li	a5,503
40006398:	2a97fb63          	bgeu	a5,s1,4000664e <_malloc_r+0x346>
4000639c:	0094d793          	srli	a5,s1,0x9
400063a0:	10078c63          	beqz	a5,400064b8 <_malloc_r+0x1b0>
400063a4:	4711                	li	a4,4
400063a6:	22f76a63          	bltu	a4,a5,400065da <_malloc_r+0x2d2>
400063aa:	0064d793          	srli	a5,s1,0x6
400063ae:	03978593          	addi	a1,a5,57
400063b2:	03878513          	addi	a0,a5,56
400063b6:	00359693          	slli	a3,a1,0x3
400063ba:	4000c937          	lui	s2,0x4000c
400063be:	d9c90913          	addi	s2,s2,-612 # 4000bd9c <__malloc_av_>
400063c2:	96ca                	add	a3,a3,s2
400063c4:	42c0                	lw	s0,4(a3)
400063c6:	16e1                	addi	a3,a3,-8
400063c8:	02868063          	beq	a3,s0,400063e8 <_malloc_r+0xe0>
400063cc:	463d                	li	a2,15
400063ce:	a031                	j	400063da <_malloc_r+0xd2>
400063d0:	1a075d63          	bgez	a4,4000658a <_malloc_r+0x282>
400063d4:	4440                	lw	s0,12(s0)
400063d6:	00868963          	beq	a3,s0,400063e8 <_malloc_r+0xe0>
400063da:	405c                	lw	a5,4(s0)
400063dc:	9bf1                	andi	a5,a5,-4
400063de:	40978733          	sub	a4,a5,s1
400063e2:	fee657e3          	bge	a2,a4,400063d0 <_malloc_r+0xc8>
400063e6:	85aa                	mv	a1,a0
400063e8:	01092403          	lw	s0,16(s2)
400063ec:	4000c837          	lui	a6,0x4000c
400063f0:	da480813          	addi	a6,a6,-604 # 4000bda4 <__malloc_av_+0x8>
400063f4:	17040a63          	beq	s0,a6,40006568 <_malloc_r+0x260>
400063f8:	405c                	lw	a5,4(s0)
400063fa:	46bd                	li	a3,15
400063fc:	9bf1                	andi	a5,a5,-4
400063fe:	40978733          	sub	a4,a5,s1
40006402:	24e6cb63          	blt	a3,a4,40006658 <_malloc_r+0x350>
40006406:	01092a23          	sw	a6,20(s2)
4000640a:	01092823          	sw	a6,16(s2)
4000640e:	22075663          	bgez	a4,4000663a <_malloc_r+0x332>
40006412:	1ff00713          	li	a4,511
40006416:	00492503          	lw	a0,4(s2)
4000641a:	18f76063          	bltu	a4,a5,4000659a <_malloc_r+0x292>
4000641e:	ff87f713          	andi	a4,a5,-8
40006422:	0721                	addi	a4,a4,8
40006424:	974a                	add	a4,a4,s2
40006426:	4314                	lw	a3,0(a4)
40006428:	0057d613          	srli	a2,a5,0x5
4000642c:	4785                	li	a5,1
4000642e:	00c797b3          	sll	a5,a5,a2
40006432:	8d5d                	or	a0,a0,a5
40006434:	ff870793          	addi	a5,a4,-8
40006438:	c45c                	sw	a5,12(s0)
4000643a:	c414                	sw	a3,8(s0)
4000643c:	00a92223          	sw	a0,4(s2)
40006440:	c300                	sw	s0,0(a4)
40006442:	c6c0                	sw	s0,12(a3)
40006444:	4025d793          	srai	a5,a1,0x2
40006448:	4605                	li	a2,1
4000644a:	00f61633          	sll	a2,a2,a5
4000644e:	06c56c63          	bltu	a0,a2,400064c6 <_malloc_r+0x1be>
40006452:	00a677b3          	and	a5,a2,a0
40006456:	ef81                	bnez	a5,4000646e <_malloc_r+0x166>
40006458:	0606                	slli	a2,a2,0x1
4000645a:	99f1                	andi	a1,a1,-4
4000645c:	00a677b3          	and	a5,a2,a0
40006460:	0591                	addi	a1,a1,4
40006462:	e791                	bnez	a5,4000646e <_malloc_r+0x166>
40006464:	0606                	slli	a2,a2,0x1
40006466:	00a677b3          	and	a5,a2,a0
4000646a:	0591                	addi	a1,a1,4
4000646c:	dfe5                	beqz	a5,40006464 <_malloc_r+0x15c>
4000646e:	48bd                	li	a7,15
40006470:	00359313          	slli	t1,a1,0x3
40006474:	934a                	add	t1,t1,s2
40006476:	851a                	mv	a0,t1
40006478:	455c                	lw	a5,12(a0)
4000647a:	8e2e                	mv	t3,a1
4000647c:	16f50f63          	beq	a0,a5,400065fa <_malloc_r+0x2f2>
40006480:	43d8                	lw	a4,4(a5)
40006482:	843e                	mv	s0,a5
40006484:	47dc                	lw	a5,12(a5)
40006486:	9b71                	andi	a4,a4,-4
40006488:	409706b3          	sub	a3,a4,s1
4000648c:	16d8ce63          	blt	a7,a3,40006608 <_malloc_r+0x300>
40006490:	fe06c6e3          	bltz	a3,4000647c <_malloc_r+0x174>
40006494:	9722                	add	a4,a4,s0
40006496:	4354                	lw	a3,4(a4)
40006498:	4410                	lw	a2,8(s0)
4000649a:	854e                	mv	a0,s3
4000649c:	0016e693          	ori	a3,a3,1
400064a0:	c354                	sw	a3,4(a4)
400064a2:	c65c                	sw	a5,12(a2)
400064a4:	c790                	sw	a2,8(a5)
400064a6:	21f9                	jal	40006974 <__malloc_unlock>
400064a8:	00840513          	addi	a0,s0,8
400064ac:	b5c1                	j	4000636c <_malloc_r+0x64>
400064ae:	47b1                	li	a5,12
400064b0:	00f9a023          	sw	a5,0(s3)
400064b4:	4501                	li	a0,0
400064b6:	bd5d                	j	4000636c <_malloc_r+0x64>
400064b8:	20000693          	li	a3,512
400064bc:	04000593          	li	a1,64
400064c0:	03f00513          	li	a0,63
400064c4:	bddd                	j	400063ba <_malloc_r+0xb2>
400064c6:	00892403          	lw	s0,8(s2)
400064ca:	405c                	lw	a5,4(s0)
400064cc:	ffc7fb13          	andi	s6,a5,-4
400064d0:	009b6763          	bltu	s6,s1,400064de <_malloc_r+0x1d6>
400064d4:	409b0733          	sub	a4,s6,s1
400064d8:	47bd                	li	a5,15
400064da:	08e7ca63          	blt	a5,a4,4000656e <_malloc_r+0x266>
400064de:	4000c7b7          	lui	a5,0x4000c
400064e2:	24c7aa83          	lw	s5,588(a5) # 4000c24c <__malloc_top_pad>
400064e6:	8101a703          	lw	a4,-2032(gp) # 4000c1b8 <__malloc_sbrk_base>
400064ea:	57fd                	li	a5,-1
400064ec:	01640a33          	add	s4,s0,s6
400064f0:	9aa6                	add	s5,s5,s1
400064f2:	2cf70563          	beq	a4,a5,400067bc <_malloc_r+0x4b4>
400064f6:	6785                	lui	a5,0x1
400064f8:	07bd                	addi	a5,a5,15 # 100f <__stack_size+0xee3>
400064fa:	9abe                	add	s5,s5,a5
400064fc:	77fd                	lui	a5,0xfffff
400064fe:	00fafab3          	and	s5,s5,a5
40006502:	85d6                	mv	a1,s5
40006504:	854e                	mv	a0,s3
40006506:	21d5                	jal	400069ea <_sbrk_r>
40006508:	57fd                	li	a5,-1
4000650a:	8baa                	mv	s7,a0
4000650c:	18f50663          	beq	a0,a5,40006698 <_malloc_r+0x390>
40006510:	19456263          	bltu	a0,s4,40006694 <_malloc_r+0x38c>
40006514:	4001ec37          	lui	s8,0x4001e
40006518:	fb0c0c13          	addi	s8,s8,-80 # 4001dfb0 <__malloc_current_mallinfo>
4000651c:	000c2583          	lw	a1,0(s8)
40006520:	95d6                	add	a1,a1,s5
40006522:	00bc2023          	sw	a1,0(s8)
40006526:	872e                	mv	a4,a1
40006528:	1eaa1663          	bne	s4,a0,40006714 <_malloc_r+0x40c>
4000652c:	01451793          	slli	a5,a0,0x14
40006530:	1e079263          	bnez	a5,40006714 <_malloc_r+0x40c>
40006534:	00892b83          	lw	s7,8(s2)
40006538:	015b07b3          	add	a5,s6,s5
4000653c:	0017e793          	ori	a5,a5,1
40006540:	00fba223          	sw	a5,4(s7)
40006544:	4000c737          	lui	a4,0x4000c
40006548:	24872683          	lw	a3,584(a4) # 4000c248 <__malloc_max_sbrked_mem>
4000654c:	00b6f463          	bgeu	a3,a1,40006554 <_malloc_r+0x24c>
40006550:	24b72423          	sw	a1,584(a4)
40006554:	4000c737          	lui	a4,0x4000c
40006558:	24472683          	lw	a3,580(a4) # 4000c244 <__malloc_max_total_mem>
4000655c:	00b6f463          	bgeu	a3,a1,40006564 <_malloc_r+0x25c>
40006560:	24b72223          	sw	a1,580(a4)
40006564:	845e                	mv	s0,s7
40006566:	aa25                	j	4000669e <_malloc_r+0x396>
40006568:	00492503          	lw	a0,4(s2)
4000656c:	bde1                	j	40006444 <_malloc_r+0x13c>
4000656e:	0014e793          	ori	a5,s1,1
40006572:	c05c                	sw	a5,4(s0)
40006574:	94a2                	add	s1,s1,s0
40006576:	00992423          	sw	s1,8(s2)
4000657a:	00176713          	ori	a4,a4,1
4000657e:	854e                	mv	a0,s3
40006580:	c0d8                	sw	a4,4(s1)
40006582:	2ecd                	jal	40006974 <__malloc_unlock>
40006584:	00840513          	addi	a0,s0,8
40006588:	b3d5                	j	4000636c <_malloc_r+0x64>
4000658a:	4454                	lw	a3,12(s0)
4000658c:	4410                	lw	a2,8(s0)
4000658e:	b3e1                	j	40006356 <_malloc_r+0x4e>
40006590:	47c0                	lw	s0,12(a5)
40006592:	0589                	addi	a1,a1,2
40006594:	e4878ae3          	beq	a5,s0,400063e8 <_malloc_r+0xe0>
40006598:	bb5d                	j	4000634e <_malloc_r+0x46>
4000659a:	0097d713          	srli	a4,a5,0x9
4000659e:	4691                	li	a3,4
400065a0:	0ee6f263          	bgeu	a3,a4,40006684 <_malloc_r+0x37c>
400065a4:	46d1                	li	a3,20
400065a6:	24e6e463          	bltu	a3,a4,400067ee <_malloc_r+0x4e6>
400065aa:	05c70613          	addi	a2,a4,92
400065ae:	05b70693          	addi	a3,a4,91
400065b2:	060e                	slli	a2,a2,0x3
400065b4:	964a                	add	a2,a2,s2
400065b6:	4218                	lw	a4,0(a2)
400065b8:	1661                	addi	a2,a2,-8
400065ba:	00e61663          	bne	a2,a4,400065c6 <_malloc_r+0x2be>
400065be:	a409                	j	400067c0 <_malloc_r+0x4b8>
400065c0:	4718                	lw	a4,8(a4)
400065c2:	00e60663          	beq	a2,a4,400065ce <_malloc_r+0x2c6>
400065c6:	4354                	lw	a3,4(a4)
400065c8:	9af1                	andi	a3,a3,-4
400065ca:	fed7ebe3          	bltu	a5,a3,400065c0 <_malloc_r+0x2b8>
400065ce:	4750                	lw	a2,12(a4)
400065d0:	c450                	sw	a2,12(s0)
400065d2:	c418                	sw	a4,8(s0)
400065d4:	c600                	sw	s0,8(a2)
400065d6:	c740                	sw	s0,12(a4)
400065d8:	b5b5                	j	40006444 <_malloc_r+0x13c>
400065da:	4751                	li	a4,20
400065dc:	0cf77d63          	bgeu	a4,a5,400066b6 <_malloc_r+0x3ae>
400065e0:	05400713          	li	a4,84
400065e4:	22f76163          	bltu	a4,a5,40006806 <_malloc_r+0x4fe>
400065e8:	00c4d793          	srli	a5,s1,0xc
400065ec:	06f78593          	addi	a1,a5,111 # fffff06f <_bss_lma+0x7fffe5cf>
400065f0:	06e78513          	addi	a0,a5,110
400065f4:	00359693          	slli	a3,a1,0x3
400065f8:	b3c9                	j	400063ba <_malloc_r+0xb2>
400065fa:	0e05                	addi	t3,t3,1
400065fc:	003e7793          	andi	a5,t3,3
40006600:	0521                	addi	a0,a0,8
40006602:	c7f1                	beqz	a5,400066ce <_malloc_r+0x3c6>
40006604:	455c                	lw	a5,12(a0)
40006606:	bd9d                	j	4000647c <_malloc_r+0x174>
40006608:	4410                	lw	a2,8(s0)
4000660a:	0014e593          	ori	a1,s1,1
4000660e:	c04c                	sw	a1,4(s0)
40006610:	c65c                	sw	a5,12(a2)
40006612:	c790                	sw	a2,8(a5)
40006614:	94a2                	add	s1,s1,s0
40006616:	00992a23          	sw	s1,20(s2)
4000661a:	00992823          	sw	s1,16(s2)
4000661e:	0016e793          	ori	a5,a3,1
40006622:	0104a623          	sw	a6,12(s1)
40006626:	0104a423          	sw	a6,8(s1)
4000662a:	c0dc                	sw	a5,4(s1)
4000662c:	9722                	add	a4,a4,s0
4000662e:	854e                	mv	a0,s3
40006630:	c314                	sw	a3,0(a4)
40006632:	2689                	jal	40006974 <__malloc_unlock>
40006634:	00840513          	addi	a0,s0,8
40006638:	bb15                	j	4000636c <_malloc_r+0x64>
4000663a:	97a2                	add	a5,a5,s0
4000663c:	43d8                	lw	a4,4(a5)
4000663e:	854e                	mv	a0,s3
40006640:	00176713          	ori	a4,a4,1
40006644:	c3d8                	sw	a4,4(a5)
40006646:	263d                	jal	40006974 <__malloc_unlock>
40006648:	00840513          	addi	a0,s0,8
4000664c:	b305                	j	4000636c <_malloc_r+0x64>
4000664e:	0034d593          	srli	a1,s1,0x3
40006652:	00848793          	addi	a5,s1,8
40006656:	b1d5                	j	4000633a <_malloc_r+0x32>
40006658:	0014e693          	ori	a3,s1,1
4000665c:	c054                	sw	a3,4(s0)
4000665e:	94a2                	add	s1,s1,s0
40006660:	00992a23          	sw	s1,20(s2)
40006664:	00992823          	sw	s1,16(s2)
40006668:	00176693          	ori	a3,a4,1
4000666c:	0104a623          	sw	a6,12(s1)
40006670:	0104a423          	sw	a6,8(s1)
40006674:	c0d4                	sw	a3,4(s1)
40006676:	97a2                	add	a5,a5,s0
40006678:	854e                	mv	a0,s3
4000667a:	c398                	sw	a4,0(a5)
4000667c:	2ce5                	jal	40006974 <__malloc_unlock>
4000667e:	00840513          	addi	a0,s0,8
40006682:	b1ed                	j	4000636c <_malloc_r+0x64>
40006684:	0067d713          	srli	a4,a5,0x6
40006688:	03970613          	addi	a2,a4,57
4000668c:	03870693          	addi	a3,a4,56
40006690:	060e                	slli	a2,a2,0x3
40006692:	b70d                	j	400065b4 <_malloc_r+0x2ac>
40006694:	07240763          	beq	s0,s2,40006702 <_malloc_r+0x3fa>
40006698:	00892403          	lw	s0,8(s2)
4000669c:	405c                	lw	a5,4(s0)
4000669e:	9bf1                	andi	a5,a5,-4
400066a0:	40978733          	sub	a4,a5,s1
400066a4:	0097e563          	bltu	a5,s1,400066ae <_malloc_r+0x3a6>
400066a8:	47bd                	li	a5,15
400066aa:	ece7c2e3          	blt	a5,a4,4000656e <_malloc_r+0x266>
400066ae:	854e                	mv	a0,s3
400066b0:	24d1                	jal	40006974 <__malloc_unlock>
400066b2:	4501                	li	a0,0
400066b4:	b965                	j	4000636c <_malloc_r+0x64>
400066b6:	05c78593          	addi	a1,a5,92
400066ba:	05b78513          	addi	a0,a5,91
400066be:	00359693          	slli	a3,a1,0x3
400066c2:	b9e5                	j	400063ba <_malloc_r+0xb2>
400066c4:	00832783          	lw	a5,8(t1)
400066c8:	15fd                	addi	a1,a1,-1
400066ca:	1c679963          	bne	a5,t1,4000689c <_malloc_r+0x594>
400066ce:	0035f793          	andi	a5,a1,3
400066d2:	1361                	addi	t1,t1,-8
400066d4:	fbe5                	bnez	a5,400066c4 <_malloc_r+0x3bc>
400066d6:	00492703          	lw	a4,4(s2)
400066da:	fff64793          	not	a5,a2
400066de:	8ff9                	and	a5,a5,a4
400066e0:	00f92223          	sw	a5,4(s2)
400066e4:	0606                	slli	a2,a2,0x1
400066e6:	dec7e0e3          	bltu	a5,a2,400064c6 <_malloc_r+0x1be>
400066ea:	dc060ee3          	beqz	a2,400064c6 <_malloc_r+0x1be>
400066ee:	00f67733          	and	a4,a2,a5
400066f2:	e711                	bnez	a4,400066fe <_malloc_r+0x3f6>
400066f4:	0606                	slli	a2,a2,0x1
400066f6:	00f67733          	and	a4,a2,a5
400066fa:	0e11                	addi	t3,t3,4
400066fc:	df65                	beqz	a4,400066f4 <_malloc_r+0x3ec>
400066fe:	85f2                	mv	a1,t3
40006700:	bb85                	j	40006470 <_malloc_r+0x168>
40006702:	4001ec37          	lui	s8,0x4001e
40006706:	fb0c0c13          	addi	s8,s8,-80 # 4001dfb0 <__malloc_current_mallinfo>
4000670a:	000c2703          	lw	a4,0(s8)
4000670e:	9756                	add	a4,a4,s5
40006710:	00ec2023          	sw	a4,0(s8)
40006714:	8101a683          	lw	a3,-2032(gp) # 4000c1b8 <__malloc_sbrk_base>
40006718:	57fd                	li	a5,-1
4000671a:	10f68363          	beq	a3,a5,40006820 <_malloc_r+0x518>
4000671e:	414b87b3          	sub	a5,s7,s4
40006722:	97ba                	add	a5,a5,a4
40006724:	00fc2023          	sw	a5,0(s8)
40006728:	007bfc93          	andi	s9,s7,7
4000672c:	0a0c8263          	beqz	s9,400067d0 <_malloc_r+0x4c8>
40006730:	6705                	lui	a4,0x1
40006732:	419b8bb3          	sub	s7,s7,s9
40006736:	00870593          	addi	a1,a4,8 # 1008 <__stack_size+0xedc>
4000673a:	0ba1                	addi	s7,s7,8
4000673c:	419585b3          	sub	a1,a1,s9
40006740:	9ade                	add	s5,s5,s7
40006742:	415585b3          	sub	a1,a1,s5
40006746:	177d                	addi	a4,a4,-1
40006748:	00e5fa33          	and	s4,a1,a4
4000674c:	85d2                	mv	a1,s4
4000674e:	854e                	mv	a0,s3
40006750:	2c69                	jal	400069ea <_sbrk_r>
40006752:	57fd                	li	a5,-1
40006754:	10f50663          	beq	a0,a5,40006860 <_malloc_r+0x558>
40006758:	41750533          	sub	a0,a0,s7
4000675c:	01450ab3          	add	s5,a0,s4
40006760:	000c2703          	lw	a4,0(s8)
40006764:	01792423          	sw	s7,8(s2)
40006768:	001ae793          	ori	a5,s5,1
4000676c:	00ea05b3          	add	a1,s4,a4
40006770:	00bc2023          	sw	a1,0(s8)
40006774:	00fba223          	sw	a5,4(s7)
40006778:	dd2406e3          	beq	s0,s2,40006544 <_malloc_r+0x23c>
4000677c:	46bd                	li	a3,15
4000677e:	0b66f463          	bgeu	a3,s6,40006826 <_malloc_r+0x51e>
40006782:	4058                	lw	a4,4(s0)
40006784:	ff4b0793          	addi	a5,s6,-12
40006788:	9be1                	andi	a5,a5,-8
4000678a:	8b05                	andi	a4,a4,1
4000678c:	8f5d                	or	a4,a4,a5
4000678e:	c058                	sw	a4,4(s0)
40006790:	4615                	li	a2,5
40006792:	00f40733          	add	a4,s0,a5
40006796:	c350                	sw	a2,4(a4)
40006798:	c710                	sw	a2,8(a4)
4000679a:	00f6e563          	bltu	a3,a5,400067a4 <_malloc_r+0x49c>
4000679e:	004ba783          	lw	a5,4(s7)
400067a2:	b34d                	j	40006544 <_malloc_r+0x23c>
400067a4:	00840593          	addi	a1,s0,8
400067a8:	854e                	mv	a0,s3
400067aa:	823fd0ef          	jal	ra,40003fcc <_free_r>
400067ae:	00892b83          	lw	s7,8(s2)
400067b2:	000c2583          	lw	a1,0(s8)
400067b6:	004ba783          	lw	a5,4(s7)
400067ba:	b369                	j	40006544 <_malloc_r+0x23c>
400067bc:	0ac1                	addi	s5,s5,16
400067be:	b391                	j	40006502 <_malloc_r+0x1fa>
400067c0:	8689                	srai	a3,a3,0x2
400067c2:	4785                	li	a5,1
400067c4:	00d797b3          	sll	a5,a5,a3
400067c8:	8d5d                	or	a0,a0,a5
400067ca:	00a92223          	sw	a0,4(s2)
400067ce:	b509                	j	400065d0 <_malloc_r+0x2c8>
400067d0:	015b85b3          	add	a1,s7,s5
400067d4:	40b005b3          	neg	a1,a1
400067d8:	05d2                	slli	a1,a1,0x14
400067da:	0145da13          	srli	s4,a1,0x14
400067de:	85d2                	mv	a1,s4
400067e0:	854e                	mv	a0,s3
400067e2:	2421                	jal	400069ea <_sbrk_r>
400067e4:	57fd                	li	a5,-1
400067e6:	f6f519e3          	bne	a0,a5,40006758 <_malloc_r+0x450>
400067ea:	4a01                	li	s4,0
400067ec:	bf95                	j	40006760 <_malloc_r+0x458>
400067ee:	05400693          	li	a3,84
400067f2:	02e6ee63          	bltu	a3,a4,4000682e <_malloc_r+0x526>
400067f6:	00c7d713          	srli	a4,a5,0xc
400067fa:	06f70613          	addi	a2,a4,111
400067fe:	06e70693          	addi	a3,a4,110
40006802:	060e                	slli	a2,a2,0x3
40006804:	bb45                	j	400065b4 <_malloc_r+0x2ac>
40006806:	15400713          	li	a4,340
4000680a:	02f76e63          	bltu	a4,a5,40006846 <_malloc_r+0x53e>
4000680e:	00f4d793          	srli	a5,s1,0xf
40006812:	07878593          	addi	a1,a5,120
40006816:	07778513          	addi	a0,a5,119
4000681a:	00359693          	slli	a3,a1,0x3
4000681e:	be71                	j	400063ba <_malloc_r+0xb2>
40006820:	8171a823          	sw	s7,-2032(gp) # 4000c1b8 <__malloc_sbrk_base>
40006824:	b711                	j	40006728 <_malloc_r+0x420>
40006826:	4785                	li	a5,1
40006828:	00fba223          	sw	a5,4(s7)
4000682c:	b549                	j	400066ae <_malloc_r+0x3a6>
4000682e:	15400693          	li	a3,340
40006832:	02e6ed63          	bltu	a3,a4,4000686c <_malloc_r+0x564>
40006836:	00f7d713          	srli	a4,a5,0xf
4000683a:	07870613          	addi	a2,a4,120
4000683e:	07770693          	addi	a3,a4,119
40006842:	060e                	slli	a2,a2,0x3
40006844:	bb85                	j	400065b4 <_malloc_r+0x2ac>
40006846:	55400713          	li	a4,1364
4000684a:	02f76d63          	bltu	a4,a5,40006884 <_malloc_r+0x57c>
4000684e:	0124d793          	srli	a5,s1,0x12
40006852:	07d78593          	addi	a1,a5,125
40006856:	07c78513          	addi	a0,a5,124
4000685a:	00359693          	slli	a3,a1,0x3
4000685e:	beb1                	j	400063ba <_malloc_r+0xb2>
40006860:	1ce1                	addi	s9,s9,-8
40006862:	9ae6                	add	s5,s5,s9
40006864:	417a8ab3          	sub	s5,s5,s7
40006868:	4a01                	li	s4,0
4000686a:	bddd                	j	40006760 <_malloc_r+0x458>
4000686c:	55400693          	li	a3,1364
40006870:	02e6e163          	bltu	a3,a4,40006892 <_malloc_r+0x58a>
40006874:	0127d713          	srli	a4,a5,0x12
40006878:	07d70613          	addi	a2,a4,125
4000687c:	07c70693          	addi	a3,a4,124
40006880:	060e                	slli	a2,a2,0x3
40006882:	bb0d                	j	400065b4 <_malloc_r+0x2ac>
40006884:	3f800693          	li	a3,1016
40006888:	07f00593          	li	a1,127
4000688c:	07e00513          	li	a0,126
40006890:	b62d                	j	400063ba <_malloc_r+0xb2>
40006892:	3f800613          	li	a2,1016
40006896:	07e00693          	li	a3,126
4000689a:	bb29                	j	400065b4 <_malloc_r+0x2ac>
4000689c:	00492783          	lw	a5,4(s2)
400068a0:	b591                	j	400066e4 <_malloc_r+0x3dc>

400068a2 <__ascii_mbtowc>:
400068a2:	c999                	beqz	a1,400068b8 <__ascii_mbtowc+0x16>
400068a4:	c61d                	beqz	a2,400068d2 <__ascii_mbtowc+0x30>
400068a6:	ca95                	beqz	a3,400068da <__ascii_mbtowc+0x38>
400068a8:	00064783          	lbu	a5,0(a2)
400068ac:	c19c                	sw	a5,0(a1)
400068ae:	00064503          	lbu	a0,0(a2)
400068b2:	00a03533          	snez	a0,a0
400068b6:	8082                	ret
400068b8:	1141                	addi	sp,sp,-16
400068ba:	006c                	addi	a1,sp,12
400068bc:	ce09                	beqz	a2,400068d6 <__ascii_mbtowc+0x34>
400068be:	c285                	beqz	a3,400068de <__ascii_mbtowc+0x3c>
400068c0:	00064783          	lbu	a5,0(a2)
400068c4:	c19c                	sw	a5,0(a1)
400068c6:	00064503          	lbu	a0,0(a2)
400068ca:	00a03533          	snez	a0,a0
400068ce:	0141                	addi	sp,sp,16
400068d0:	8082                	ret
400068d2:	4501                	li	a0,0
400068d4:	8082                	ret
400068d6:	4501                	li	a0,0
400068d8:	bfdd                	j	400068ce <__ascii_mbtowc+0x2c>
400068da:	5579                	li	a0,-2
400068dc:	8082                	ret
400068de:	5579                	li	a0,-2
400068e0:	b7fd                	j	400068ce <__ascii_mbtowc+0x2c>

400068e2 <memchr>:
400068e2:	00357793          	andi	a5,a0,3
400068e6:	0ff5f693          	zext.b	a3,a1
400068ea:	c785                	beqz	a5,40006912 <memchr+0x30>
400068ec:	fff60793          	addi	a5,a2,-1
400068f0:	ce19                	beqz	a2,4000690e <memchr+0x2c>
400068f2:	567d                	li	a2,-1
400068f4:	a801                	j	40006904 <memchr+0x22>
400068f6:	0505                	addi	a0,a0,1
400068f8:	00357713          	andi	a4,a0,3
400068fc:	cf01                	beqz	a4,40006914 <memchr+0x32>
400068fe:	17fd                	addi	a5,a5,-1
40006900:	00c78763          	beq	a5,a2,4000690e <memchr+0x2c>
40006904:	00054703          	lbu	a4,0(a0)
40006908:	fed717e3          	bne	a4,a3,400068f6 <memchr+0x14>
4000690c:	8082                	ret
4000690e:	4501                	li	a0,0
40006910:	8082                	ret
40006912:	87b2                	mv	a5,a2
40006914:	470d                	li	a4,3
40006916:	04f77263          	bgeu	a4,a5,4000695a <memchr+0x78>
4000691a:	0ff5f593          	zext.b	a1,a1
4000691e:	00859713          	slli	a4,a1,0x8
40006922:	95ba                	add	a1,a1,a4
40006924:	01059713          	slli	a4,a1,0x10
40006928:	feff08b7          	lui	a7,0xfeff0
4000692c:	80808837          	lui	a6,0x80808
40006930:	95ba                	add	a1,a1,a4
40006932:	eff88893          	addi	a7,a7,-257 # fefefeff <_bss_lma+0x7efef45f>
40006936:	08080813          	addi	a6,a6,128 # 80808080 <_bss_lma+0x8075e0>
4000693a:	430d                	li	t1,3
4000693c:	a029                	j	40006946 <memchr+0x64>
4000693e:	17f1                	addi	a5,a5,-4
40006940:	0511                	addi	a0,a0,4
40006942:	00f37c63          	bgeu	t1,a5,4000695a <memchr+0x78>
40006946:	4118                	lw	a4,0(a0)
40006948:	8f2d                	xor	a4,a4,a1
4000694a:	01170633          	add	a2,a4,a7
4000694e:	fff74713          	not	a4,a4
40006952:	8f71                	and	a4,a4,a2
40006954:	01077733          	and	a4,a4,a6
40006958:	d37d                	beqz	a4,4000693e <memchr+0x5c>
4000695a:	00f50733          	add	a4,a0,a5
4000695e:	e789                	bnez	a5,40006968 <memchr+0x86>
40006960:	b77d                	j	4000690e <memchr+0x2c>
40006962:	0505                	addi	a0,a0,1
40006964:	faa705e3          	beq	a4,a0,4000690e <memchr+0x2c>
40006968:	00054783          	lbu	a5,0(a0)
4000696c:	fed79be3          	bne	a5,a3,40006962 <memchr+0x80>
40006970:	8082                	ret

40006972 <__malloc_lock>:
40006972:	8082                	ret

40006974 <__malloc_unlock>:
40006974:	8082                	ret

40006976 <_Balloc>:
40006976:	457c                	lw	a5,76(a0)
40006978:	1141                	addi	sp,sp,-16
4000697a:	c422                	sw	s0,8(sp)
4000697c:	c226                	sw	s1,4(sp)
4000697e:	c606                	sw	ra,12(sp)
40006980:	c04a                	sw	s2,0(sp)
40006982:	842a                	mv	s0,a0
40006984:	84ae                	mv	s1,a1
40006986:	c395                	beqz	a5,400069aa <_Balloc+0x34>
40006988:	00249713          	slli	a4,s1,0x2
4000698c:	97ba                	add	a5,a5,a4
4000698e:	4388                	lw	a0,0(a5)
40006990:	c515                	beqz	a0,400069bc <_Balloc+0x46>
40006992:	4118                	lw	a4,0(a0)
40006994:	c398                	sw	a4,0(a5)
40006996:	00052823          	sw	zero,16(a0)
4000699a:	00052623          	sw	zero,12(a0)
4000699e:	40b2                	lw	ra,12(sp)
400069a0:	4422                	lw	s0,8(sp)
400069a2:	4492                	lw	s1,4(sp)
400069a4:	4902                	lw	s2,0(sp)
400069a6:	0141                	addi	sp,sp,16
400069a8:	8082                	ret
400069aa:	02100613          	li	a2,33
400069ae:	4591                	li	a1,4
400069b0:	26b5                	jal	40006d1c <_calloc_r>
400069b2:	c468                	sw	a0,76(s0)
400069b4:	87aa                	mv	a5,a0
400069b6:	f969                	bnez	a0,40006988 <_Balloc+0x12>
400069b8:	4501                	li	a0,0
400069ba:	b7d5                	j	4000699e <_Balloc+0x28>
400069bc:	4905                	li	s2,1
400069be:	00991933          	sll	s2,s2,s1
400069c2:	00590613          	addi	a2,s2,5
400069c6:	060a                	slli	a2,a2,0x2
400069c8:	4585                	li	a1,1
400069ca:	8522                	mv	a0,s0
400069cc:	2e81                	jal	40006d1c <_calloc_r>
400069ce:	d56d                	beqz	a0,400069b8 <_Balloc+0x42>
400069d0:	c144                	sw	s1,4(a0)
400069d2:	01252423          	sw	s2,8(a0)
400069d6:	b7c1                	j	40006996 <_Balloc+0x20>

400069d8 <_Bfree>:
400069d8:	c981                	beqz	a1,400069e8 <_Bfree+0x10>
400069da:	41d8                	lw	a4,4(a1)
400069dc:	457c                	lw	a5,76(a0)
400069de:	070a                	slli	a4,a4,0x2
400069e0:	97ba                	add	a5,a5,a4
400069e2:	4398                	lw	a4,0(a5)
400069e4:	c198                	sw	a4,0(a1)
400069e6:	c38c                	sw	a1,0(a5)
400069e8:	8082                	ret

400069ea <_sbrk_r>:
400069ea:	1141                	addi	sp,sp,-16
400069ec:	c422                	sw	s0,8(sp)
400069ee:	c226                	sw	s1,4(sp)
400069f0:	842a                	mv	s0,a0
400069f2:	4000c4b7          	lui	s1,0x4000c
400069f6:	852e                	mv	a0,a1
400069f8:	c606                	sw	ra,12(sp)
400069fa:	2404a823          	sw	zero,592(s1) # 4000c250 <errno>
400069fe:	6d8020ef          	jal	ra,400090d6 <_sbrk>
40006a02:	57fd                	li	a5,-1
40006a04:	00f50763          	beq	a0,a5,40006a12 <_sbrk_r+0x28>
40006a08:	40b2                	lw	ra,12(sp)
40006a0a:	4422                	lw	s0,8(sp)
40006a0c:	4492                	lw	s1,4(sp)
40006a0e:	0141                	addi	sp,sp,16
40006a10:	8082                	ret
40006a12:	2504a783          	lw	a5,592(s1)
40006a16:	dbed                	beqz	a5,40006a08 <_sbrk_r+0x1e>
40006a18:	40b2                	lw	ra,12(sp)
40006a1a:	c01c                	sw	a5,0(s0)
40006a1c:	4422                	lw	s0,8(sp)
40006a1e:	4492                	lw	s1,4(sp)
40006a20:	0141                	addi	sp,sp,16
40006a22:	8082                	ret

40006a24 <frexp>:
40006a24:	1141                	addi	sp,sp,-16
40006a26:	c226                	sw	s1,4(sp)
40006a28:	800004b7          	lui	s1,0x80000
40006a2c:	c422                	sw	s0,8(sp)
40006a2e:	c606                	sw	ra,12(sp)
40006a30:	fff4c493          	not	s1,s1
40006a34:	8432                	mv	s0,a2
40006a36:	00062023          	sw	zero,0(a2)
40006a3a:	00b4f6b3          	and	a3,s1,a1
40006a3e:	7ff00637          	lui	a2,0x7ff00
40006a42:	87ae                	mv	a5,a1
40006a44:	872a                	mv	a4,a0
40006a46:	02c6f763          	bgeu	a3,a2,40006a74 <frexp+0x50>
40006a4a:	00a6e8b3          	or	a7,a3,a0
40006a4e:	02088363          	beqz	a7,40006a74 <frexp+0x50>
40006a52:	00c5f833          	and	a6,a1,a2
40006a56:	02080663          	beqz	a6,40006a82 <frexp+0x5e>
40006a5a:	4581                	li	a1,0
40006a5c:	86d1                	srai	a3,a3,0x14
40006a5e:	80100637          	lui	a2,0x80100
40006a62:	167d                	addi	a2,a2,-1 # 800fffff <_bss_lma+0xff55f>
40006a64:	c0268693          	addi	a3,a3,-1022
40006a68:	8ff1                	and	a5,a5,a2
40006a6a:	96ae                	add	a3,a3,a1
40006a6c:	3fe00637          	lui	a2,0x3fe00
40006a70:	8fd1                	or	a5,a5,a2
40006a72:	c014                	sw	a3,0(s0)
40006a74:	40b2                	lw	ra,12(sp)
40006a76:	4422                	lw	s0,8(sp)
40006a78:	4492                	lw	s1,4(sp)
40006a7a:	853a                	mv	a0,a4
40006a7c:	85be                	mv	a1,a5
40006a7e:	0141                	addi	sp,sp,16
40006a80:	8082                	ret
40006a82:	81c1a683          	lw	a3,-2020(gp) # 4000c1c4 <__malloc_trim_threshold+0x8>
40006a86:	8181a603          	lw	a2,-2024(gp) # 4000c1c0 <__malloc_trim_threshold+0x4>
40006a8a:	752020ef          	jal	ra,400091dc <__muldf3>
40006a8e:	87ae                	mv	a5,a1
40006a90:	00b4f6b3          	and	a3,s1,a1
40006a94:	872a                	mv	a4,a0
40006a96:	fca00593          	li	a1,-54
40006a9a:	b7c9                	j	40006a5c <frexp+0x38>

40006a9c <strcpy>:
40006a9c:	00b567b3          	or	a5,a0,a1
40006aa0:	8b8d                	andi	a5,a5,3
40006aa2:	efb1                	bnez	a5,40006afe <strcpy+0x62>
40006aa4:	4198                	lw	a4,0(a1)
40006aa6:	7f7f86b7          	lui	a3,0x7f7f8
40006aaa:	f7f68693          	addi	a3,a3,-129 # 7f7f7f7f <_stack_top+0x3f7d9e73>
40006aae:	00d777b3          	and	a5,a4,a3
40006ab2:	97b6                	add	a5,a5,a3
40006ab4:	8fd9                	or	a5,a5,a4
40006ab6:	8fd5                	or	a5,a5,a3
40006ab8:	567d                	li	a2,-1
40006aba:	04c79b63          	bne	a5,a2,40006b10 <strcpy+0x74>
40006abe:	862a                	mv	a2,a0
40006ac0:	587d                	li	a6,-1
40006ac2:	c218                	sw	a4,0(a2)
40006ac4:	41d8                	lw	a4,4(a1)
40006ac6:	0591                	addi	a1,a1,4
40006ac8:	0611                	addi	a2,a2,4 # 3fe00004 <__stack_size+0x3fdffed8>
40006aca:	00d777b3          	and	a5,a4,a3
40006ace:	97b6                	add	a5,a5,a3
40006ad0:	8fd9                	or	a5,a5,a4
40006ad2:	8fd5                	or	a5,a5,a3
40006ad4:	ff0787e3          	beq	a5,a6,40006ac2 <strcpy+0x26>
40006ad8:	0005c783          	lbu	a5,0(a1)
40006adc:	0015c703          	lbu	a4,1(a1)
40006ae0:	0025c683          	lbu	a3,2(a1)
40006ae4:	00f60023          	sb	a5,0(a2)
40006ae8:	c799                	beqz	a5,40006af6 <strcpy+0x5a>
40006aea:	00e600a3          	sb	a4,1(a2)
40006aee:	c701                	beqz	a4,40006af6 <strcpy+0x5a>
40006af0:	00d60123          	sb	a3,2(a2)
40006af4:	e291                	bnez	a3,40006af8 <strcpy+0x5c>
40006af6:	8082                	ret
40006af8:	000601a3          	sb	zero,3(a2)
40006afc:	8082                	ret
40006afe:	87aa                	mv	a5,a0
40006b00:	0005c703          	lbu	a4,0(a1)
40006b04:	0785                	addi	a5,a5,1
40006b06:	0585                	addi	a1,a1,1
40006b08:	fee78fa3          	sb	a4,-1(a5)
40006b0c:	fb75                	bnez	a4,40006b00 <strcpy+0x64>
40006b0e:	8082                	ret
40006b10:	862a                	mv	a2,a0
40006b12:	b7d9                	j	40006ad8 <strcpy+0x3c>

40006b14 <strncpy>:
40006b14:	00b567b3          	or	a5,a0,a1
40006b18:	8b8d                	andi	a5,a5,3
40006b1a:	872a                	mv	a4,a0
40006b1c:	ebb9                	bnez	a5,40006b72 <strncpy+0x5e>
40006b1e:	478d                	li	a5,3
40006b20:	04c7f963          	bgeu	a5,a2,40006b72 <strncpy+0x5e>
40006b24:	feff0337          	lui	t1,0xfeff0
40006b28:	808088b7          	lui	a7,0x80808
40006b2c:	eff30313          	addi	t1,t1,-257 # fefefeff <_bss_lma+0x7efef45f>
40006b30:	08088893          	addi	a7,a7,128 # 80808080 <_bss_lma+0x8075e0>
40006b34:	4e0d                	li	t3,3
40006b36:	a039                	j	40006b44 <strncpy+0x30>
40006b38:	c314                	sw	a3,0(a4)
40006b3a:	1671                	addi	a2,a2,-4
40006b3c:	0711                	addi	a4,a4,4
40006b3e:	0591                	addi	a1,a1,4
40006b40:	02ce7963          	bgeu	t3,a2,40006b72 <strncpy+0x5e>
40006b44:	4194                	lw	a3,0(a1)
40006b46:	006687b3          	add	a5,a3,t1
40006b4a:	fff6c813          	not	a6,a3
40006b4e:	0107f7b3          	and	a5,a5,a6
40006b52:	0117f7b3          	and	a5,a5,a7
40006b56:	d3ed                	beqz	a5,40006b38 <strncpy+0x24>
40006b58:	0585                	addi	a1,a1,1
40006b5a:	00170793          	addi	a5,a4,1
40006b5e:	ce11                	beqz	a2,40006b7a <strncpy+0x66>
40006b60:	fff5c683          	lbu	a3,-1(a1)
40006b64:	fff60813          	addi	a6,a2,-1
40006b68:	fed78fa3          	sb	a3,-1(a5)
40006b6c:	ca81                	beqz	a3,40006b7c <strncpy+0x68>
40006b6e:	873e                	mv	a4,a5
40006b70:	8642                	mv	a2,a6
40006b72:	0585                	addi	a1,a1,1
40006b74:	00170793          	addi	a5,a4,1
40006b78:	f665                	bnez	a2,40006b60 <strncpy+0x4c>
40006b7a:	8082                	ret
40006b7c:	9732                	add	a4,a4,a2
40006b7e:	00080863          	beqz	a6,40006b8e <strncpy+0x7a>
40006b82:	0785                	addi	a5,a5,1
40006b84:	fe078fa3          	sb	zero,-1(a5)
40006b88:	fee79de3          	bne	a5,a4,40006b82 <strncpy+0x6e>
40006b8c:	8082                	ret
40006b8e:	8082                	ret

40006b90 <__ssprint_r>:
40006b90:	461c                	lw	a5,8(a2)
40006b92:	7179                	addi	sp,sp,-48
40006b94:	ce4e                	sw	s3,28(sp)
40006b96:	cc52                	sw	s4,24(sp)
40006b98:	d606                	sw	ra,44(sp)
40006b9a:	d422                	sw	s0,40(sp)
40006b9c:	d226                	sw	s1,36(sp)
40006b9e:	d04a                	sw	s2,32(sp)
40006ba0:	ca56                	sw	s5,20(sp)
40006ba2:	c85a                	sw	s6,16(sp)
40006ba4:	c65e                	sw	s7,12(sp)
40006ba6:	c462                	sw	s8,8(sp)
40006ba8:	00062983          	lw	s3,0(a2)
40006bac:	8a32                	mv	s4,a2
40006bae:	0e078863          	beqz	a5,40006c9e <__ssprint_r+0x10e>
40006bb2:	4598                	lw	a4,8(a1)
40006bb4:	419c                	lw	a5,0(a1)
40006bb6:	8aaa                	mv	s5,a0
40006bb8:	84ae                	mv	s1,a1
40006bba:	4b81                	li	s7,0
40006bbc:	4901                	li	s2,0
40006bbe:	a04d                	j	40006c60 <__ssprint_r+0xd0>
40006bc0:	00c49703          	lh	a4,12(s1) # 8000000c <_bss_lma+0xfffff56c>
40006bc4:	48077693          	andi	a3,a4,1152
40006bc8:	c6b5                	beqz	a3,40006c34 <__ssprint_r+0xa4>
40006bca:	48d0                	lw	a2,20(s1)
40006bcc:	488c                	lw	a1,16(s1)
40006bce:	00161693          	slli	a3,a2,0x1
40006bd2:	96b2                	add	a3,a3,a2
40006bd4:	40b78433          	sub	s0,a5,a1
40006bd8:	01f6db13          	srli	s6,a3,0x1f
40006bdc:	9b36                	add	s6,s6,a3
40006bde:	00140793          	addi	a5,s0,1
40006be2:	401b5b13          	srai	s6,s6,0x1
40006be6:	97ca                	add	a5,a5,s2
40006be8:	865a                	mv	a2,s6
40006bea:	00fb7463          	bgeu	s6,a5,40006bf2 <__ssprint_r+0x62>
40006bee:	8b3e                	mv	s6,a5
40006bf0:	863e                	mv	a2,a5
40006bf2:	40077713          	andi	a4,a4,1024
40006bf6:	cf3d                	beqz	a4,40006c74 <__ssprint_r+0xe4>
40006bf8:	85b2                	mv	a1,a2
40006bfa:	8556                	mv	a0,s5
40006bfc:	f0cff0ef          	jal	ra,40006308 <_malloc_r>
40006c00:	8c2a                	mv	s8,a0
40006c02:	c149                	beqz	a0,40006c84 <__ssprint_r+0xf4>
40006c04:	488c                	lw	a1,16(s1)
40006c06:	8622                	mv	a2,s0
40006c08:	c1efb0ef          	jal	ra,40002026 <memcpy>
40006c0c:	00c4d783          	lhu	a5,12(s1)
40006c10:	b7f7f793          	andi	a5,a5,-1153
40006c14:	0807e793          	ori	a5,a5,128
40006c18:	00f49623          	sh	a5,12(s1)
40006c1c:	408b07b3          	sub	a5,s6,s0
40006c20:	008c0533          	add	a0,s8,s0
40006c24:	0164aa23          	sw	s6,20(s1)
40006c28:	0184a823          	sw	s8,16(s1)
40006c2c:	c088                	sw	a0,0(s1)
40006c2e:	8b4a                	mv	s6,s2
40006c30:	c49c                	sw	a5,8(s1)
40006c32:	844a                	mv	s0,s2
40006c34:	8622                	mv	a2,s0
40006c36:	85de                	mv	a1,s7
40006c38:	2a6d                	jal	40006df2 <memmove>
40006c3a:	4498                	lw	a4,8(s1)
40006c3c:	409c                	lw	a5,0(s1)
40006c3e:	008a2683          	lw	a3,8(s4)
40006c42:	41670733          	sub	a4,a4,s6
40006c46:	97a2                	add	a5,a5,s0
40006c48:	c498                	sw	a4,8(s1)
40006c4a:	c09c                	sw	a5,0(s1)
40006c4c:	412686b3          	sub	a3,a3,s2
40006c50:	00da2423          	sw	a3,8(s4)
40006c54:	c6a9                	beqz	a3,40006c9e <__ssprint_r+0x10e>
40006c56:	0009ab83          	lw	s7,0(s3)
40006c5a:	0049a903          	lw	s2,4(s3)
40006c5e:	09a1                	addi	s3,s3,8
40006c60:	8b3a                	mv	s6,a4
40006c62:	853e                	mv	a0,a5
40006c64:	fe0909e3          	beqz	s2,40006c56 <__ssprint_r+0xc6>
40006c68:	843a                	mv	s0,a4
40006c6a:	f4e97be3          	bgeu	s2,a4,40006bc0 <__ssprint_r+0x30>
40006c6e:	8b4a                	mv	s6,s2
40006c70:	844a                	mv	s0,s2
40006c72:	b7c9                	j	40006c34 <__ssprint_r+0xa4>
40006c74:	8556                	mv	a0,s5
40006c76:	24b9                	jal	40006ec4 <_realloc_r>
40006c78:	8c2a                	mv	s8,a0
40006c7a:	f14d                	bnez	a0,40006c1c <__ssprint_r+0x8c>
40006c7c:	488c                	lw	a1,16(s1)
40006c7e:	8556                	mv	a0,s5
40006c80:	b4cfd0ef          	jal	ra,40003fcc <_free_r>
40006c84:	00c4d783          	lhu	a5,12(s1)
40006c88:	4731                	li	a4,12
40006c8a:	00eaa023          	sw	a4,0(s5)
40006c8e:	0407e793          	ori	a5,a5,64
40006c92:	00f49623          	sh	a5,12(s1)
40006c96:	000a2423          	sw	zero,8(s4)
40006c9a:	557d                	li	a0,-1
40006c9c:	a011                	j	40006ca0 <__ssprint_r+0x110>
40006c9e:	4501                	li	a0,0
40006ca0:	50b2                	lw	ra,44(sp)
40006ca2:	5422                	lw	s0,40(sp)
40006ca4:	000a2223          	sw	zero,4(s4)
40006ca8:	5492                	lw	s1,36(sp)
40006caa:	5902                	lw	s2,32(sp)
40006cac:	49f2                	lw	s3,28(sp)
40006cae:	4a62                	lw	s4,24(sp)
40006cb0:	4ad2                	lw	s5,20(sp)
40006cb2:	4b42                	lw	s6,16(sp)
40006cb4:	4bb2                	lw	s7,12(sp)
40006cb6:	4c22                	lw	s8,8(sp)
40006cb8:	6145                	addi	sp,sp,48
40006cba:	8082                	ret

40006cbc <__ascii_wctomb>:
40006cbc:	cd91                	beqz	a1,40006cd8 <__ascii_wctomb+0x1c>
40006cbe:	0ff00793          	li	a5,255
40006cc2:	00c7e663          	bltu	a5,a2,40006cce <__ascii_wctomb+0x12>
40006cc6:	00c58023          	sb	a2,0(a1)
40006cca:	4505                	li	a0,1
40006ccc:	8082                	ret
40006cce:	08a00793          	li	a5,138
40006cd2:	c11c                	sw	a5,0(a0)
40006cd4:	557d                	li	a0,-1
40006cd6:	8082                	ret
40006cd8:	4501                	li	a0,0
40006cda:	8082                	ret

40006cdc <__assert_func>:
40006cdc:	80c1a703          	lw	a4,-2036(gp) # 4000c1b4 <_impure_ptr>
40006ce0:	1141                	addi	sp,sp,-16
40006ce2:	87b6                	mv	a5,a3
40006ce4:	8832                	mv	a6,a2
40006ce6:	c606                	sw	ra,12(sp)
40006ce8:	00c72883          	lw	a7,12(a4)
40006cec:	86aa                	mv	a3,a0
40006cee:	872e                	mv	a4,a1
40006cf0:	863e                	mv	a2,a5
40006cf2:	00080e63          	beqz	a6,40006d0e <__assert_func+0x32>
40006cf6:	800007b7          	lui	a5,0x80000
40006cfa:	7d078793          	addi	a5,a5,2000 # 800007d0 <_bss_lma+0xfffffd30>
40006cfe:	800005b7          	lui	a1,0x80000
40006d02:	7e058593          	addi	a1,a1,2016 # 800007e0 <_bss_lma+0xfffffd40>
40006d06:	8546                	mv	a0,a7
40006d08:	20c1                	jal	40006dc8 <fiprintf>
40006d0a:	56e010ef          	jal	ra,40008278 <abort>
40006d0e:	80000837          	lui	a6,0x80000
40006d12:	7dc80793          	addi	a5,a6,2012 # 800007dc <_bss_lma+0xfffffd3c>
40006d16:	7dc80813          	addi	a6,a6,2012
40006d1a:	b7d5                	j	40006cfe <__assert_func+0x22>

40006d1c <_calloc_r>:
40006d1c:	02c5b7b3          	mulhu	a5,a1,a2
40006d20:	1141                	addi	sp,sp,-16
40006d22:	c606                	sw	ra,12(sp)
40006d24:	c422                	sw	s0,8(sp)
40006d26:	02c585b3          	mul	a1,a1,a2
40006d2a:	efa5                	bnez	a5,40006da2 <_calloc_r+0x86>
40006d2c:	ddcff0ef          	jal	ra,40006308 <_malloc_r>
40006d30:	842a                	mv	s0,a0
40006d32:	c93d                	beqz	a0,40006da8 <_calloc_r+0x8c>
40006d34:	ffc52603          	lw	a2,-4(a0)
40006d38:	02400713          	li	a4,36
40006d3c:	9a71                	andi	a2,a2,-4
40006d3e:	1671                	addi	a2,a2,-4
40006d40:	04c76063          	bltu	a4,a2,40006d80 <_calloc_r+0x64>
40006d44:	46cd                	li	a3,19
40006d46:	87aa                	mv	a5,a0
40006d48:	02c6f163          	bgeu	a3,a2,40006d6a <_calloc_r+0x4e>
40006d4c:	00052023          	sw	zero,0(a0)
40006d50:	00052223          	sw	zero,4(a0)
40006d54:	47ed                	li	a5,27
40006d56:	02c7fd63          	bgeu	a5,a2,40006d90 <_calloc_r+0x74>
40006d5a:	00052423          	sw	zero,8(a0)
40006d5e:	00052623          	sw	zero,12(a0)
40006d62:	01050793          	addi	a5,a0,16
40006d66:	04e60763          	beq	a2,a4,40006db4 <_calloc_r+0x98>
40006d6a:	0007a023          	sw	zero,0(a5)
40006d6e:	0007a223          	sw	zero,4(a5)
40006d72:	0007a423          	sw	zero,8(a5)
40006d76:	40b2                	lw	ra,12(sp)
40006d78:	8522                	mv	a0,s0
40006d7a:	4422                	lw	s0,8(sp)
40006d7c:	0141                	addi	sp,sp,16
40006d7e:	8082                	ret
40006d80:	4581                	li	a1,0
40006d82:	beafb0ef          	jal	ra,4000216c <memset>
40006d86:	40b2                	lw	ra,12(sp)
40006d88:	8522                	mv	a0,s0
40006d8a:	4422                	lw	s0,8(sp)
40006d8c:	0141                	addi	sp,sp,16
40006d8e:	8082                	ret
40006d90:	00850793          	addi	a5,a0,8
40006d94:	0007a023          	sw	zero,0(a5)
40006d98:	0007a223          	sw	zero,4(a5)
40006d9c:	0007a423          	sw	zero,8(a5)
40006da0:	bfd9                	j	40006d76 <_calloc_r+0x5a>
40006da2:	2005                	jal	40006dc2 <__errno>
40006da4:	47b1                	li	a5,12
40006da6:	c11c                	sw	a5,0(a0)
40006da8:	4401                	li	s0,0
40006daa:	40b2                	lw	ra,12(sp)
40006dac:	8522                	mv	a0,s0
40006dae:	4422                	lw	s0,8(sp)
40006db0:	0141                	addi	sp,sp,16
40006db2:	8082                	ret
40006db4:	00052823          	sw	zero,16(a0)
40006db8:	01850793          	addi	a5,a0,24
40006dbc:	00052a23          	sw	zero,20(a0)
40006dc0:	b76d                	j	40006d6a <_calloc_r+0x4e>

40006dc2 <__errno>:
40006dc2:	80c1a503          	lw	a0,-2036(gp) # 4000c1b4 <_impure_ptr>
40006dc6:	8082                	ret

40006dc8 <fiprintf>:
40006dc8:	8e2a                	mv	t3,a0
40006dca:	7139                	addi	sp,sp,-64
40006dcc:	80c1a503          	lw	a0,-2036(gp) # 4000c1b4 <_impure_ptr>
40006dd0:	02810313          	addi	t1,sp,40
40006dd4:	d432                	sw	a2,40(sp)
40006dd6:	d636                	sw	a3,44(sp)
40006dd8:	862e                	mv	a2,a1
40006dda:	869a                	mv	a3,t1
40006ddc:	85f2                	mv	a1,t3
40006dde:	ce06                	sw	ra,28(sp)
40006de0:	d83a                	sw	a4,48(sp)
40006de2:	da3e                	sw	a5,52(sp)
40006de4:	dc42                	sw	a6,56(sp)
40006de6:	de46                	sw	a7,60(sp)
40006de8:	c61a                	sw	t1,12(sp)
40006dea:	2389                	jal	4000732c <_vfiprintf_r>
40006dec:	40f2                	lw	ra,28(sp)
40006dee:	6121                	addi	sp,sp,64
40006df0:	8082                	ret

40006df2 <memmove>:
40006df2:	02a5f263          	bgeu	a1,a0,40006e16 <memmove+0x24>
40006df6:	00c58733          	add	a4,a1,a2
40006dfa:	00e57e63          	bgeu	a0,a4,40006e16 <memmove+0x24>
40006dfe:	00c507b3          	add	a5,a0,a2
40006e02:	ca1d                	beqz	a2,40006e38 <memmove+0x46>
40006e04:	fff74683          	lbu	a3,-1(a4)
40006e08:	17fd                	addi	a5,a5,-1
40006e0a:	177d                	addi	a4,a4,-1
40006e0c:	00d78023          	sb	a3,0(a5)
40006e10:	fef51ae3          	bne	a0,a5,40006e04 <memmove+0x12>
40006e14:	8082                	ret
40006e16:	47bd                	li	a5,15
40006e18:	02c7e163          	bltu	a5,a2,40006e3a <memmove+0x48>
40006e1c:	87aa                	mv	a5,a0
40006e1e:	fff60693          	addi	a3,a2,-1
40006e22:	ce51                	beqz	a2,40006ebe <memmove+0xcc>
40006e24:	0685                	addi	a3,a3,1
40006e26:	96be                	add	a3,a3,a5
40006e28:	0005c703          	lbu	a4,0(a1)
40006e2c:	0785                	addi	a5,a5,1
40006e2e:	0585                	addi	a1,a1,1
40006e30:	fee78fa3          	sb	a4,-1(a5)
40006e34:	fed79ae3          	bne	a5,a3,40006e28 <memmove+0x36>
40006e38:	8082                	ret
40006e3a:	00b567b3          	or	a5,a0,a1
40006e3e:	8b8d                	andi	a5,a5,3
40006e40:	ebbd                	bnez	a5,40006eb6 <memmove+0xc4>
40006e42:	ff060893          	addi	a7,a2,-16
40006e46:	ff08f893          	andi	a7,a7,-16
40006e4a:	08c1                	addi	a7,a7,16
40006e4c:	011507b3          	add	a5,a0,a7
40006e50:	86ae                	mv	a3,a1
40006e52:	872a                	mv	a4,a0
40006e54:	0006a803          	lw	a6,0(a3)
40006e58:	06c1                	addi	a3,a3,16
40006e5a:	0741                	addi	a4,a4,16
40006e5c:	ff072823          	sw	a6,-16(a4)
40006e60:	ff46a803          	lw	a6,-12(a3)
40006e64:	ff072a23          	sw	a6,-12(a4)
40006e68:	ff86a803          	lw	a6,-8(a3)
40006e6c:	ff072c23          	sw	a6,-8(a4)
40006e70:	ffc6a803          	lw	a6,-4(a3)
40006e74:	ff072e23          	sw	a6,-4(a4)
40006e78:	fcf71ee3          	bne	a4,a5,40006e54 <memmove+0x62>
40006e7c:	00c67713          	andi	a4,a2,12
40006e80:	95c6                	add	a1,a1,a7
40006e82:	00f67813          	andi	a6,a2,15
40006e86:	cf0d                	beqz	a4,40006ec0 <memmove+0xce>
40006e88:	86ae                	mv	a3,a1
40006e8a:	873e                	mv	a4,a5
40006e8c:	01078eb3          	add	t4,a5,a6
40006e90:	4e0d                	li	t3,3
40006e92:	0006a303          	lw	t1,0(a3)
40006e96:	0711                	addi	a4,a4,4
40006e98:	40ee88b3          	sub	a7,t4,a4
40006e9c:	fe672e23          	sw	t1,-4(a4)
40006ea0:	0691                	addi	a3,a3,4
40006ea2:	ff1e68e3          	bltu	t3,a7,40006e92 <memmove+0xa0>
40006ea6:	ffc80713          	addi	a4,a6,-4
40006eaa:	9b71                	andi	a4,a4,-4
40006eac:	0711                	addi	a4,a4,4
40006eae:	8a0d                	andi	a2,a2,3
40006eb0:	97ba                	add	a5,a5,a4
40006eb2:	95ba                	add	a1,a1,a4
40006eb4:	b7ad                	j	40006e1e <memmove+0x2c>
40006eb6:	fff60693          	addi	a3,a2,-1
40006eba:	87aa                	mv	a5,a0
40006ebc:	b7a5                	j	40006e24 <memmove+0x32>
40006ebe:	8082                	ret
40006ec0:	8642                	mv	a2,a6
40006ec2:	bfb1                	j	40006e1e <memmove+0x2c>

40006ec4 <_realloc_r>:
40006ec4:	7179                	addi	sp,sp,-48
40006ec6:	d226                	sw	s1,36(sp)
40006ec8:	d606                	sw	ra,44(sp)
40006eca:	d422                	sw	s0,40(sp)
40006ecc:	d04a                	sw	s2,32(sp)
40006ece:	ce4e                	sw	s3,28(sp)
40006ed0:	cc52                	sw	s4,24(sp)
40006ed2:	ca56                	sw	s5,20(sp)
40006ed4:	c85a                	sw	s6,16(sp)
40006ed6:	c65e                	sw	s7,12(sp)
40006ed8:	c462                	sw	s8,8(sp)
40006eda:	84b2                	mv	s1,a2
40006edc:	14058363          	beqz	a1,40007022 <_realloc_r+0x15e>
40006ee0:	842e                	mv	s0,a1
40006ee2:	892a                	mv	s2,a0
40006ee4:	a8fff0ef          	jal	ra,40006972 <__malloc_lock>
40006ee8:	ffc42703          	lw	a4,-4(s0)
40006eec:	00b48793          	addi	a5,s1,11
40006ef0:	46d9                	li	a3,22
40006ef2:	ff840a93          	addi	s5,s0,-8
40006ef6:	ffc77993          	andi	s3,a4,-4
40006efa:	0af6fa63          	bgeu	a3,a5,40006fae <_realloc_r+0xea>
40006efe:	ff87fa13          	andi	s4,a5,-8
40006f02:	0a07c963          	bltz	a5,40006fb4 <_realloc_r+0xf0>
40006f06:	0a9a6763          	bltu	s4,s1,40006fb4 <_realloc_r+0xf0>
40006f0a:	0b49df63          	bge	s3,s4,40006fc8 <_realloc_r+0x104>
40006f0e:	4000c7b7          	lui	a5,0x4000c
40006f12:	d9c78c13          	addi	s8,a5,-612 # 4000bd9c <__malloc_av_>
40006f16:	008c2603          	lw	a2,8(s8)
40006f1a:	013a86b3          	add	a3,s5,s3
40006f1e:	42dc                	lw	a5,4(a3)
40006f20:	14d60163          	beq	a2,a3,40007062 <_realloc_r+0x19e>
40006f24:	ffe7f613          	andi	a2,a5,-2
40006f28:	9636                	add	a2,a2,a3
40006f2a:	4250                	lw	a2,4(a2)
40006f2c:	8a05                	andi	a2,a2,1
40006f2e:	e265                	bnez	a2,4000700e <_realloc_r+0x14a>
40006f30:	9bf1                	andi	a5,a5,-4
40006f32:	00f98633          	add	a2,s3,a5
40006f36:	09465463          	bge	a2,s4,40006fbe <_realloc_r+0xfa>
40006f3a:	8b05                	andi	a4,a4,1
40006f3c:	e30d                	bnez	a4,40006f5e <_realloc_r+0x9a>
40006f3e:	ff842b83          	lw	s7,-8(s0)
40006f42:	417a8bb3          	sub	s7,s5,s7
40006f46:	004ba703          	lw	a4,4(s7)
40006f4a:	9b71                	andi	a4,a4,-4
40006f4c:	97ba                	add	a5,a5,a4
40006f4e:	01378b33          	add	s6,a5,s3
40006f52:	234b5b63          	bge	s6,s4,40007188 <_realloc_r+0x2c4>
40006f56:	00e98b33          	add	s6,s3,a4
40006f5a:	1d4b5363          	bge	s6,s4,40007120 <_realloc_r+0x25c>
40006f5e:	85a6                	mv	a1,s1
40006f60:	854a                	mv	a0,s2
40006f62:	ba6ff0ef          	jal	ra,40006308 <_malloc_r>
40006f66:	84aa                	mv	s1,a0
40006f68:	2c050d63          	beqz	a0,40007242 <_realloc_r+0x37e>
40006f6c:	ffc42783          	lw	a5,-4(s0)
40006f70:	ff850713          	addi	a4,a0,-8
40006f74:	9bf9                	andi	a5,a5,-2
40006f76:	97d6                	add	a5,a5,s5
40006f78:	18e78f63          	beq	a5,a4,40007116 <_realloc_r+0x252>
40006f7c:	ffc98613          	addi	a2,s3,-4
40006f80:	02400793          	li	a5,36
40006f84:	1ec7ee63          	bltu	a5,a2,40007180 <_realloc_r+0x2bc>
40006f88:	474d                	li	a4,19
40006f8a:	16c76a63          	bltu	a4,a2,400070fe <_realloc_r+0x23a>
40006f8e:	87aa                	mv	a5,a0
40006f90:	8722                	mv	a4,s0
40006f92:	4314                	lw	a3,0(a4)
40006f94:	c394                	sw	a3,0(a5)
40006f96:	4354                	lw	a3,4(a4)
40006f98:	c3d4                	sw	a3,4(a5)
40006f9a:	4718                	lw	a4,8(a4)
40006f9c:	c798                	sw	a4,8(a5)
40006f9e:	854a                	mv	a0,s2
40006fa0:	85a2                	mv	a1,s0
40006fa2:	82afd0ef          	jal	ra,40003fcc <_free_r>
40006fa6:	854a                	mv	a0,s2
40006fa8:	9cdff0ef          	jal	ra,40006974 <__malloc_unlock>
40006fac:	a0a1                	j	40006ff4 <_realloc_r+0x130>
40006fae:	4a41                	li	s4,16
40006fb0:	f49a7de3          	bgeu	s4,s1,40006f0a <_realloc_r+0x46>
40006fb4:	47b1                	li	a5,12
40006fb6:	00f92023          	sw	a5,0(s2)
40006fba:	4481                	li	s1,0
40006fbc:	a825                	j	40006ff4 <_realloc_r+0x130>
40006fbe:	46dc                	lw	a5,12(a3)
40006fc0:	4698                	lw	a4,8(a3)
40006fc2:	89b2                	mv	s3,a2
40006fc4:	c75c                	sw	a5,12(a4)
40006fc6:	c798                	sw	a4,8(a5)
40006fc8:	004aa783          	lw	a5,4(s5)
40006fcc:	414986b3          	sub	a3,s3,s4
40006fd0:	463d                	li	a2,15
40006fd2:	8b85                	andi	a5,a5,1
40006fd4:	013a8733          	add	a4,s5,s3
40006fd8:	06d66363          	bltu	a2,a3,4000703e <_realloc_r+0x17a>
40006fdc:	0137e7b3          	or	a5,a5,s3
40006fe0:	00faa223          	sw	a5,4(s5)
40006fe4:	435c                	lw	a5,4(a4)
40006fe6:	0017e793          	ori	a5,a5,1
40006fea:	c35c                	sw	a5,4(a4)
40006fec:	854a                	mv	a0,s2
40006fee:	987ff0ef          	jal	ra,40006974 <__malloc_unlock>
40006ff2:	84a2                	mv	s1,s0
40006ff4:	50b2                	lw	ra,44(sp)
40006ff6:	5422                	lw	s0,40(sp)
40006ff8:	5902                	lw	s2,32(sp)
40006ffa:	49f2                	lw	s3,28(sp)
40006ffc:	4a62                	lw	s4,24(sp)
40006ffe:	4ad2                	lw	s5,20(sp)
40007000:	4b42                	lw	s6,16(sp)
40007002:	4bb2                	lw	s7,12(sp)
40007004:	4c22                	lw	s8,8(sp)
40007006:	8526                	mv	a0,s1
40007008:	5492                	lw	s1,36(sp)
4000700a:	6145                	addi	sp,sp,48
4000700c:	8082                	ret
4000700e:	8b05                	andi	a4,a4,1
40007010:	f739                	bnez	a4,40006f5e <_realloc_r+0x9a>
40007012:	ff842b83          	lw	s7,-8(s0)
40007016:	417a8bb3          	sub	s7,s5,s7
4000701a:	004ba703          	lw	a4,4(s7)
4000701e:	9b71                	andi	a4,a4,-4
40007020:	bf1d                	j	40006f56 <_realloc_r+0x92>
40007022:	5422                	lw	s0,40(sp)
40007024:	50b2                	lw	ra,44(sp)
40007026:	5492                	lw	s1,36(sp)
40007028:	5902                	lw	s2,32(sp)
4000702a:	49f2                	lw	s3,28(sp)
4000702c:	4a62                	lw	s4,24(sp)
4000702e:	4ad2                	lw	s5,20(sp)
40007030:	4b42                	lw	s6,16(sp)
40007032:	4bb2                	lw	s7,12(sp)
40007034:	4c22                	lw	s8,8(sp)
40007036:	85b2                	mv	a1,a2
40007038:	6145                	addi	sp,sp,48
4000703a:	aceff06f          	j	40006308 <_malloc_r>
4000703e:	0147e7b3          	or	a5,a5,s4
40007042:	00faa223          	sw	a5,4(s5)
40007046:	014a85b3          	add	a1,s5,s4
4000704a:	0016e693          	ori	a3,a3,1
4000704e:	c1d4                	sw	a3,4(a1)
40007050:	435c                	lw	a5,4(a4)
40007052:	05a1                	addi	a1,a1,8
40007054:	854a                	mv	a0,s2
40007056:	0017e793          	ori	a5,a5,1
4000705a:	c35c                	sw	a5,4(a4)
4000705c:	f71fc0ef          	jal	ra,40003fcc <_free_r>
40007060:	b771                	j	40006fec <_realloc_r+0x128>
40007062:	9bf1                	andi	a5,a5,-4
40007064:	013786b3          	add	a3,a5,s3
40007068:	010a0613          	addi	a2,s4,16
4000706c:	1ac6d263          	bge	a3,a2,40007210 <_realloc_r+0x34c>
40007070:	8b05                	andi	a4,a4,1
40007072:	ee0716e3          	bnez	a4,40006f5e <_realloc_r+0x9a>
40007076:	ff842b83          	lw	s7,-8(s0)
4000707a:	417a8bb3          	sub	s7,s5,s7
4000707e:	004ba703          	lw	a4,4(s7)
40007082:	9b71                	andi	a4,a4,-4
40007084:	97ba                	add	a5,a5,a4
40007086:	01378b33          	add	s6,a5,s3
4000708a:	eccb46e3          	blt	s6,a2,40006f56 <_realloc_r+0x92>
4000708e:	00cba783          	lw	a5,12(s7)
40007092:	008ba703          	lw	a4,8(s7)
40007096:	ffc98613          	addi	a2,s3,-4
4000709a:	02400693          	li	a3,36
4000709e:	c75c                	sw	a5,12(a4)
400070a0:	c798                	sw	a4,8(a5)
400070a2:	008b8493          	addi	s1,s7,8
400070a6:	1ac6ec63          	bltu	a3,a2,4000725e <_realloc_r+0x39a>
400070aa:	474d                	li	a4,19
400070ac:	87a6                	mv	a5,s1
400070ae:	00c77e63          	bgeu	a4,a2,400070ca <_realloc_r+0x206>
400070b2:	4018                	lw	a4,0(s0)
400070b4:	47ed                	li	a5,27
400070b6:	00eba423          	sw	a4,8(s7)
400070ba:	4058                	lw	a4,4(s0)
400070bc:	00eba623          	sw	a4,12(s7)
400070c0:	1ac7e463          	bltu	a5,a2,40007268 <_realloc_r+0x3a4>
400070c4:	0421                	addi	s0,s0,8
400070c6:	010b8793          	addi	a5,s7,16
400070ca:	4018                	lw	a4,0(s0)
400070cc:	c398                	sw	a4,0(a5)
400070ce:	4058                	lw	a4,4(s0)
400070d0:	c3d8                	sw	a4,4(a5)
400070d2:	4418                	lw	a4,8(s0)
400070d4:	c798                	sw	a4,8(a5)
400070d6:	014b8733          	add	a4,s7,s4
400070da:	414b0b33          	sub	s6,s6,s4
400070de:	00ec2423          	sw	a4,8(s8)
400070e2:	001b6793          	ori	a5,s6,1
400070e6:	c35c                	sw	a5,4(a4)
400070e8:	004ba783          	lw	a5,4(s7)
400070ec:	854a                	mv	a0,s2
400070ee:	8b85                	andi	a5,a5,1
400070f0:	0147e7b3          	or	a5,a5,s4
400070f4:	00fba223          	sw	a5,4(s7)
400070f8:	87dff0ef          	jal	ra,40006974 <__malloc_unlock>
400070fc:	bde5                	j	40006ff4 <_realloc_r+0x130>
400070fe:	4014                	lw	a3,0(s0)
40007100:	476d                	li	a4,27
40007102:	c114                	sw	a3,0(a0)
40007104:	4054                	lw	a3,4(s0)
40007106:	c154                	sw	a3,4(a0)
40007108:	0ec76963          	bltu	a4,a2,400071fa <_realloc_r+0x336>
4000710c:	00840713          	addi	a4,s0,8
40007110:	00850793          	addi	a5,a0,8
40007114:	bdbd                	j	40006f92 <_realloc_r+0xce>
40007116:	ffc52783          	lw	a5,-4(a0)
4000711a:	9bf1                	andi	a5,a5,-4
4000711c:	99be                	add	s3,s3,a5
4000711e:	b56d                	j	40006fc8 <_realloc_r+0x104>
40007120:	00cba783          	lw	a5,12(s7)
40007124:	008ba703          	lw	a4,8(s7)
40007128:	ffc98613          	addi	a2,s3,-4
4000712c:	02400693          	li	a3,36
40007130:	c75c                	sw	a5,12(a4)
40007132:	c798                	sw	a4,8(a5)
40007134:	008b8493          	addi	s1,s7,8
40007138:	0ac6ec63          	bltu	a3,a2,400071f0 <_realloc_r+0x32c>
4000713c:	474d                	li	a4,19
4000713e:	87a6                	mv	a5,s1
40007140:	02c77663          	bgeu	a4,a2,4000716c <_realloc_r+0x2a8>
40007144:	4018                	lw	a4,0(s0)
40007146:	47ed                	li	a5,27
40007148:	00eba423          	sw	a4,8(s7)
4000714c:	4058                	lw	a4,4(s0)
4000714e:	00eba623          	sw	a4,12(s7)
40007152:	0ec7f463          	bgeu	a5,a2,4000723a <_realloc_r+0x376>
40007156:	441c                	lw	a5,8(s0)
40007158:	00fba823          	sw	a5,16(s7)
4000715c:	445c                	lw	a5,12(s0)
4000715e:	00fbaa23          	sw	a5,20(s7)
40007162:	06d60c63          	beq	a2,a3,400071da <_realloc_r+0x316>
40007166:	0441                	addi	s0,s0,16
40007168:	018b8793          	addi	a5,s7,24
4000716c:	4018                	lw	a4,0(s0)
4000716e:	c398                	sw	a4,0(a5)
40007170:	4058                	lw	a4,4(s0)
40007172:	c3d8                	sw	a4,4(a5)
40007174:	4418                	lw	a4,8(s0)
40007176:	c798                	sw	a4,8(a5)
40007178:	8426                	mv	s0,s1
4000717a:	89da                	mv	s3,s6
4000717c:	8ade                	mv	s5,s7
4000717e:	b5a9                	j	40006fc8 <_realloc_r+0x104>
40007180:	85a2                	mv	a1,s0
40007182:	c71ff0ef          	jal	ra,40006df2 <memmove>
40007186:	bd21                	j	40006f9e <_realloc_r+0xda>
40007188:	46dc                	lw	a5,12(a3)
4000718a:	4698                	lw	a4,8(a3)
4000718c:	ffc98613          	addi	a2,s3,-4
40007190:	02400693          	li	a3,36
40007194:	c75c                	sw	a5,12(a4)
40007196:	c798                	sw	a4,8(a5)
40007198:	008ba703          	lw	a4,8(s7)
4000719c:	00cba783          	lw	a5,12(s7)
400071a0:	008b8493          	addi	s1,s7,8
400071a4:	c75c                	sw	a5,12(a4)
400071a6:	c798                	sw	a4,8(a5)
400071a8:	04c6e463          	bltu	a3,a2,400071f0 <_realloc_r+0x32c>
400071ac:	474d                	li	a4,19
400071ae:	87a6                	mv	a5,s1
400071b0:	fac77ee3          	bgeu	a4,a2,4000716c <_realloc_r+0x2a8>
400071b4:	4018                	lw	a4,0(s0)
400071b6:	47ed                	li	a5,27
400071b8:	00eba423          	sw	a4,8(s7)
400071bc:	4058                	lw	a4,4(s0)
400071be:	00eba623          	sw	a4,12(s7)
400071c2:	06c7fc63          	bgeu	a5,a2,4000723a <_realloc_r+0x376>
400071c6:	4418                	lw	a4,8(s0)
400071c8:	02400793          	li	a5,36
400071cc:	00eba823          	sw	a4,16(s7)
400071d0:	4458                	lw	a4,12(s0)
400071d2:	00ebaa23          	sw	a4,20(s7)
400071d6:	f8f618e3          	bne	a2,a5,40007166 <_realloc_r+0x2a2>
400071da:	4818                	lw	a4,16(s0)
400071dc:	020b8793          	addi	a5,s7,32
400071e0:	0461                	addi	s0,s0,24
400071e2:	00ebac23          	sw	a4,24(s7)
400071e6:	ffc42703          	lw	a4,-4(s0)
400071ea:	00ebae23          	sw	a4,28(s7)
400071ee:	bfbd                	j	4000716c <_realloc_r+0x2a8>
400071f0:	85a2                	mv	a1,s0
400071f2:	8526                	mv	a0,s1
400071f4:	bffff0ef          	jal	ra,40006df2 <memmove>
400071f8:	b741                	j	40007178 <_realloc_r+0x2b4>
400071fa:	4418                	lw	a4,8(s0)
400071fc:	c518                	sw	a4,8(a0)
400071fe:	4458                	lw	a4,12(s0)
40007200:	c558                	sw	a4,12(a0)
40007202:	04f60563          	beq	a2,a5,4000724c <_realloc_r+0x388>
40007206:	01040713          	addi	a4,s0,16
4000720a:	01050793          	addi	a5,a0,16
4000720e:	b351                	j	40006f92 <_realloc_r+0xce>
40007210:	9ad2                	add	s5,s5,s4
40007212:	414686b3          	sub	a3,a3,s4
40007216:	015c2423          	sw	s5,8(s8)
4000721a:	0016e793          	ori	a5,a3,1
4000721e:	00faa223          	sw	a5,4(s5)
40007222:	ffc42783          	lw	a5,-4(s0)
40007226:	854a                	mv	a0,s2
40007228:	84a2                	mv	s1,s0
4000722a:	8b85                	andi	a5,a5,1
4000722c:	0147e7b3          	or	a5,a5,s4
40007230:	fef42e23          	sw	a5,-4(s0)
40007234:	f40ff0ef          	jal	ra,40006974 <__malloc_unlock>
40007238:	bb75                	j	40006ff4 <_realloc_r+0x130>
4000723a:	0421                	addi	s0,s0,8
4000723c:	010b8793          	addi	a5,s7,16
40007240:	b735                	j	4000716c <_realloc_r+0x2a8>
40007242:	854a                	mv	a0,s2
40007244:	f30ff0ef          	jal	ra,40006974 <__malloc_unlock>
40007248:	4481                	li	s1,0
4000724a:	b36d                	j	40006ff4 <_realloc_r+0x130>
4000724c:	4814                	lw	a3,16(s0)
4000724e:	01840713          	addi	a4,s0,24
40007252:	01850793          	addi	a5,a0,24
40007256:	c914                	sw	a3,16(a0)
40007258:	4854                	lw	a3,20(s0)
4000725a:	c954                	sw	a3,20(a0)
4000725c:	bb1d                	j	40006f92 <_realloc_r+0xce>
4000725e:	85a2                	mv	a1,s0
40007260:	8526                	mv	a0,s1
40007262:	b91ff0ef          	jal	ra,40006df2 <memmove>
40007266:	bd85                	j	400070d6 <_realloc_r+0x212>
40007268:	441c                	lw	a5,8(s0)
4000726a:	00fba823          	sw	a5,16(s7)
4000726e:	445c                	lw	a5,12(s0)
40007270:	00fbaa23          	sw	a5,20(s7)
40007274:	00d60663          	beq	a2,a3,40007280 <_realloc_r+0x3bc>
40007278:	0441                	addi	s0,s0,16
4000727a:	018b8793          	addi	a5,s7,24
4000727e:	b5b1                	j	400070ca <_realloc_r+0x206>
40007280:	4818                	lw	a4,16(s0)
40007282:	020b8793          	addi	a5,s7,32
40007286:	00ebac23          	sw	a4,24(s7)
4000728a:	4858                	lw	a4,20(s0)
4000728c:	0461                	addi	s0,s0,24
4000728e:	00ebae23          	sw	a4,28(s7)
40007292:	bd25                	j	400070ca <_realloc_r+0x206>

40007294 <__sprint_r.part.0>:
40007294:	51f8                	lw	a4,100(a1)
40007296:	7179                	addi	sp,sp,-48
40007298:	6789                	lui	a5,0x2
4000729a:	c85a                	sw	s6,16(sp)
4000729c:	d606                	sw	ra,44(sp)
4000729e:	d422                	sw	s0,40(sp)
400072a0:	d226                	sw	s1,36(sp)
400072a2:	d04a                	sw	s2,32(sp)
400072a4:	ce4e                	sw	s3,28(sp)
400072a6:	cc52                	sw	s4,24(sp)
400072a8:	ca56                	sw	s5,20(sp)
400072aa:	c65e                	sw	s7,12(sp)
400072ac:	c462                	sw	s8,8(sp)
400072ae:	8ff9                	and	a5,a5,a4
400072b0:	8b32                	mv	s6,a2
400072b2:	cbb5                	beqz	a5,40007326 <__sprint_r.part.0+0x92>
400072b4:	461c                	lw	a5,8(a2)
400072b6:	00062b83          	lw	s7,0(a2)
400072ba:	892e                	mv	s2,a1
400072bc:	89aa                	mv	s3,a0
400072be:	5afd                	li	s5,-1
400072c0:	c3ad                	beqz	a5,40007322 <__sprint_r.part.0+0x8e>
400072c2:	004bac03          	lw	s8,4(s7)
400072c6:	000ba403          	lw	s0,0(s7)
400072ca:	002c5a13          	srli	s4,s8,0x2
400072ce:	040a0263          	beqz	s4,40007312 <__sprint_r.part.0+0x7e>
400072d2:	4481                	li	s1,0
400072d4:	a021                	j	400072dc <__sprint_r.part.0+0x48>
400072d6:	0411                	addi	s0,s0,4
400072d8:	029a0b63          	beq	s4,s1,4000730e <__sprint_r.part.0+0x7a>
400072dc:	400c                	lw	a1,0(s0)
400072de:	864a                	mv	a2,s2
400072e0:	854e                	mv	a0,s3
400072e2:	34a010ef          	jal	ra,4000862c <_fputwc_r>
400072e6:	0485                	addi	s1,s1,1
400072e8:	ff5517e3          	bne	a0,s5,400072d6 <__sprint_r.part.0+0x42>
400072ec:	557d                	li	a0,-1
400072ee:	50b2                	lw	ra,44(sp)
400072f0:	5422                	lw	s0,40(sp)
400072f2:	000b2423          	sw	zero,8(s6)
400072f6:	000b2223          	sw	zero,4(s6)
400072fa:	5492                	lw	s1,36(sp)
400072fc:	5902                	lw	s2,32(sp)
400072fe:	49f2                	lw	s3,28(sp)
40007300:	4a62                	lw	s4,24(sp)
40007302:	4ad2                	lw	s5,20(sp)
40007304:	4b42                	lw	s6,16(sp)
40007306:	4bb2                	lw	s7,12(sp)
40007308:	4c22                	lw	s8,8(sp)
4000730a:	6145                	addi	sp,sp,48
4000730c:	8082                	ret
4000730e:	008b2783          	lw	a5,8(s6)
40007312:	ffcc7c13          	andi	s8,s8,-4
40007316:	418787b3          	sub	a5,a5,s8
4000731a:	00fb2423          	sw	a5,8(s6)
4000731e:	0ba1                	addi	s7,s7,8
40007320:	f3cd                	bnez	a5,400072c2 <__sprint_r.part.0+0x2e>
40007322:	4501                	li	a0,0
40007324:	b7e9                	j	400072ee <__sprint_r.part.0+0x5a>
40007326:	326010ef          	jal	ra,4000864c <__sfvwrite_r>
4000732a:	b7d1                	j	400072ee <__sprint_r.part.0+0x5a>

4000732c <_vfiprintf_r>:
4000732c:	7169                	addi	sp,sp,-304
4000732e:	13212023          	sw	s2,288(sp)
40007332:	11612823          	sw	s6,272(sp)
40007336:	11712623          	sw	s7,268(sp)
4000733a:	11812423          	sw	s8,264(sp)
4000733e:	12112623          	sw	ra,300(sp)
40007342:	12812423          	sw	s0,296(sp)
40007346:	12912223          	sw	s1,292(sp)
4000734a:	11312e23          	sw	s3,284(sp)
4000734e:	11412c23          	sw	s4,280(sp)
40007352:	11512a23          	sw	s5,276(sp)
40007356:	11912223          	sw	s9,260(sp)
4000735a:	11a12023          	sw	s10,256(sp)
4000735e:	dfee                	sw	s11,252(sp)
40007360:	8c2a                	mv	s8,a0
40007362:	8b2e                	mv	s6,a1
40007364:	8932                	mv	s2,a2
40007366:	8bb6                	mv	s7,a3
40007368:	c501                	beqz	a0,40007370 <_vfiprintf_r+0x44>
4000736a:	5d1c                	lw	a5,56(a0)
4000736c:	46078263          	beqz	a5,400077d0 <_vfiprintf_r+0x4a4>
40007370:	00cb1783          	lh	a5,12(s6)
40007374:	01279713          	slli	a4,a5,0x12
40007378:	00074f63          	bltz	a4,40007396 <_vfiprintf_r+0x6a>
4000737c:	064b2703          	lw	a4,100(s6)
40007380:	6689                	lui	a3,0x2
40007382:	8fd5                	or	a5,a5,a3
40007384:	76f9                	lui	a3,0xffffe
40007386:	07c2                	slli	a5,a5,0x10
40007388:	16fd                	addi	a3,a3,-1 # ffffdfff <_bss_lma+0x7fffd55f>
4000738a:	87c1                	srai	a5,a5,0x10
4000738c:	8f75                	and	a4,a4,a3
4000738e:	00fb1623          	sh	a5,12(s6)
40007392:	06eb2223          	sw	a4,100(s6)
40007396:	0087f713          	andi	a4,a5,8
4000739a:	c371                	beqz	a4,4000745e <_vfiprintf_r+0x132>
4000739c:	010b2703          	lw	a4,16(s6)
400073a0:	cf5d                	beqz	a4,4000745e <_vfiprintf_r+0x132>
400073a2:	8be9                	andi	a5,a5,26
400073a4:	4729                	li	a4,10
400073a6:	0ce78863          	beq	a5,a4,40007476 <_vfiprintf_r+0x14a>
400073aa:	800017b7          	lui	a5,0x80001
400073ae:	04c10a93          	addi	s5,sp,76
400073b2:	4d01                	li	s10,0
400073b4:	91478793          	addi	a5,a5,-1772 # 80000914 <_bss_lma+0xfffffe74>
400073b8:	80001cb7          	lui	s9,0x80001
400073bc:	89ea                	mv	s3,s10
400073be:	c0d6                	sw	s5,64(sp)
400073c0:	c482                	sw	zero,72(sp)
400073c2:	c282                	sw	zero,68(sp)
400073c4:	8456                	mv	s0,s5
400073c6:	c402                	sw	zero,8(sp)
400073c8:	cc02                	sw	zero,24(sp)
400073ca:	ce02                	sw	zero,28(sp)
400073cc:	d002                	sw	zero,32(sp)
400073ce:	c23e                	sw	a5,4(sp)
400073d0:	4a41                	li	s4,16
400073d2:	a80c8c93          	addi	s9,s9,-1408 # 80000a80 <_bss_lma+0xffffffe0>
400073d6:	8d5e                	mv	s10,s7
400073d8:	00094783          	lbu	a5,0(s2)
400073dc:	26078063          	beqz	a5,4000763c <_vfiprintf_r+0x310>
400073e0:	84ca                	mv	s1,s2
400073e2:	02500713          	li	a4,37
400073e6:	2ce78163          	beq	a5,a4,400076a8 <_vfiprintf_r+0x37c>
400073ea:	0014c783          	lbu	a5,1(s1)
400073ee:	0485                	addi	s1,s1,1
400073f0:	fbfd                	bnez	a5,400073e6 <_vfiprintf_r+0xba>
400073f2:	41248bb3          	sub	s7,s1,s2
400073f6:	25248363          	beq	s1,s2,4000763c <_vfiprintf_r+0x310>
400073fa:	4726                	lw	a4,72(sp)
400073fc:	4796                	lw	a5,68(sp)
400073fe:	01242023          	sw	s2,0(s0)
40007402:	975e                	add	a4,a4,s7
40007404:	0785                	addi	a5,a5,1
40007406:	01742223          	sw	s7,4(s0)
4000740a:	c4ba                	sw	a4,72(sp)
4000740c:	c2be                	sw	a5,68(sp)
4000740e:	469d                	li	a3,7
40007410:	0421                	addi	s0,s0,8
40007412:	00f6db63          	bge	a3,a5,40007428 <_vfiprintf_r+0xfc>
40007416:	120705e3          	beqz	a4,40007d40 <_vfiprintf_r+0xa14>
4000741a:	0090                	addi	a2,sp,64
4000741c:	85da                	mv	a1,s6
4000741e:	8562                	mv	a0,s8
40007420:	e75ff0ef          	jal	ra,40007294 <__sprint_r.part.0>
40007424:	e545                	bnez	a0,400074cc <_vfiprintf_r+0x1a0>
40007426:	8456                	mv	s0,s5
40007428:	0004c783          	lbu	a5,0(s1)
4000742c:	99de                	add	s3,s3,s7
4000742e:	20078763          	beqz	a5,4000763c <_vfiprintf_r+0x310>
40007432:	0014c783          	lbu	a5,1(s1)
40007436:	00148913          	addi	s2,s1,1
4000743a:	02010da3          	sb	zero,59(sp)
4000743e:	5dfd                	li	s11,-1
40007440:	4b81                	li	s7,0
40007442:	4881                	li	a7,0
40007444:	05a00493          	li	s1,90
40007448:	0905                	addi	s2,s2,1
4000744a:	86be                	mv	a3,a5
4000744c:	fe068713          	addi	a4,a3,-32
40007450:	0ee4e563          	bltu	s1,a4,4000753a <_vfiprintf_r+0x20e>
40007454:	4792                	lw	a5,4(sp)
40007456:	070a                	slli	a4,a4,0x2
40007458:	973e                	add	a4,a4,a5
4000745a:	431c                	lw	a5,0(a4)
4000745c:	8782                	jr	a5
4000745e:	85da                	mv	a1,s6
40007460:	8562                	mv	a0,s8
40007462:	53d000ef          	jal	ra,4000819e <__swsetup_r>
40007466:	46051ee3          	bnez	a0,400080e2 <_vfiprintf_r+0xdb6>
4000746a:	00cb1783          	lh	a5,12(s6)
4000746e:	4729                	li	a4,10
40007470:	8be9                	andi	a5,a5,26
40007472:	f2e79ce3          	bne	a5,a4,400073aa <_vfiprintf_r+0x7e>
40007476:	00eb1783          	lh	a5,14(s6)
4000747a:	f207c8e3          	bltz	a5,400073aa <_vfiprintf_r+0x7e>
4000747e:	12812403          	lw	s0,296(sp)
40007482:	12c12083          	lw	ra,300(sp)
40007486:	12412483          	lw	s1,292(sp)
4000748a:	11c12983          	lw	s3,284(sp)
4000748e:	11812a03          	lw	s4,280(sp)
40007492:	11412a83          	lw	s5,276(sp)
40007496:	10412c83          	lw	s9,260(sp)
4000749a:	10012d03          	lw	s10,256(sp)
4000749e:	5dfe                	lw	s11,252(sp)
400074a0:	86de                	mv	a3,s7
400074a2:	864a                	mv	a2,s2
400074a4:	10c12b83          	lw	s7,268(sp)
400074a8:	12012903          	lw	s2,288(sp)
400074ac:	85da                	mv	a1,s6
400074ae:	8562                	mv	a0,s8
400074b0:	11012b03          	lw	s6,272(sp)
400074b4:	10812c03          	lw	s8,264(sp)
400074b8:	6155                	addi	sp,sp,304
400074ba:	4510006f          	j	4000810a <__sbprintf>
400074be:	0090                	addi	a2,sp,64
400074c0:	85da                	mv	a1,s6
400074c2:	8562                	mv	a0,s8
400074c4:	dd1ff0ef          	jal	ra,40007294 <__sprint_r.part.0>
400074c8:	16050463          	beqz	a0,40007630 <_vfiprintf_r+0x304>
400074cc:	8d4e                	mv	s10,s3
400074ce:	00cb5783          	lhu	a5,12(s6)
400074d2:	0407f793          	andi	a5,a5,64
400074d6:	400796e3          	bnez	a5,400080e2 <_vfiprintf_r+0xdb6>
400074da:	12c12083          	lw	ra,300(sp)
400074de:	12812403          	lw	s0,296(sp)
400074e2:	12412483          	lw	s1,292(sp)
400074e6:	12012903          	lw	s2,288(sp)
400074ea:	11c12983          	lw	s3,284(sp)
400074ee:	11812a03          	lw	s4,280(sp)
400074f2:	11412a83          	lw	s5,276(sp)
400074f6:	11012b03          	lw	s6,272(sp)
400074fa:	10c12b83          	lw	s7,268(sp)
400074fe:	10812c03          	lw	s8,264(sp)
40007502:	10412c83          	lw	s9,260(sp)
40007506:	5dfe                	lw	s11,252(sp)
40007508:	856a                	mv	a0,s10
4000750a:	10012d03          	lw	s10,256(sp)
4000750e:	6155                	addi	sp,sp,304
40007510:	8082                	ret
40007512:	4b81                	li	s7,0
40007514:	fd068793          	addi	a5,a3,-48
40007518:	4625                	li	a2,9
4000751a:	00094683          	lbu	a3,0(s2)
4000751e:	002b9713          	slli	a4,s7,0x2
40007522:	9bba                	add	s7,s7,a4
40007524:	0b86                	slli	s7,s7,0x1
40007526:	9bbe                	add	s7,s7,a5
40007528:	fd068793          	addi	a5,a3,-48
4000752c:	0905                	addi	s2,s2,1
4000752e:	fef676e3          	bgeu	a2,a5,4000751a <_vfiprintf_r+0x1ee>
40007532:	fe068713          	addi	a4,a3,-32
40007536:	f0e4ffe3          	bgeu	s1,a4,40007454 <_vfiprintf_r+0x128>
4000753a:	10068163          	beqz	a3,4000763c <_vfiprintf_r+0x310>
4000753e:	08d10623          	sb	a3,140(sp)
40007542:	02010da3          	sb	zero,59(sp)
40007546:	4305                	li	t1,1
40007548:	4e05                	li	t3,1
4000754a:	0164                	addi	s1,sp,140
4000754c:	4d81                	li	s11,0
4000754e:	0028ff93          	andi	t6,a7,2
40007552:	000f8363          	beqz	t6,40007558 <_vfiprintf_r+0x22c>
40007556:	0309                	addi	t1,t1,2
40007558:	4716                	lw	a4,68(sp)
4000755a:	0848f293          	andi	t0,a7,132
4000755e:	47a6                	lw	a5,72(sp)
40007560:	00170613          	addi	a2,a4,1
40007564:	85b2                	mv	a1,a2
40007566:	00029663          	bnez	t0,40007572 <_vfiprintf_r+0x246>
4000756a:	406b86b3          	sub	a3,s7,t1
4000756e:	6ed04f63          	bgtz	a3,40007c6c <_vfiprintf_r+0x940>
40007572:	03b14683          	lbu	a3,59(sp)
40007576:	ce99                	beqz	a3,40007594 <_vfiprintf_r+0x268>
40007578:	03b10713          	addi	a4,sp,59
4000757c:	0785                	addi	a5,a5,1
4000757e:	c018                	sw	a4,0(s0)
40007580:	4705                	li	a4,1
40007582:	c058                	sw	a4,4(s0)
40007584:	c4be                	sw	a5,72(sp)
40007586:	c2ae                	sw	a1,68(sp)
40007588:	471d                	li	a4,7
4000758a:	64b74f63          	blt	a4,a1,40007be8 <_vfiprintf_r+0x8bc>
4000758e:	872e                	mv	a4,a1
40007590:	0421                	addi	s0,s0,8
40007592:	0585                	addi	a1,a1,1
40007594:	040f8163          	beqz	t6,400075d6 <_vfiprintf_r+0x2aa>
40007598:	1878                	addi	a4,sp,60
4000759a:	0789                	addi	a5,a5,2
4000759c:	c018                	sw	a4,0(s0)
4000759e:	4709                	li	a4,2
400075a0:	c058                	sw	a4,4(s0)
400075a2:	c4be                	sw	a5,72(sp)
400075a4:	c2ae                	sw	a1,68(sp)
400075a6:	471d                	li	a4,7
400075a8:	68b75063          	bge	a4,a1,40007c28 <_vfiprintf_r+0x8fc>
400075ac:	7c078f63          	beqz	a5,40007d8a <_vfiprintf_r+0xa5e>
400075b0:	0090                	addi	a2,sp,64
400075b2:	85da                	mv	a1,s6
400075b4:	8562                	mv	a0,s8
400075b6:	d21a                	sw	t1,36(sp)
400075b8:	ca46                	sw	a7,20(sp)
400075ba:	c872                	sw	t3,16(sp)
400075bc:	c616                	sw	t0,12(sp)
400075be:	cd7ff0ef          	jal	ra,40007294 <__sprint_r.part.0>
400075c2:	f509                	bnez	a0,400074cc <_vfiprintf_r+0x1a0>
400075c4:	4716                	lw	a4,68(sp)
400075c6:	47a6                	lw	a5,72(sp)
400075c8:	5312                	lw	t1,36(sp)
400075ca:	48d2                	lw	a7,20(sp)
400075cc:	4e42                	lw	t3,16(sp)
400075ce:	42b2                	lw	t0,12(sp)
400075d0:	8456                	mv	s0,s5
400075d2:	00170593          	addi	a1,a4,1
400075d6:	08000693          	li	a3,128
400075da:	4ad28963          	beq	t0,a3,40007a8c <_vfiprintf_r+0x760>
400075de:	41cd8db3          	sub	s11,s11,t3
400075e2:	57b04763          	bgtz	s11,40007b50 <_vfiprintf_r+0x824>
400075e6:	97f2                	add	a5,a5,t3
400075e8:	c004                	sw	s1,0(s0)
400075ea:	01c42223          	sw	t3,4(s0)
400075ee:	c4be                	sw	a5,72(sp)
400075f0:	c2ae                	sw	a1,68(sp)
400075f2:	471d                	li	a4,7
400075f4:	48b75663          	bge	a4,a1,40007a80 <_vfiprintf_r+0x754>
400075f8:	cfdd                	beqz	a5,400076b6 <_vfiprintf_r+0x38a>
400075fa:	0090                	addi	a2,sp,64
400075fc:	85da                	mv	a1,s6
400075fe:	8562                	mv	a0,s8
40007600:	c81a                	sw	t1,16(sp)
40007602:	c646                	sw	a7,12(sp)
40007604:	c91ff0ef          	jal	ra,40007294 <__sprint_r.part.0>
40007608:	ec0512e3          	bnez	a0,400074cc <_vfiprintf_r+0x1a0>
4000760c:	47a6                	lw	a5,72(sp)
4000760e:	4342                	lw	t1,16(sp)
40007610:	48b2                	lw	a7,12(sp)
40007612:	8456                	mv	s0,s5
40007614:	0048f893          	andi	a7,a7,4
40007618:	00088663          	beqz	a7,40007624 <_vfiprintf_r+0x2f8>
4000761c:	406b84b3          	sub	s1,s7,t1
40007620:	0a904563          	bgtz	s1,400076ca <_vfiprintf_r+0x39e>
40007624:	006bd363          	bge	s7,t1,4000762a <_vfiprintf_r+0x2fe>
40007628:	8b9a                	mv	s7,t1
4000762a:	99de                	add	s3,s3,s7
4000762c:	e80799e3          	bnez	a5,400074be <_vfiprintf_r+0x192>
40007630:	00094783          	lbu	a5,0(s2)
40007634:	c282                	sw	zero,68(sp)
40007636:	8456                	mv	s0,s5
40007638:	da0794e3          	bnez	a5,400073e0 <_vfiprintf_r+0xb4>
4000763c:	47a6                	lw	a5,72(sp)
4000763e:	8d4e                	mv	s10,s3
40007640:	e80787e3          	beqz	a5,400074ce <_vfiprintf_r+0x1a2>
40007644:	0090                	addi	a2,sp,64
40007646:	85da                	mv	a1,s6
40007648:	8562                	mv	a0,s8
4000764a:	c4bff0ef          	jal	ra,40007294 <__sprint_r.part.0>
4000764e:	b541                	j	400074ce <_vfiprintf_r+0x1a2>
40007650:	000d2b83          	lw	s7,0(s10)
40007654:	0d11                	addi	s10,s10,4
40007656:	1e0bc063          	bltz	s7,40007836 <_vfiprintf_r+0x50a>
4000765a:	00094783          	lbu	a5,0(s2)
4000765e:	b3ed                	j	40007448 <_vfiprintf_r+0x11c>
40007660:	00094783          	lbu	a5,0(s2)
40007664:	0208e893          	ori	a7,a7,32
40007668:	b3c5                	j	40007448 <_vfiprintf_r+0x11c>
4000766a:	0108e893          	ori	a7,a7,16
4000766e:	0208f793          	andi	a5,a7,32
40007672:	c7f5                	beqz	a5,4000775e <_vfiprintf_r+0x432>
40007674:	0d1d                	addi	s10,s10,7
40007676:	ff8d7d13          	andi	s10,s10,-8
4000767a:	004d2703          	lw	a4,4(s10)
4000767e:	000d2783          	lw	a5,0(s10)
40007682:	0d21                	addi	s10,s10,8
40007684:	82ba                	mv	t0,a4
40007686:	0e074c63          	bltz	a4,4000777e <_vfiprintf_r+0x452>
4000768a:	577d                	li	a4,-1
4000768c:	10ed8a63          	beq	s11,a4,400077a0 <_vfiprintf_r+0x474>
40007690:	0057e733          	or	a4,a5,t0
40007694:	f7f8f893          	andi	a7,a7,-129
40007698:	10071463          	bnez	a4,400077a0 <_vfiprintf_r+0x474>
4000769c:	200d9ce3          	bnez	s11,400080b4 <_vfiprintf_r+0xd88>
400076a0:	4301                	li	t1,0
400076a2:	4e01                	li	t3,0
400076a4:	1984                	addi	s1,sp,240
400076a6:	aa39                	j	400077c4 <_vfiprintf_r+0x498>
400076a8:	41248bb3          	sub	s7,s1,s2
400076ac:	d52497e3          	bne	s1,s2,400073fa <_vfiprintf_r+0xce>
400076b0:	0004c783          	lbu	a5,0(s1)
400076b4:	bbad                	j	4000742e <_vfiprintf_r+0x102>
400076b6:	c282                	sw	zero,68(sp)
400076b8:	0048f893          	andi	a7,a7,4
400076bc:	64088963          	beqz	a7,40007d0e <_vfiprintf_r+0x9e2>
400076c0:	406b84b3          	sub	s1,s7,t1
400076c4:	64905563          	blez	s1,40007d0e <_vfiprintf_r+0x9e2>
400076c8:	8456                	mv	s0,s5
400076ca:	4741                	li	a4,16
400076cc:	4696                	lw	a3,68(sp)
400076ce:	209752e3          	bge	a4,s1,400080d2 <_vfiprintf_r+0xda6>
400076d2:	80001eb7          	lui	t4,0x80001
400076d6:	a90e8e93          	addi	t4,t4,-1392 # 80000a90 <_bss_lma+0xfffffff0>
400076da:	85a2                	mv	a1,s0
400076dc:	4dc1                	li	s11,16
400076de:	489d                	li	a7,7
400076e0:	c61a                	sw	t1,12(sp)
400076e2:	8476                	mv	s0,t4
400076e4:	a801                	j	400076f4 <_vfiprintf_r+0x3c8>
400076e6:	00268613          	addi	a2,a3,2
400076ea:	05a1                	addi	a1,a1,8
400076ec:	86ba                	mv	a3,a4
400076ee:	14c1                	addi	s1,s1,-16
400076f0:	029dde63          	bge	s11,s1,4000772c <_vfiprintf_r+0x400>
400076f4:	07c1                	addi	a5,a5,16
400076f6:	00168713          	addi	a4,a3,1
400076fa:	c180                	sw	s0,0(a1)
400076fc:	01b5a223          	sw	s11,4(a1)
40007700:	c4be                	sw	a5,72(sp)
40007702:	c2ba                	sw	a4,68(sp)
40007704:	fee8d1e3          	bge	a7,a4,400076e6 <_vfiprintf_r+0x3ba>
40007708:	36078e63          	beqz	a5,40007a84 <_vfiprintf_r+0x758>
4000770c:	0090                	addi	a2,sp,64
4000770e:	85da                	mv	a1,s6
40007710:	8562                	mv	a0,s8
40007712:	b83ff0ef          	jal	ra,40007294 <__sprint_r.part.0>
40007716:	da051be3          	bnez	a0,400074cc <_vfiprintf_r+0x1a0>
4000771a:	4696                	lw	a3,68(sp)
4000771c:	14c1                	addi	s1,s1,-16
4000771e:	47a6                	lw	a5,72(sp)
40007720:	85d6                	mv	a1,s5
40007722:	00168613          	addi	a2,a3,1
40007726:	489d                	li	a7,7
40007728:	fc9dc6e3          	blt	s11,s1,400076f4 <_vfiprintf_r+0x3c8>
4000772c:	4332                	lw	t1,12(sp)
4000772e:	8ea2                	mv	t4,s0
40007730:	842e                	mv	s0,a1
40007732:	97a6                	add	a5,a5,s1
40007734:	01d42023          	sw	t4,0(s0)
40007738:	c044                	sw	s1,4(s0)
4000773a:	c4be                	sw	a5,72(sp)
4000773c:	c2b2                	sw	a2,68(sp)
4000773e:	471d                	li	a4,7
40007740:	eec752e3          	bge	a4,a2,40007624 <_vfiprintf_r+0x2f8>
40007744:	5c078563          	beqz	a5,40007d0e <_vfiprintf_r+0x9e2>
40007748:	0090                	addi	a2,sp,64
4000774a:	85da                	mv	a1,s6
4000774c:	8562                	mv	a0,s8
4000774e:	c61a                	sw	t1,12(sp)
40007750:	b45ff0ef          	jal	ra,40007294 <__sprint_r.part.0>
40007754:	d6051ce3          	bnez	a0,400074cc <_vfiprintf_r+0x1a0>
40007758:	47a6                	lw	a5,72(sp)
4000775a:	4332                	lw	t1,12(sp)
4000775c:	b5e1                	j	40007624 <_vfiprintf_r+0x2f8>
4000775e:	0108f713          	andi	a4,a7,16
40007762:	000d2783          	lw	a5,0(s10)
40007766:	0d11                	addi	s10,s10,4
40007768:	e379                	bnez	a4,4000782e <_vfiprintf_r+0x502>
4000776a:	0408f713          	andi	a4,a7,64
4000776e:	cf45                	beqz	a4,40007826 <_vfiprintf_r+0x4fa>
40007770:	07c2                	slli	a5,a5,0x10
40007772:	87c1                	srai	a5,a5,0x10
40007774:	41f7d293          	srai	t0,a5,0x1f
40007778:	8716                	mv	a4,t0
4000777a:	f00758e3          	bgez	a4,4000768a <_vfiprintf_r+0x35e>
4000777e:	02d00693          	li	a3,45
40007782:	00f03733          	snez	a4,a5
40007786:	405002b3          	neg	t0,t0
4000778a:	02d10da3          	sb	a3,59(sp)
4000778e:	56fd                	li	a3,-1
40007790:	40e282b3          	sub	t0,t0,a4
40007794:	40f007b3          	neg	a5,a5
40007798:	00dd8463          	beq	s11,a3,400077a0 <_vfiprintf_r+0x474>
4000779c:	f7f8f893          	andi	a7,a7,-129
400077a0:	62029363          	bnez	t0,40007dc6 <_vfiprintf_r+0xa9a>
400077a4:	4725                	li	a4,9
400077a6:	62f76063          	bltu	a4,a5,40007dc6 <_vfiprintf_r+0xa9a>
400077aa:	03078793          	addi	a5,a5,48
400077ae:	0ff7f793          	zext.b	a5,a5
400077b2:	0ef107a3          	sb	a5,239(sp)
400077b6:	836e                	mv	t1,s11
400077b8:	01b04363          	bgtz	s11,400077be <_vfiprintf_r+0x492>
400077bc:	4305                	li	t1,1
400077be:	4e05                	li	t3,1
400077c0:	0ef10493          	addi	s1,sp,239
400077c4:	03b14783          	lbu	a5,59(sp)
400077c8:	00f037b3          	snez	a5,a5
400077cc:	933e                	add	t1,t1,a5
400077ce:	b341                	j	4000754e <_vfiprintf_r+0x222>
400077d0:	5af000ef          	jal	ra,4000857e <__sinit>
400077d4:	be71                	j	40007370 <_vfiprintf_r+0x44>
400077d6:	000d2483          	lw	s1,0(s10)
400077da:	02010da3          	sb	zero,59(sp)
400077de:	0d11                	addi	s10,s10,4
400077e0:	04048fe3          	beqz	s1,4000803e <_vfiprintf_r+0xd12>
400077e4:	57fd                	li	a5,-1
400077e6:	c646                	sw	a7,12(sp)
400077e8:	74fd8f63          	beq	s11,a5,40007f46 <_vfiprintf_r+0xc1a>
400077ec:	866e                	mv	a2,s11
400077ee:	4581                	li	a1,0
400077f0:	8526                	mv	a0,s1
400077f2:	8f0ff0ef          	jal	ra,400068e2 <memchr>
400077f6:	48b2                	lw	a7,12(sp)
400077f8:	0c0502e3          	beqz	a0,400080bc <_vfiprintf_r+0xd90>
400077fc:	40950e33          	sub	t3,a0,s1
40007800:	fffe4313          	not	t1,t3
40007804:	41f35313          	srai	t1,t1,0x1f
40007808:	006e7333          	and	t1,t3,t1
4000780c:	4d81                	li	s11,0
4000780e:	bf5d                	j	400077c4 <_vfiprintf_r+0x498>
40007810:	000d2783          	lw	a5,0(s10)
40007814:	02010da3          	sb	zero,59(sp)
40007818:	0d11                	addi	s10,s10,4
4000781a:	08f10623          	sb	a5,140(sp)
4000781e:	4305                	li	t1,1
40007820:	4e05                	li	t3,1
40007822:	0164                	addi	s1,sp,140
40007824:	b325                	j	4000754c <_vfiprintf_r+0x220>
40007826:	2008f713          	andi	a4,a7,512
4000782a:	060713e3          	bnez	a4,40008090 <_vfiprintf_r+0xd64>
4000782e:	41f7d293          	srai	t0,a5,0x1f
40007832:	8716                	mv	a4,t0
40007834:	bd89                	j	40007686 <_vfiprintf_r+0x35a>
40007836:	41700bb3          	neg	s7,s7
4000783a:	00094783          	lbu	a5,0(s2)
4000783e:	0048e893          	ori	a7,a7,4
40007842:	b119                	j	40007448 <_vfiprintf_r+0x11c>
40007844:	02b00713          	li	a4,43
40007848:	00094783          	lbu	a5,0(s2)
4000784c:	02e10da3          	sb	a4,59(sp)
40007850:	bee5                	j	40007448 <_vfiprintf_r+0x11c>
40007852:	00094783          	lbu	a5,0(s2)
40007856:	0808e893          	ori	a7,a7,128
4000785a:	b6fd                	j	40007448 <_vfiprintf_r+0x11c>
4000785c:	00094683          	lbu	a3,0(s2)
40007860:	02a00793          	li	a5,42
40007864:	00190713          	addi	a4,s2,1
40007868:	08f686e3          	beq	a3,a5,400080f4 <_vfiprintf_r+0xdc8>
4000786c:	fd068793          	addi	a5,a3,-48
40007870:	45a5                	li	a1,9
40007872:	893a                	mv	s2,a4
40007874:	4d81                	li	s11,0
40007876:	4625                	li	a2,9
40007878:	bcf5eae3          	bltu	a1,a5,4000744c <_vfiprintf_r+0x120>
4000787c:	00094683          	lbu	a3,0(s2)
40007880:	002d9713          	slli	a4,s11,0x2
40007884:	9dba                	add	s11,s11,a4
40007886:	0d86                	slli	s11,s11,0x1
40007888:	9dbe                	add	s11,s11,a5
4000788a:	fd068793          	addi	a5,a3,-48
4000788e:	0905                	addi	s2,s2,1
40007890:	fef676e3          	bgeu	a2,a5,4000787c <_vfiprintf_r+0x550>
40007894:	be65                	j	4000744c <_vfiprintf_r+0x120>
40007896:	8562                	mv	a0,s8
40007898:	c646                	sw	a7,12(sp)
4000789a:	a5bfe0ef          	jal	ra,400062f4 <_localeconv_r>
4000789e:	415c                	lw	a5,4(a0)
400078a0:	853e                	mv	a0,a5
400078a2:	d03e                	sw	a5,32(sp)
400078a4:	9b9fa0ef          	jal	ra,4000225c <strlen>
400078a8:	87aa                	mv	a5,a0
400078aa:	8562                	mv	a0,s8
400078ac:	ce3e                	sw	a5,28(sp)
400078ae:	a47fe0ef          	jal	ra,400062f4 <_localeconv_r>
400078b2:	4518                	lw	a4,8(a0)
400078b4:	47f2                	lw	a5,28(sp)
400078b6:	48b2                	lw	a7,12(sp)
400078b8:	cc3a                	sw	a4,24(sp)
400078ba:	da0780e3          	beqz	a5,4000765a <_vfiprintf_r+0x32e>
400078be:	4762                	lw	a4,24(sp)
400078c0:	00094783          	lbu	a5,0(s2)
400078c4:	b80702e3          	beqz	a4,40007448 <_vfiprintf_r+0x11c>
400078c8:	00074703          	lbu	a4,0(a4)
400078cc:	b6070ee3          	beqz	a4,40007448 <_vfiprintf_r+0x11c>
400078d0:	4008e893          	ori	a7,a7,1024
400078d4:	be95                	j	40007448 <_vfiprintf_r+0x11c>
400078d6:	00094783          	lbu	a5,0(s2)
400078da:	0018e893          	ori	a7,a7,1
400078de:	b6ad                	j	40007448 <_vfiprintf_r+0x11c>
400078e0:	03b14703          	lbu	a4,59(sp)
400078e4:	00094783          	lbu	a5,0(s2)
400078e8:	b60710e3          	bnez	a4,40007448 <_vfiprintf_r+0x11c>
400078ec:	02000713          	li	a4,32
400078f0:	02e10da3          	sb	a4,59(sp)
400078f4:	be91                	j	40007448 <_vfiprintf_r+0x11c>
400078f6:	0108e713          	ori	a4,a7,16
400078fa:	02077793          	andi	a5,a4,32
400078fe:	44078563          	beqz	a5,40007d48 <_vfiprintf_r+0xa1c>
40007902:	0d1d                	addi	s10,s10,7
40007904:	ff8d7d13          	andi	s10,s10,-8
40007908:	000d2783          	lw	a5,0(s10)
4000790c:	004d2603          	lw	a2,4(s10)
40007910:	0d21                	addi	s10,s10,8
40007912:	02010da3          	sb	zero,59(sp)
40007916:	56fd                	li	a3,-1
40007918:	bff77893          	andi	a7,a4,-1025
4000791c:	08dd8963          	beq	s11,a3,400079ae <_vfiprintf_r+0x682>
40007920:	00c7e6b3          	or	a3,a5,a2
40007924:	b7f77713          	andi	a4,a4,-1153
40007928:	6e069163          	bnez	a3,4000800a <_vfiprintf_r+0xcde>
4000792c:	8e46                	mv	t3,a7
4000792e:	4781                	li	a5,0
40007930:	88ba                	mv	a7,a4
40007932:	060d9663          	bnez	s11,4000799e <_vfiprintf_r+0x672>
40007936:	d60795e3          	bnez	a5,400076a0 <_vfiprintf_r+0x374>
4000793a:	001e7e13          	andi	t3,t3,1
4000793e:	540e0f63          	beqz	t3,40007e9c <_vfiprintf_r+0xb70>
40007942:	03000793          	li	a5,48
40007946:	0ef107a3          	sb	a5,239(sp)
4000794a:	8372                	mv	t1,t3
4000794c:	0ef10493          	addi	s1,sp,239
40007950:	bd95                	j	400077c4 <_vfiprintf_r+0x498>
40007952:	00094783          	lbu	a5,0(s2)
40007956:	06c00713          	li	a4,108
4000795a:	6ce78463          	beq	a5,a4,40008022 <_vfiprintf_r+0xcf6>
4000795e:	0108e893          	ori	a7,a7,16
40007962:	b4dd                	j	40007448 <_vfiprintf_r+0x11c>
40007964:	0108ee13          	ori	t3,a7,16
40007968:	020e7793          	andi	a5,t3,32
4000796c:	40078163          	beqz	a5,40007d6e <_vfiprintf_r+0xa42>
40007970:	0d1d                	addi	s10,s10,7
40007972:	ff8d7d13          	andi	s10,s10,-8
40007976:	000d2783          	lw	a5,0(s10)
4000797a:	004d2283          	lw	t0,4(s10)
4000797e:	0d21                	addi	s10,s10,8
40007980:	02010da3          	sb	zero,59(sp)
40007984:	577d                	li	a4,-1
40007986:	88f2                	mv	a7,t3
40007988:	e0ed8ce3          	beq	s11,a4,400077a0 <_vfiprintf_r+0x474>
4000798c:	0057e733          	or	a4,a5,t0
40007990:	f7fe7893          	andi	a7,t3,-129
40007994:	e00716e3          	bnez	a4,400077a0 <_vfiprintf_r+0x474>
40007998:	4785                	li	a5,1
4000799a:	f80d8ee3          	beqz	s11,40007936 <_vfiprintf_r+0x60a>
4000799e:	4705                	li	a4,1
400079a0:	70e78a63          	beq	a5,a4,400080b4 <_vfiprintf_r+0xd88>
400079a4:	4709                	li	a4,2
400079a6:	6ae78763          	beq	a5,a4,40008054 <_vfiprintf_r+0xd28>
400079aa:	4781                	li	a5,0
400079ac:	4601                	li	a2,0
400079ae:	1984                	addi	s1,sp,240
400079b0:	01d61693          	slli	a3,a2,0x1d
400079b4:	0077f713          	andi	a4,a5,7
400079b8:	838d                	srli	a5,a5,0x3
400079ba:	03070713          	addi	a4,a4,48
400079be:	8fd5                	or	a5,a5,a3
400079c0:	820d                	srli	a2,a2,0x3
400079c2:	fee48fa3          	sb	a4,-1(s1)
400079c6:	00c7e6b3          	or	a3,a5,a2
400079ca:	85a6                	mv	a1,s1
400079cc:	14fd                	addi	s1,s1,-1
400079ce:	f2ed                	bnez	a3,400079b0 <_vfiprintf_r+0x684>
400079d0:	0018f793          	andi	a5,a7,1
400079d4:	28078463          	beqz	a5,40007c5c <_vfiprintf_r+0x930>
400079d8:	03000793          	li	a5,48
400079dc:	28f70063          	beq	a4,a5,40007c5c <_vfiprintf_r+0x930>
400079e0:	15f9                	addi	a1,a1,-2
400079e2:	1998                	addi	a4,sp,240
400079e4:	40b70e33          	sub	t3,a4,a1
400079e8:	fef48fa3          	sb	a5,-1(s1)
400079ec:	8372                	mv	t1,t3
400079ee:	4dbe4f63          	blt	t3,s11,40007ecc <_vfiprintf_r+0xba0>
400079f2:	84ae                	mv	s1,a1
400079f4:	bbc1                	j	400077c4 <_vfiprintf_r+0x498>
400079f6:	00094783          	lbu	a5,0(s2)
400079fa:	06800713          	li	a4,104
400079fe:	60e78b63          	beq	a5,a4,40008014 <_vfiprintf_r+0xce8>
40007a02:	0408e893          	ori	a7,a7,64
40007a06:	b489                	j	40007448 <_vfiprintf_r+0x11c>
40007a08:	7761                	lui	a4,0xffff8
40007a0a:	83074713          	xori	a4,a4,-2000
40007a0e:	02e11e23          	sh	a4,60(sp)
40007a12:	80000737          	lui	a4,0x80000
40007a16:	28c70713          	addi	a4,a4,652 # 8000028c <_bss_lma+0xfffff7ec>
40007a1a:	000d2783          	lw	a5,0(s10)
40007a1e:	4601                	li	a2,0
40007a20:	0028e893          	ori	a7,a7,2
40007a24:	0d11                	addi	s10,s10,4
40007a26:	c43a                	sw	a4,8(sp)
40007a28:	02010da3          	sb	zero,59(sp)
40007a2c:	577d                	li	a4,-1
40007a2e:	20ed8563          	beq	s11,a4,40007c38 <_vfiprintf_r+0x90c>
40007a32:	00c7e733          	or	a4,a5,a2
40007a36:	f7f8f693          	andi	a3,a7,-129
40007a3a:	1e071b63          	bnez	a4,40007c30 <_vfiprintf_r+0x904>
40007a3e:	8e46                	mv	t3,a7
40007a40:	4789                	li	a5,2
40007a42:	88b6                	mv	a7,a3
40007a44:	b5fd                	j	40007932 <_vfiprintf_r+0x606>
40007a46:	0208f793          	andi	a5,a7,32
40007a4a:	46079263          	bnez	a5,40007eae <_vfiprintf_r+0xb82>
40007a4e:	0108f793          	andi	a5,a7,16
40007a52:	5c079f63          	bnez	a5,40008030 <_vfiprintf_r+0xd04>
40007a56:	0408f793          	andi	a5,a7,64
40007a5a:	64079663          	bnez	a5,400080a6 <_vfiprintf_r+0xd7a>
40007a5e:	2008f893          	andi	a7,a7,512
40007a62:	5c088763          	beqz	a7,40008030 <_vfiprintf_r+0xd04>
40007a66:	000d2783          	lw	a5,0(s10)
40007a6a:	0d11                	addi	s10,s10,4
40007a6c:	01378023          	sb	s3,0(a5)
40007a70:	b2a5                	j	400073d8 <_vfiprintf_r+0xac>
40007a72:	4705                	li	a4,1
40007a74:	87f2                	mv	a5,t3
40007a76:	c6a6                	sw	s1,76(sp)
40007a78:	c8f2                	sw	t3,80(sp)
40007a7a:	c4f2                	sw	t3,72(sp)
40007a7c:	c2ba                	sw	a4,68(sp)
40007a7e:	8456                	mv	s0,s5
40007a80:	0421                	addi	s0,s0,8
40007a82:	be49                	j	40007614 <_vfiprintf_r+0x2e8>
40007a84:	4605                	li	a2,1
40007a86:	4681                	li	a3,0
40007a88:	85d6                	mv	a1,s5
40007a8a:	b195                	j	400076ee <_vfiprintf_r+0x3c2>
40007a8c:	406b8eb3          	sub	t4,s7,t1
40007a90:	b5d057e3          	blez	t4,400075de <_vfiprintf_r+0x2b2>
40007a94:	46c1                	li	a3,16
40007a96:	65d6d963          	bge	a3,t4,400080e8 <_vfiprintf_r+0xdbc>
40007a9a:	80001f37          	lui	t5,0x80001
40007a9e:	a80f0f13          	addi	t5,t5,-1408 # 80000a80 <_bss_lma+0xffffffe0>
40007aa2:	c626                	sw	s1,12(sp)
40007aa4:	85a2                	mv	a1,s0
40007aa6:	4fc1                	li	t6,16
40007aa8:	429d                	li	t0,7
40007aaa:	c872                	sw	t3,16(sp)
40007aac:	ca46                	sw	a7,20(sp)
40007aae:	d21a                	sw	t1,36(sp)
40007ab0:	8476                	mv	s0,t4
40007ab2:	84fa                	mv	s1,t5
40007ab4:	a801                	j	40007ac4 <_vfiprintf_r+0x798>
40007ab6:	00270613          	addi	a2,a4,2
40007aba:	05a1                	addi	a1,a1,8
40007abc:	8736                	mv	a4,a3
40007abe:	1441                	addi	s0,s0,-16
40007ac0:	028fdf63          	bge	t6,s0,40007afe <_vfiprintf_r+0x7d2>
40007ac4:	07c1                	addi	a5,a5,16
40007ac6:	00170693          	addi	a3,a4,1
40007aca:	c184                	sw	s1,0(a1)
40007acc:	01f5a223          	sw	t6,4(a1)
40007ad0:	c4be                	sw	a5,72(sp)
40007ad2:	c2b6                	sw	a3,68(sp)
40007ad4:	fed2d1e3          	bge	t0,a3,40007ab6 <_vfiprintf_r+0x78a>
40007ad8:	10078463          	beqz	a5,40007be0 <_vfiprintf_r+0x8b4>
40007adc:	0090                	addi	a2,sp,64
40007ade:	85da                	mv	a1,s6
40007ae0:	8562                	mv	a0,s8
40007ae2:	fb2ff0ef          	jal	ra,40007294 <__sprint_r.part.0>
40007ae6:	9e0513e3          	bnez	a0,400074cc <_vfiprintf_r+0x1a0>
40007aea:	4716                	lw	a4,68(sp)
40007aec:	4fc1                	li	t6,16
40007aee:	1441                	addi	s0,s0,-16
40007af0:	47a6                	lw	a5,72(sp)
40007af2:	85d6                	mv	a1,s5
40007af4:	00170613          	addi	a2,a4,1
40007af8:	429d                	li	t0,7
40007afa:	fc8fc5e3          	blt	t6,s0,40007ac4 <_vfiprintf_r+0x798>
40007afe:	8f26                	mv	t5,s1
40007b00:	4e42                	lw	t3,16(sp)
40007b02:	48d2                	lw	a7,20(sp)
40007b04:	5312                	lw	t1,36(sp)
40007b06:	44b2                	lw	s1,12(sp)
40007b08:	8ea2                	mv	t4,s0
40007b0a:	842e                	mv	s0,a1
40007b0c:	97f6                	add	a5,a5,t4
40007b0e:	01e42023          	sw	t5,0(s0)
40007b12:	01d42223          	sw	t4,4(s0)
40007b16:	c4be                	sw	a5,72(sp)
40007b18:	c2b2                	sw	a2,68(sp)
40007b1a:	471d                	li	a4,7
40007b1c:	38c75363          	bge	a4,a2,40007ea2 <_vfiprintf_r+0xb76>
40007b20:	54078563          	beqz	a5,4000806a <_vfiprintf_r+0xd3e>
40007b24:	0090                	addi	a2,sp,64
40007b26:	85da                	mv	a1,s6
40007b28:	8562                	mv	a0,s8
40007b2a:	ca1a                	sw	t1,20(sp)
40007b2c:	c846                	sw	a7,16(sp)
40007b2e:	c672                	sw	t3,12(sp)
40007b30:	f64ff0ef          	jal	ra,40007294 <__sprint_r.part.0>
40007b34:	98051ce3          	bnez	a0,400074cc <_vfiprintf_r+0x1a0>
40007b38:	4e32                	lw	t3,12(sp)
40007b3a:	4716                	lw	a4,68(sp)
40007b3c:	47a6                	lw	a5,72(sp)
40007b3e:	41cd8db3          	sub	s11,s11,t3
40007b42:	4352                	lw	t1,20(sp)
40007b44:	48c2                	lw	a7,16(sp)
40007b46:	8456                	mv	s0,s5
40007b48:	00170593          	addi	a1,a4,1
40007b4c:	a9b05de3          	blez	s11,400075e6 <_vfiprintf_r+0x2ba>
40007b50:	80001f37          	lui	t5,0x80001
40007b54:	a80f0f13          	addi	t5,t5,-1408 # 80000a80 <_bss_lma+0xffffffe0>
40007b58:	07ba5363          	bge	s4,s11,40007bbe <_vfiprintf_r+0x892>
40007b5c:	8622                	mv	a2,s0
40007b5e:	4e9d                	li	t4,7
40007b60:	846e                	mv	s0,s11
40007b62:	c672                	sw	t3,12(sp)
40007b64:	c846                	sw	a7,16(sp)
40007b66:	ca1a                	sw	t1,20(sp)
40007b68:	8de6                	mv	s11,s9
40007b6a:	a801                	j	40007b7a <_vfiprintf_r+0x84e>
40007b6c:	00270593          	addi	a1,a4,2
40007b70:	0621                	addi	a2,a2,8
40007b72:	8736                	mv	a4,a3
40007b74:	1441                	addi	s0,s0,-16
40007b76:	028a5e63          	bge	s4,s0,40007bb2 <_vfiprintf_r+0x886>
40007b7a:	07c1                	addi	a5,a5,16
40007b7c:	00170693          	addi	a3,a4,1
40007b80:	01962023          	sw	s9,0(a2)
40007b84:	01462223          	sw	s4,4(a2)
40007b88:	c4be                	sw	a5,72(sp)
40007b8a:	c2b6                	sw	a3,68(sp)
40007b8c:	feded0e3          	bge	t4,a3,40007b6c <_vfiprintf_r+0x840>
40007b90:	c7a1                	beqz	a5,40007bd8 <_vfiprintf_r+0x8ac>
40007b92:	0090                	addi	a2,sp,64
40007b94:	85da                	mv	a1,s6
40007b96:	8562                	mv	a0,s8
40007b98:	efcff0ef          	jal	ra,40007294 <__sprint_r.part.0>
40007b9c:	920518e3          	bnez	a0,400074cc <_vfiprintf_r+0x1a0>
40007ba0:	4716                	lw	a4,68(sp)
40007ba2:	1441                	addi	s0,s0,-16
40007ba4:	47a6                	lw	a5,72(sp)
40007ba6:	8656                	mv	a2,s5
40007ba8:	00170593          	addi	a1,a4,1
40007bac:	4e9d                	li	t4,7
40007bae:	fc8a46e3          	blt	s4,s0,40007b7a <_vfiprintf_r+0x84e>
40007bb2:	4e32                	lw	t3,12(sp)
40007bb4:	48c2                	lw	a7,16(sp)
40007bb6:	4352                	lw	t1,20(sp)
40007bb8:	8f6e                	mv	t5,s11
40007bba:	8da2                	mv	s11,s0
40007bbc:	8432                	mv	s0,a2
40007bbe:	97ee                	add	a5,a5,s11
40007bc0:	01e42023          	sw	t5,0(s0)
40007bc4:	01b42223          	sw	s11,4(s0)
40007bc8:	c4be                	sw	a5,72(sp)
40007bca:	c2ae                	sw	a1,68(sp)
40007bcc:	471d                	li	a4,7
40007bce:	14b74563          	blt	a4,a1,40007d18 <_vfiprintf_r+0x9ec>
40007bd2:	0421                	addi	s0,s0,8
40007bd4:	0585                	addi	a1,a1,1
40007bd6:	bc01                	j	400075e6 <_vfiprintf_r+0x2ba>
40007bd8:	4585                	li	a1,1
40007bda:	4701                	li	a4,0
40007bdc:	8656                	mv	a2,s5
40007bde:	bf59                	j	40007b74 <_vfiprintf_r+0x848>
40007be0:	4605                	li	a2,1
40007be2:	4701                	li	a4,0
40007be4:	85d6                	mv	a1,s5
40007be6:	bde1                	j	40007abe <_vfiprintf_r+0x792>
40007be8:	cb85                	beqz	a5,40007c18 <_vfiprintf_r+0x8ec>
40007bea:	0090                	addi	a2,sp,64
40007bec:	85da                	mv	a1,s6
40007bee:	8562                	mv	a0,s8
40007bf0:	d41a                	sw	t1,40(sp)
40007bf2:	d246                	sw	a7,36(sp)
40007bf4:	ca72                	sw	t3,20(sp)
40007bf6:	c816                	sw	t0,16(sp)
40007bf8:	c67e                	sw	t6,12(sp)
40007bfa:	e9aff0ef          	jal	ra,40007294 <__sprint_r.part.0>
40007bfe:	8c0517e3          	bnez	a0,400074cc <_vfiprintf_r+0x1a0>
40007c02:	4716                	lw	a4,68(sp)
40007c04:	47a6                	lw	a5,72(sp)
40007c06:	5322                	lw	t1,40(sp)
40007c08:	5892                	lw	a7,36(sp)
40007c0a:	4e52                	lw	t3,20(sp)
40007c0c:	42c2                	lw	t0,16(sp)
40007c0e:	4fb2                	lw	t6,12(sp)
40007c10:	8456                	mv	s0,s5
40007c12:	00170593          	addi	a1,a4,1
40007c16:	babd                	j	40007594 <_vfiprintf_r+0x268>
40007c18:	2a0f8563          	beqz	t6,40007ec2 <_vfiprintf_r+0xb96>
40007c1c:	187c                	addi	a5,sp,60
40007c1e:	c6be                	sw	a5,76(sp)
40007c20:	4789                	li	a5,2
40007c22:	c8be                	sw	a5,80(sp)
40007c24:	4585                	li	a1,1
40007c26:	8456                	mv	s0,s5
40007c28:	872e                	mv	a4,a1
40007c2a:	0421                	addi	s0,s0,8
40007c2c:	0585                	addi	a1,a1,1
40007c2e:	b265                	j	400075d6 <_vfiprintf_r+0x2aa>
40007c30:	4709                	li	a4,2
40007c32:	88b6                	mv	a7,a3
40007c34:	d6070de3          	beqz	a4,400079ae <_vfiprintf_r+0x682>
40007c38:	45a2                	lw	a1,8(sp)
40007c3a:	1984                	addi	s1,sp,240
40007c3c:	00f7f713          	andi	a4,a5,15
40007c40:	972e                	add	a4,a4,a1
40007c42:	00074683          	lbu	a3,0(a4)
40007c46:	8391                	srli	a5,a5,0x4
40007c48:	01c61713          	slli	a4,a2,0x1c
40007c4c:	8fd9                	or	a5,a5,a4
40007c4e:	8211                	srli	a2,a2,0x4
40007c50:	fed48fa3          	sb	a3,-1(s1)
40007c54:	00c7e733          	or	a4,a5,a2
40007c58:	14fd                	addi	s1,s1,-1
40007c5a:	f36d                	bnez	a4,40007c3c <_vfiprintf_r+0x910>
40007c5c:	199c                	addi	a5,sp,240
40007c5e:	40978e33          	sub	t3,a5,s1
40007c62:	8372                	mv	t1,t3
40007c64:	b7be50e3          	bge	t3,s11,400077c4 <_vfiprintf_r+0x498>
40007c68:	836e                	mv	t1,s11
40007c6a:	bea9                	j	400077c4 <_vfiprintf_r+0x498>
40007c6c:	45c1                	li	a1,16
40007c6e:	44d5dc63          	bge	a1,a3,400080c6 <_vfiprintf_r+0xd9a>
40007c72:	80001eb7          	lui	t4,0x80001
40007c76:	a90e8e93          	addi	t4,t4,-1392 # 80000a90 <_bss_lma+0xfffffff0>
40007c7a:	ca26                	sw	s1,20(sp)
40007c7c:	85a2                	mv	a1,s0
40007c7e:	4f41                	li	t5,16
40007c80:	439d                	li	t2,7
40007c82:	c67e                	sw	t6,12(sp)
40007c84:	c816                	sw	t0,16(sp)
40007c86:	d272                	sw	t3,36(sp)
40007c88:	d446                	sw	a7,40(sp)
40007c8a:	d61a                	sw	t1,44(sp)
40007c8c:	8436                	mv	s0,a3
40007c8e:	84f6                	mv	s1,t4
40007c90:	a811                	j	40007ca4 <_vfiprintf_r+0x978>
40007c92:	00270513          	addi	a0,a4,2
40007c96:	05a1                	addi	a1,a1,8
40007c98:	8732                	mv	a4,a2
40007c9a:	1441                	addi	s0,s0,-16
40007c9c:	028f5e63          	bge	t5,s0,40007cd8 <_vfiprintf_r+0x9ac>
40007ca0:	00170613          	addi	a2,a4,1
40007ca4:	07c1                	addi	a5,a5,16
40007ca6:	c184                	sw	s1,0(a1)
40007ca8:	01e5a223          	sw	t5,4(a1)
40007cac:	c4be                	sw	a5,72(sp)
40007cae:	c2b2                	sw	a2,68(sp)
40007cb0:	fec3d1e3          	bge	t2,a2,40007c92 <_vfiprintf_r+0x966>
40007cb4:	cba9                	beqz	a5,40007d06 <_vfiprintf_r+0x9da>
40007cb6:	0090                	addi	a2,sp,64
40007cb8:	85da                	mv	a1,s6
40007cba:	8562                	mv	a0,s8
40007cbc:	dd8ff0ef          	jal	ra,40007294 <__sprint_r.part.0>
40007cc0:	800516e3          	bnez	a0,400074cc <_vfiprintf_r+0x1a0>
40007cc4:	4716                	lw	a4,68(sp)
40007cc6:	4f41                	li	t5,16
40007cc8:	1441                	addi	s0,s0,-16
40007cca:	47a6                	lw	a5,72(sp)
40007ccc:	85d6                	mv	a1,s5
40007cce:	00170513          	addi	a0,a4,1
40007cd2:	439d                	li	t2,7
40007cd4:	fc8f46e3          	blt	t5,s0,40007ca0 <_vfiprintf_r+0x974>
40007cd8:	8ea6                	mv	t4,s1
40007cda:	4fb2                	lw	t6,12(sp)
40007cdc:	42c2                	lw	t0,16(sp)
40007cde:	5e12                	lw	t3,36(sp)
40007ce0:	58a2                	lw	a7,40(sp)
40007ce2:	5332                	lw	t1,44(sp)
40007ce4:	44d2                	lw	s1,20(sp)
40007ce6:	86a2                	mv	a3,s0
40007ce8:	842e                	mv	s0,a1
40007cea:	97b6                	add	a5,a5,a3
40007cec:	01d42023          	sw	t4,0(s0)
40007cf0:	c054                	sw	a3,4(s0)
40007cf2:	c4be                	sw	a5,72(sp)
40007cf4:	c2aa                	sw	a0,68(sp)
40007cf6:	471d                	li	a4,7
40007cf8:	08a74d63          	blt	a4,a0,40007d92 <_vfiprintf_r+0xa66>
40007cfc:	0421                	addi	s0,s0,8
40007cfe:	00150593          	addi	a1,a0,1
40007d02:	872a                	mv	a4,a0
40007d04:	b0bd                	j	40007572 <_vfiprintf_r+0x246>
40007d06:	4701                	li	a4,0
40007d08:	4505                	li	a0,1
40007d0a:	85d6                	mv	a1,s5
40007d0c:	b779                	j	40007c9a <_vfiprintf_r+0x96e>
40007d0e:	006bd363          	bge	s7,t1,40007d14 <_vfiprintf_r+0x9e8>
40007d12:	8b9a                	mv	s7,t1
40007d14:	99de                	add	s3,s3,s7
40007d16:	ba29                	j	40007630 <_vfiprintf_r+0x304>
40007d18:	d4078de3          	beqz	a5,40007a72 <_vfiprintf_r+0x746>
40007d1c:	0090                	addi	a2,sp,64
40007d1e:	85da                	mv	a1,s6
40007d20:	8562                	mv	a0,s8
40007d22:	ca1a                	sw	t1,20(sp)
40007d24:	c846                	sw	a7,16(sp)
40007d26:	c672                	sw	t3,12(sp)
40007d28:	d6cff0ef          	jal	ra,40007294 <__sprint_r.part.0>
40007d2c:	fa051063          	bnez	a0,400074cc <_vfiprintf_r+0x1a0>
40007d30:	4596                	lw	a1,68(sp)
40007d32:	47a6                	lw	a5,72(sp)
40007d34:	4352                	lw	t1,20(sp)
40007d36:	48c2                	lw	a7,16(sp)
40007d38:	4e32                	lw	t3,12(sp)
40007d3a:	8456                	mv	s0,s5
40007d3c:	0585                	addi	a1,a1,1
40007d3e:	b065                	j	400075e6 <_vfiprintf_r+0x2ba>
40007d40:	c282                	sw	zero,68(sp)
40007d42:	8456                	mv	s0,s5
40007d44:	ee4ff06f          	j	40007428 <_vfiprintf_r+0xfc>
40007d48:	01077693          	andi	a3,a4,16
40007d4c:	000d2783          	lw	a5,0(s10)
40007d50:	0d11                	addi	s10,s10,4
40007d52:	ee81                	bnez	a3,40007d6a <_vfiprintf_r+0xa3e>
40007d54:	04077693          	andi	a3,a4,64
40007d58:	c689                	beqz	a3,40007d62 <_vfiprintf_r+0xa36>
40007d5a:	07c2                	slli	a5,a5,0x10
40007d5c:	83c1                	srli	a5,a5,0x10
40007d5e:	4601                	li	a2,0
40007d60:	be4d                	j	40007912 <_vfiprintf_r+0x5e6>
40007d62:	20077693          	andi	a3,a4,512
40007d66:	32069163          	bnez	a3,40008088 <_vfiprintf_r+0xd5c>
40007d6a:	4601                	li	a2,0
40007d6c:	b65d                	j	40007912 <_vfiprintf_r+0x5e6>
40007d6e:	010e7713          	andi	a4,t3,16
40007d72:	000d2783          	lw	a5,0(s10)
40007d76:	0d11                	addi	s10,s10,4
40007d78:	e719                	bnez	a4,40007d86 <_vfiprintf_r+0xa5a>
40007d7a:	040e7713          	andi	a4,t3,64
40007d7e:	2c070e63          	beqz	a4,4000805a <_vfiprintf_r+0xd2e>
40007d82:	07c2                	slli	a5,a5,0x10
40007d84:	83c1                	srli	a5,a5,0x10
40007d86:	4281                	li	t0,0
40007d88:	bee5                	j	40007980 <_vfiprintf_r+0x654>
40007d8a:	4585                	li	a1,1
40007d8c:	4701                	li	a4,0
40007d8e:	8456                	mv	s0,s5
40007d90:	b099                	j	400075d6 <_vfiprintf_r+0x2aa>
40007d92:	1c078763          	beqz	a5,40007f60 <_vfiprintf_r+0xc34>
40007d96:	0090                	addi	a2,sp,64
40007d98:	85da                	mv	a1,s6
40007d9a:	8562                	mv	a0,s8
40007d9c:	d41a                	sw	t1,40(sp)
40007d9e:	d246                	sw	a7,36(sp)
40007da0:	ca72                	sw	t3,20(sp)
40007da2:	c816                	sw	t0,16(sp)
40007da4:	c67e                	sw	t6,12(sp)
40007da6:	ceeff0ef          	jal	ra,40007294 <__sprint_r.part.0>
40007daa:	f2051163          	bnez	a0,400074cc <_vfiprintf_r+0x1a0>
40007dae:	4716                	lw	a4,68(sp)
40007db0:	47a6                	lw	a5,72(sp)
40007db2:	5322                	lw	t1,40(sp)
40007db4:	5892                	lw	a7,36(sp)
40007db6:	4e52                	lw	t3,20(sp)
40007db8:	42c2                	lw	t0,16(sp)
40007dba:	4fb2                	lw	t6,12(sp)
40007dbc:	8456                	mv	s0,s5
40007dbe:	00170593          	addi	a1,a4,1
40007dc2:	fb0ff06f          	j	40007572 <_vfiprintf_r+0x246>
40007dc6:	ccccdeb7          	lui	t4,0xccccd
40007dca:	ccde8313          	addi	t1,t4,-819 # cccccccd <_bss_lma+0x4cccc22d>
40007dce:	4862                	lw	a6,24(sp)
40007dd0:	4008ff13          	andi	t5,a7,1024
40007dd4:	4601                	li	a2,0
40007dd6:	198c                	addi	a1,sp,240
40007dd8:	4e15                	li	t3,5
40007dda:	ccce8e93          	addi	t4,t4,-820
40007dde:	0ff00f93          	li	t6,255
40007de2:	a081                	j	40007e22 <_vfiprintf_r+0xaf6>
40007de4:	00f4b733          	sltu	a4,s1,a5
40007de8:	9726                	add	a4,a4,s1
40007dea:	03c77733          	remu	a4,a4,t3
40007dee:	40e78733          	sub	a4,a5,a4
40007df2:	00e7b5b3          	sltu	a1,a5,a4
40007df6:	40b285b3          	sub	a1,t0,a1
40007dfa:	03d703b3          	mul	t2,a4,t4
40007dfe:	026585b3          	mul	a1,a1,t1
40007e02:	02673533          	mulhu	a0,a4,t1
40007e06:	959e                	add	a1,a1,t2
40007e08:	02670733          	mul	a4,a4,t1
40007e0c:	95aa                	add	a1,a1,a0
40007e0e:	01f59513          	slli	a0,a1,0x1f
40007e12:	8185                	srli	a1,a1,0x1
40007e14:	8305                	srli	a4,a4,0x1
40007e16:	8f49                	or	a4,a4,a0
40007e18:	24028e63          	beqz	t0,40008074 <_vfiprintf_r+0xd48>
40007e1c:	82ae                	mv	t0,a1
40007e1e:	87ba                	mv	a5,a4
40007e20:	85b6                	mv	a1,a3
40007e22:	005784b3          	add	s1,a5,t0
40007e26:	00f4b733          	sltu	a4,s1,a5
40007e2a:	9726                	add	a4,a4,s1
40007e2c:	03c77733          	remu	a4,a4,t3
40007e30:	fff58693          	addi	a3,a1,-1
40007e34:	0605                	addi	a2,a2,1
40007e36:	40e78733          	sub	a4,a5,a4
40007e3a:	00e7b3b3          	sltu	t2,a5,a4
40007e3e:	407283b3          	sub	t2,t0,t2
40007e42:	02673533          	mulhu	a0,a4,t1
40007e46:	026383b3          	mul	t2,t2,t1
40007e4a:	02670733          	mul	a4,a4,t1
40007e4e:	93aa                	add	t2,t2,a0
40007e50:	03fe                	slli	t2,t2,0x1f
40007e52:	00175513          	srli	a0,a4,0x1
40007e56:	00a3e533          	or	a0,t2,a0
40007e5a:	00251713          	slli	a4,a0,0x2
40007e5e:	972a                	add	a4,a4,a0
40007e60:	0706                	slli	a4,a4,0x1
40007e62:	40e78733          	sub	a4,a5,a4
40007e66:	03070713          	addi	a4,a4,48
40007e6a:	fee58fa3          	sb	a4,-1(a1)
40007e6e:	f60f0be3          	beqz	t5,40007de4 <_vfiprintf_r+0xab8>
40007e72:	00084703          	lbu	a4,0(a6)
40007e76:	f6c717e3          	bne	a4,a2,40007de4 <_vfiprintf_r+0xab8>
40007e7a:	f7f605e3          	beq	a2,t6,40007de4 <_vfiprintf_r+0xab8>
40007e7e:	0e029e63          	bnez	t0,40007f7a <_vfiprintf_r+0xc4e>
40007e82:	4725                	li	a4,9
40007e84:	0ef76b63          	bltu	a4,a5,40007f7a <_vfiprintf_r+0xc4e>
40007e88:	199c                	addi	a5,sp,240
40007e8a:	40d78e33          	sub	t3,a5,a3
40007e8e:	cc42                	sw	a6,24(sp)
40007e90:	84b6                	mv	s1,a3
40007e92:	8372                	mv	t1,t3
40007e94:	93be58e3          	bge	t3,s11,400077c4 <_vfiprintf_r+0x498>
40007e98:	836e                	mv	t1,s11
40007e9a:	b22d                	j	400077c4 <_vfiprintf_r+0x498>
40007e9c:	4301                	li	t1,0
40007e9e:	1984                	addi	s1,sp,240
40007ea0:	b215                	j	400077c4 <_vfiprintf_r+0x498>
40007ea2:	0421                	addi	s0,s0,8
40007ea4:	00160593          	addi	a1,a2,1
40007ea8:	8732                	mv	a4,a2
40007eaa:	f34ff06f          	j	400075de <_vfiprintf_r+0x2b2>
40007eae:	000d2783          	lw	a5,0(s10)
40007eb2:	41f9d713          	srai	a4,s3,0x1f
40007eb6:	0d11                	addi	s10,s10,4
40007eb8:	0137a023          	sw	s3,0(a5)
40007ebc:	c3d8                	sw	a4,4(a5)
40007ebe:	d1aff06f          	j	400073d8 <_vfiprintf_r+0xac>
40007ec2:	4701                	li	a4,0
40007ec4:	4585                	li	a1,1
40007ec6:	8456                	mv	s0,s5
40007ec8:	f0eff06f          	j	400075d6 <_vfiprintf_r+0x2aa>
40007ecc:	836e                	mv	t1,s11
40007ece:	84ae                	mv	s1,a1
40007ed0:	b8d5                	j	400077c4 <_vfiprintf_r+0x498>
40007ed2:	8e46                	mv	t3,a7
40007ed4:	bc51                	j	40007968 <_vfiprintf_r+0x63c>
40007ed6:	800007b7          	lui	a5,0x80000
40007eda:	2a078793          	addi	a5,a5,672 # 800002a0 <_bss_lma+0xfffff800>
40007ede:	c43e                	sw	a5,8(sp)
40007ee0:	0208f793          	andi	a5,a7,32
40007ee4:	c7a1                	beqz	a5,40007f2c <_vfiprintf_r+0xc00>
40007ee6:	0d1d                	addi	s10,s10,7
40007ee8:	ff8d7d13          	andi	s10,s10,-8
40007eec:	000d2783          	lw	a5,0(s10)
40007ef0:	004d2603          	lw	a2,4(s10)
40007ef4:	0d21                	addi	s10,s10,8
40007ef6:	0018f713          	andi	a4,a7,1
40007efa:	cf01                	beqz	a4,40007f12 <_vfiprintf_r+0xbe6>
40007efc:	00c7e733          	or	a4,a5,a2
40007f00:	cb09                	beqz	a4,40007f12 <_vfiprintf_r+0xbe6>
40007f02:	03000713          	li	a4,48
40007f06:	02e10e23          	sb	a4,60(sp)
40007f0a:	02d10ea3          	sb	a3,61(sp)
40007f0e:	0028e893          	ori	a7,a7,2
40007f12:	bff8f893          	andi	a7,a7,-1025
40007f16:	be09                	j	40007a28 <_vfiprintf_r+0x6fc>
40007f18:	8746                	mv	a4,a7
40007f1a:	b2c5                	j	400078fa <_vfiprintf_r+0x5ce>
40007f1c:	800007b7          	lui	a5,0x80000
40007f20:	28c78793          	addi	a5,a5,652 # 8000028c <_bss_lma+0xfffff7ec>
40007f24:	c43e                	sw	a5,8(sp)
40007f26:	0208f793          	andi	a5,a7,32
40007f2a:	ffd5                	bnez	a5,40007ee6 <_vfiprintf_r+0xbba>
40007f2c:	0108f713          	andi	a4,a7,16
40007f30:	000d2783          	lw	a5,0(s10)
40007f34:	0d11                	addi	s10,s10,4
40007f36:	eb61                	bnez	a4,40008006 <_vfiprintf_r+0xcda>
40007f38:	0408f713          	andi	a4,a7,64
40007f3c:	c371                	beqz	a4,40008000 <_vfiprintf_r+0xcd4>
40007f3e:	07c2                	slli	a5,a5,0x10
40007f40:	83c1                	srli	a5,a5,0x10
40007f42:	4601                	li	a2,0
40007f44:	bf4d                	j	40007ef6 <_vfiprintf_r+0xbca>
40007f46:	8526                	mv	a0,s1
40007f48:	b14fa0ef          	jal	ra,4000225c <strlen>
40007f4c:	fff54313          	not	t1,a0
40007f50:	41f35313          	srai	t1,t1,0x1f
40007f54:	48b2                	lw	a7,12(sp)
40007f56:	8e2a                	mv	t3,a0
40007f58:	00657333          	and	t1,a0,t1
40007f5c:	4d81                	li	s11,0
40007f5e:	b09d                	j	400077c4 <_vfiprintf_r+0x498>
40007f60:	03b14703          	lbu	a4,59(sp)
40007f64:	10070e63          	beqz	a4,40008080 <_vfiprintf_r+0xd54>
40007f68:	03b10793          	addi	a5,sp,59
40007f6c:	c6be                	sw	a5,76(sp)
40007f6e:	4785                	li	a5,1
40007f70:	c8be                	sw	a5,80(sp)
40007f72:	4585                	li	a1,1
40007f74:	8456                	mv	s0,s5
40007f76:	e18ff06f          	j	4000758e <_vfiprintf_r+0x262>
40007f7a:	d23e                	sw	a5,36(sp)
40007f7c:	47f2                	lw	a5,28(sp)
40007f7e:	5582                	lw	a1,32(sp)
40007f80:	d416                	sw	t0,40(sp)
40007f82:	8e9d                	sub	a3,a3,a5
40007f84:	863e                	mv	a2,a5
40007f86:	8536                	mv	a0,a3
40007f88:	cc7a                	sw	t5,24(sp)
40007f8a:	ca46                	sw	a7,20(sp)
40007f8c:	c842                	sw	a6,16(sp)
40007f8e:	c636                	sw	a3,12(sp)
40007f90:	b85fe0ef          	jal	ra,40006b14 <strncpy>
40007f94:	5792                	lw	a5,36(sp)
40007f96:	4615                	li	a2,5
40007f98:	4842                	lw	a6,16(sp)
40007f9a:	00f4b733          	sltu	a4,s1,a5
40007f9e:	9726                	add	a4,a4,s1
40007fa0:	02c77733          	remu	a4,a4,a2
40007fa4:	00184583          	lbu	a1,1(a6)
40007fa8:	52a2                	lw	t0,40(sp)
40007faa:	ccccd3b7          	lui	t2,0xccccd
40007fae:	00b035b3          	snez	a1,a1
40007fb2:	982e                	add	a6,a6,a1
40007fb4:	ccd38513          	addi	a0,t2,-819 # cccccccd <_bss_lma+0x4cccc22d>
40007fb8:	ccc38393          	addi	t2,t2,-820
40007fbc:	46b2                	lw	a3,12(sp)
40007fbe:	48d2                	lw	a7,20(sp)
40007fc0:	4f62                	lw	t5,24(sp)
40007fc2:	4601                	li	a2,0
40007fc4:	4e15                	li	t3,5
40007fc6:	832a                	mv	t1,a0
40007fc8:	0ff00f93          	li	t6,255
40007fcc:	40e78733          	sub	a4,a5,a4
40007fd0:	00e7b5b3          	sltu	a1,a5,a4
40007fd4:	40b285b3          	sub	a1,t0,a1
40007fd8:	027703b3          	mul	t2,a4,t2
40007fdc:	02a585b3          	mul	a1,a1,a0
40007fe0:	02a732b3          	mulhu	t0,a4,a0
40007fe4:	959e                	add	a1,a1,t2
40007fe6:	02a707b3          	mul	a5,a4,a0
40007fea:	9596                	add	a1,a1,t0
40007fec:	01f59713          	slli	a4,a1,0x1f
40007ff0:	8185                	srli	a1,a1,0x1
40007ff2:	8385                	srli	a5,a5,0x1
40007ff4:	8f5d                	or	a4,a4,a5
40007ff6:	ccccd7b7          	lui	a5,0xccccd
40007ffa:	ccc78e93          	addi	t4,a5,-820 # cccccccc <_bss_lma+0x4cccc22c>
40007ffe:	bd39                	j	40007e1c <_vfiprintf_r+0xaf0>
40008000:	2008f713          	andi	a4,a7,512
40008004:	ef49                	bnez	a4,4000809e <_vfiprintf_r+0xd72>
40008006:	4601                	li	a2,0
40008008:	b5fd                	j	40007ef6 <_vfiprintf_r+0xbca>
4000800a:	88ba                	mv	a7,a4
4000800c:	4701                	li	a4,0
4000800e:	9a0700e3          	beqz	a4,400079ae <_vfiprintf_r+0x682>
40008012:	b11d                	j	40007c38 <_vfiprintf_r+0x90c>
40008014:	00194783          	lbu	a5,1(s2)
40008018:	2008e893          	ori	a7,a7,512
4000801c:	0905                	addi	s2,s2,1
4000801e:	c2aff06f          	j	40007448 <_vfiprintf_r+0x11c>
40008022:	00194783          	lbu	a5,1(s2)
40008026:	0208e893          	ori	a7,a7,32
4000802a:	0905                	addi	s2,s2,1
4000802c:	c1cff06f          	j	40007448 <_vfiprintf_r+0x11c>
40008030:	000d2783          	lw	a5,0(s10)
40008034:	0d11                	addi	s10,s10,4
40008036:	0137a023          	sw	s3,0(a5)
4000803a:	b9eff06f          	j	400073d8 <_vfiprintf_r+0xac>
4000803e:	4799                	li	a5,6
40008040:	8e6e                	mv	t3,s11
40008042:	03b7ed63          	bltu	a5,s11,4000807c <_vfiprintf_r+0xd50>
40008046:	800004b7          	lui	s1,0x80000
4000804a:	8372                	mv	t1,t3
4000804c:	2b448493          	addi	s1,s1,692 # 800002b4 <_bss_lma+0xfffff814>
40008050:	cfcff06f          	j	4000754c <_vfiprintf_r+0x220>
40008054:	4781                	li	a5,0
40008056:	4601                	li	a2,0
40008058:	b6c5                	j	40007c38 <_vfiprintf_r+0x90c>
4000805a:	200e7713          	andi	a4,t3,512
4000805e:	d20704e3          	beqz	a4,40007d86 <_vfiprintf_r+0xa5a>
40008062:	0ff7f793          	zext.b	a5,a5
40008066:	4281                	li	t0,0
40008068:	ba21                	j	40007980 <_vfiprintf_r+0x654>
4000806a:	4585                	li	a1,1
4000806c:	4701                	li	a4,0
4000806e:	8456                	mv	s0,s5
40008070:	d6eff06f          	j	400075de <_vfiprintf_r+0x2b2>
40008074:	4525                	li	a0,9
40008076:	daf563e3          	bltu	a0,a5,40007e1c <_vfiprintf_r+0xaf0>
4000807a:	b539                	j	40007e88 <_vfiprintf_r+0xb5c>
4000807c:	4e19                	li	t3,6
4000807e:	b7e1                	j	40008046 <_vfiprintf_r+0xd1a>
40008080:	4585                	li	a1,1
40008082:	8456                	mv	s0,s5
40008084:	d10ff06f          	j	40007594 <_vfiprintf_r+0x268>
40008088:	0ff7f793          	zext.b	a5,a5
4000808c:	4601                	li	a2,0
4000808e:	b051                	j	40007912 <_vfiprintf_r+0x5e6>
40008090:	07e2                	slli	a5,a5,0x18
40008092:	87e1                	srai	a5,a5,0x18
40008094:	41f7d293          	srai	t0,a5,0x1f
40008098:	8716                	mv	a4,t0
4000809a:	decff06f          	j	40007686 <_vfiprintf_r+0x35a>
4000809e:	0ff7f793          	zext.b	a5,a5
400080a2:	4601                	li	a2,0
400080a4:	bd89                	j	40007ef6 <_vfiprintf_r+0xbca>
400080a6:	000d2783          	lw	a5,0(s10)
400080aa:	0d11                	addi	s10,s10,4
400080ac:	01379023          	sh	s3,0(a5)
400080b0:	b28ff06f          	j	400073d8 <_vfiprintf_r+0xac>
400080b4:	03000793          	li	a5,48
400080b8:	efaff06f          	j	400077b2 <_vfiprintf_r+0x486>
400080bc:	836e                	mv	t1,s11
400080be:	8e6e                	mv	t3,s11
400080c0:	4d81                	li	s11,0
400080c2:	f02ff06f          	j	400077c4 <_vfiprintf_r+0x498>
400080c6:	80001eb7          	lui	t4,0x80001
400080ca:	8532                	mv	a0,a2
400080cc:	a90e8e93          	addi	t4,t4,-1392 # 80000a90 <_bss_lma+0xfffffff0>
400080d0:	b929                	j	40007cea <_vfiprintf_r+0x9be>
400080d2:	80001eb7          	lui	t4,0x80001
400080d6:	00168613          	addi	a2,a3,1
400080da:	a90e8e93          	addi	t4,t4,-1392 # 80000a90 <_bss_lma+0xfffffff0>
400080de:	e54ff06f          	j	40007732 <_vfiprintf_r+0x406>
400080e2:	5d7d                	li	s10,-1
400080e4:	bf6ff06f          	j	400074da <_vfiprintf_r+0x1ae>
400080e8:	80001f37          	lui	t5,0x80001
400080ec:	862e                	mv	a2,a1
400080ee:	a80f0f13          	addi	t5,t5,-1408 # 80000a80 <_bss_lma+0xffffffe0>
400080f2:	bc29                	j	40007b0c <_vfiprintf_r+0x7e0>
400080f4:	000d2d83          	lw	s11,0(s10)
400080f8:	0d11                	addi	s10,s10,4
400080fa:	000dd363          	bgez	s11,40008100 <_vfiprintf_r+0xdd4>
400080fe:	5dfd                	li	s11,-1
40008100:	00194783          	lbu	a5,1(s2)
40008104:	893a                	mv	s2,a4
40008106:	b42ff06f          	j	40007448 <_vfiprintf_r+0x11c>

4000810a <__sbprintf>:
4000810a:	00c59783          	lh	a5,12(a1)
4000810e:	00e5d703          	lhu	a4,14(a1)
40008112:	0645a303          	lw	t1,100(a1)
40008116:	9bf5                	andi	a5,a5,-3
40008118:	07c2                	slli	a5,a5,0x10
4000811a:	01c5a883          	lw	a7,28(a1)
4000811e:	0245a803          	lw	a6,36(a1)
40008122:	0742                	slli	a4,a4,0x10
40008124:	83c1                	srli	a5,a5,0x10
40008126:	b8010113          	addi	sp,sp,-1152
4000812a:	8fd9                	or	a5,a5,a4
4000812c:	46812c23          	sw	s0,1144(sp)
40008130:	40000713          	li	a4,1024
40008134:	ca3e                	sw	a5,20(sp)
40008136:	842e                	mv	s0,a1
40008138:	189c                	addi	a5,sp,112
4000813a:	002c                	addi	a1,sp,8
4000813c:	46912a23          	sw	s1,1140(sp)
40008140:	47212823          	sw	s2,1136(sp)
40008144:	46112e23          	sw	ra,1148(sp)
40008148:	892a                	mv	s2,a0
4000814a:	d69a                	sw	t1,108(sp)
4000814c:	d246                	sw	a7,36(sp)
4000814e:	d642                	sw	a6,44(sp)
40008150:	c43e                	sw	a5,8(sp)
40008152:	cc3e                	sw	a5,24(sp)
40008154:	c83a                	sw	a4,16(sp)
40008156:	ce3a                	sw	a4,28(sp)
40008158:	d002                	sw	zero,32(sp)
4000815a:	9d2ff0ef          	jal	ra,4000732c <_vfiprintf_r>
4000815e:	84aa                	mv	s1,a0
40008160:	02055963          	bgez	a0,40008192 <__sbprintf+0x88>
40008164:	01415783          	lhu	a5,20(sp)
40008168:	0407f793          	andi	a5,a5,64
4000816c:	c799                	beqz	a5,4000817a <__sbprintf+0x70>
4000816e:	00c45783          	lhu	a5,12(s0)
40008172:	0407e793          	ori	a5,a5,64
40008176:	00f41623          	sh	a5,12(s0)
4000817a:	47c12083          	lw	ra,1148(sp)
4000817e:	47812403          	lw	s0,1144(sp)
40008182:	47012903          	lw	s2,1136(sp)
40008186:	8526                	mv	a0,s1
40008188:	47412483          	lw	s1,1140(sp)
4000818c:	48010113          	addi	sp,sp,1152
40008190:	8082                	ret
40008192:	002c                	addi	a1,sp,8
40008194:	854a                	mv	a0,s2
40008196:	2c95                	jal	4000840a <_fflush_r>
40008198:	d571                	beqz	a0,40008164 <__sbprintf+0x5a>
4000819a:	54fd                	li	s1,-1
4000819c:	b7e1                	j	40008164 <__sbprintf+0x5a>

4000819e <__swsetup_r>:
4000819e:	80c1a783          	lw	a5,-2036(gp) # 4000c1b4 <_impure_ptr>
400081a2:	1141                	addi	sp,sp,-16
400081a4:	c422                	sw	s0,8(sp)
400081a6:	c226                	sw	s1,4(sp)
400081a8:	c606                	sw	ra,12(sp)
400081aa:	84aa                	mv	s1,a0
400081ac:	842e                	mv	s0,a1
400081ae:	c399                	beqz	a5,400081b4 <__swsetup_r+0x16>
400081b0:	5f98                	lw	a4,56(a5)
400081b2:	cb29                	beqz	a4,40008204 <__swsetup_r+0x66>
400081b4:	00c41783          	lh	a5,12(s0)
400081b8:	0087f713          	andi	a4,a5,8
400081bc:	cb39                	beqz	a4,40008212 <__swsetup_r+0x74>
400081be:	4818                	lw	a4,16(s0)
400081c0:	c72d                	beqz	a4,4000822a <__swsetup_r+0x8c>
400081c2:	0017f693          	andi	a3,a5,1
400081c6:	ce91                	beqz	a3,400081e2 <__swsetup_r+0x44>
400081c8:	4854                	lw	a3,20(s0)
400081ca:	00042423          	sw	zero,8(s0)
400081ce:	4501                	li	a0,0
400081d0:	40d006b3          	neg	a3,a3
400081d4:	cc14                	sw	a3,24(s0)
400081d6:	cf11                	beqz	a4,400081f2 <__swsetup_r+0x54>
400081d8:	40b2                	lw	ra,12(sp)
400081da:	4422                	lw	s0,8(sp)
400081dc:	4492                	lw	s1,4(sp)
400081de:	0141                	addi	sp,sp,16
400081e0:	8082                	ret
400081e2:	0027f693          	andi	a3,a5,2
400081e6:	4601                	li	a2,0
400081e8:	e291                	bnez	a3,400081ec <__swsetup_r+0x4e>
400081ea:	4850                	lw	a2,20(s0)
400081ec:	c410                	sw	a2,8(s0)
400081ee:	4501                	li	a0,0
400081f0:	f765                	bnez	a4,400081d8 <__swsetup_r+0x3a>
400081f2:	0807f713          	andi	a4,a5,128
400081f6:	d36d                	beqz	a4,400081d8 <__swsetup_r+0x3a>
400081f8:	0407e793          	ori	a5,a5,64
400081fc:	00f41623          	sh	a5,12(s0)
40008200:	557d                	li	a0,-1
40008202:	bfd9                	j	400081d8 <__swsetup_r+0x3a>
40008204:	853e                	mv	a0,a5
40008206:	2ea5                	jal	4000857e <__sinit>
40008208:	00c41783          	lh	a5,12(s0)
4000820c:	0087f713          	andi	a4,a5,8
40008210:	f75d                	bnez	a4,400081be <__swsetup_r+0x20>
40008212:	0107f713          	andi	a4,a5,16
40008216:	cf21                	beqz	a4,4000826e <__swsetup_r+0xd0>
40008218:	0047f713          	andi	a4,a5,4
4000821c:	e70d                	bnez	a4,40008246 <__swsetup_r+0xa8>
4000821e:	4818                	lw	a4,16(s0)
40008220:	0087e793          	ori	a5,a5,8
40008224:	00f41623          	sh	a5,12(s0)
40008228:	ff49                	bnez	a4,400081c2 <__swsetup_r+0x24>
4000822a:	2807f693          	andi	a3,a5,640
4000822e:	20000613          	li	a2,512
40008232:	f8c688e3          	beq	a3,a2,400081c2 <__swsetup_r+0x24>
40008236:	85a2                	mv	a1,s0
40008238:	8526                	mv	a0,s1
4000823a:	7a6000ef          	jal	ra,400089e0 <__smakebuf_r>
4000823e:	00c41783          	lh	a5,12(s0)
40008242:	4818                	lw	a4,16(s0)
40008244:	bfbd                	j	400081c2 <__swsetup_r+0x24>
40008246:	580c                	lw	a1,48(s0)
40008248:	cd81                	beqz	a1,40008260 <__swsetup_r+0xc2>
4000824a:	04040713          	addi	a4,s0,64
4000824e:	00e58763          	beq	a1,a4,4000825c <__swsetup_r+0xbe>
40008252:	8526                	mv	a0,s1
40008254:	d79fb0ef          	jal	ra,40003fcc <_free_r>
40008258:	00c41783          	lh	a5,12(s0)
4000825c:	02042823          	sw	zero,48(s0)
40008260:	4818                	lw	a4,16(s0)
40008262:	fdb7f793          	andi	a5,a5,-37
40008266:	00042223          	sw	zero,4(s0)
4000826a:	c018                	sw	a4,0(s0)
4000826c:	bf55                	j	40008220 <__swsetup_r+0x82>
4000826e:	4725                	li	a4,9
40008270:	c098                	sw	a4,0(s1)
40008272:	0407e793          	ori	a5,a5,64
40008276:	b759                	j	400081fc <__swsetup_r+0x5e>

40008278 <abort>:
40008278:	1141                	addi	sp,sp,-16
4000827a:	4519                	li	a0,6
4000827c:	c606                	sw	ra,12(sp)
4000827e:	06f000ef          	jal	ra,40008aec <raise>
40008282:	4505                	li	a0,1
40008284:	563000ef          	jal	ra,40008fe6 <_exit>

40008288 <__sflush_r>:
40008288:	00c59783          	lh	a5,12(a1)
4000828c:	1101                	addi	sp,sp,-32
4000828e:	cc22                	sw	s0,24(sp)
40008290:	c64e                	sw	s3,12(sp)
40008292:	ce06                	sw	ra,28(sp)
40008294:	ca26                	sw	s1,20(sp)
40008296:	c84a                	sw	s2,16(sp)
40008298:	0087f713          	andi	a4,a5,8
4000829c:	842e                	mv	s0,a1
4000829e:	89aa                	mv	s3,a0
400082a0:	e369                	bnez	a4,40008362 <__sflush_r+0xda>
400082a2:	6705                	lui	a4,0x1
400082a4:	80070713          	addi	a4,a4,-2048 # 800 <__stack_size+0x6d4>
400082a8:	41d4                	lw	a3,4(a1)
400082aa:	8f5d                	or	a4,a4,a5
400082ac:	00e59623          	sh	a4,12(a1)
400082b0:	10d05463          	blez	a3,400083b8 <__sflush_r+0x130>
400082b4:	02842803          	lw	a6,40(s0)
400082b8:	08080d63          	beqz	a6,40008352 <__sflush_r+0xca>
400082bc:	83b1                	srli	a5,a5,0xc
400082be:	0009a483          	lw	s1,0(s3)
400082c2:	8b85                	andi	a5,a5,1
400082c4:	0009a023          	sw	zero,0(s3)
400082c8:	4c4c                	lw	a1,28(s0)
400082ca:	efe5                	bnez	a5,400083c2 <__sflush_r+0x13a>
400082cc:	4601                	li	a2,0
400082ce:	4685                	li	a3,1
400082d0:	854e                	mv	a0,s3
400082d2:	9802                	jalr	a6
400082d4:	57fd                	li	a5,-1
400082d6:	862a                	mv	a2,a0
400082d8:	10f50863          	beq	a0,a5,400083e8 <__sflush_r+0x160>
400082dc:	00c41703          	lh	a4,12(s0)
400082e0:	02842803          	lw	a6,40(s0)
400082e4:	4c4c                	lw	a1,28(s0)
400082e6:	8b11                	andi	a4,a4,4
400082e8:	c719                	beqz	a4,400082f6 <__sflush_r+0x6e>
400082ea:	4058                	lw	a4,4(s0)
400082ec:	581c                	lw	a5,48(s0)
400082ee:	8e19                	sub	a2,a2,a4
400082f0:	c399                	beqz	a5,400082f6 <__sflush_r+0x6e>
400082f2:	5c5c                	lw	a5,60(s0)
400082f4:	8e1d                	sub	a2,a2,a5
400082f6:	4681                	li	a3,0
400082f8:	854e                	mv	a0,s3
400082fa:	9802                	jalr	a6
400082fc:	57fd                	li	a5,-1
400082fe:	0cf51463          	bne	a0,a5,400083c6 <__sflush_r+0x13e>
40008302:	0009a683          	lw	a3,0(s3)
40008306:	47f5                	li	a5,29
40008308:	08d7ea63          	bltu	a5,a3,4000839c <__sflush_r+0x114>
4000830c:	dfc00737          	lui	a4,0xdfc00
40008310:	1779                	addi	a4,a4,-2 # dfbffffe <_bss_lma+0x5fbff55e>
40008312:	40d75733          	sra	a4,a4,a3
40008316:	8b05                	andi	a4,a4,1
40008318:	00c41783          	lh	a5,12(s0)
4000831c:	e351                	bnez	a4,400083a0 <__sflush_r+0x118>
4000831e:	4810                	lw	a2,16(s0)
40008320:	777d                	lui	a4,0xfffff
40008322:	7ff70713          	addi	a4,a4,2047 # fffff7ff <_bss_lma+0x7fffed5f>
40008326:	8f7d                	and	a4,a4,a5
40008328:	83b1                	srli	a5,a5,0xc
4000832a:	00e41623          	sh	a4,12(s0)
4000832e:	00042223          	sw	zero,4(s0)
40008332:	c010                	sw	a2,0(s0)
40008334:	8b85                	andi	a5,a5,1
40008336:	e7f9                	bnez	a5,40008404 <__sflush_r+0x17c>
40008338:	580c                	lw	a1,48(s0)
4000833a:	0099a023          	sw	s1,0(s3)
4000833e:	c991                	beqz	a1,40008352 <__sflush_r+0xca>
40008340:	04040793          	addi	a5,s0,64
40008344:	00f58563          	beq	a1,a5,4000834e <__sflush_r+0xc6>
40008348:	854e                	mv	a0,s3
4000834a:	c83fb0ef          	jal	ra,40003fcc <_free_r>
4000834e:	02042823          	sw	zero,48(s0)
40008352:	4501                	li	a0,0
40008354:	40f2                	lw	ra,28(sp)
40008356:	4462                	lw	s0,24(sp)
40008358:	44d2                	lw	s1,20(sp)
4000835a:	4942                	lw	s2,16(sp)
4000835c:	49b2                	lw	s3,12(sp)
4000835e:	6105                	addi	sp,sp,32
40008360:	8082                	ret
40008362:	0105a903          	lw	s2,16(a1)
40008366:	fe0906e3          	beqz	s2,40008352 <__sflush_r+0xca>
4000836a:	4184                	lw	s1,0(a1)
4000836c:	8b8d                	andi	a5,a5,3
4000836e:	0125a023          	sw	s2,0(a1)
40008372:	412484b3          	sub	s1,s1,s2
40008376:	4701                	li	a4,0
40008378:	e391                	bnez	a5,4000837c <__sflush_r+0xf4>
4000837a:	49d8                	lw	a4,20(a1)
4000837c:	c418                	sw	a4,8(s0)
4000837e:	00904663          	bgtz	s1,4000838a <__sflush_r+0x102>
40008382:	bfc1                	j	40008352 <__sflush_r+0xca>
40008384:	992a                	add	s2,s2,a0
40008386:	fc9056e3          	blez	s1,40008352 <__sflush_r+0xca>
4000838a:	505c                	lw	a5,36(s0)
4000838c:	4c4c                	lw	a1,28(s0)
4000838e:	86a6                	mv	a3,s1
40008390:	864a                	mv	a2,s2
40008392:	854e                	mv	a0,s3
40008394:	9782                	jalr	a5
40008396:	8c89                	sub	s1,s1,a0
40008398:	fea046e3          	bgtz	a0,40008384 <__sflush_r+0xfc>
4000839c:	00c41783          	lh	a5,12(s0)
400083a0:	0407e793          	ori	a5,a5,64
400083a4:	40f2                	lw	ra,28(sp)
400083a6:	00f41623          	sh	a5,12(s0)
400083aa:	4462                	lw	s0,24(sp)
400083ac:	44d2                	lw	s1,20(sp)
400083ae:	4942                	lw	s2,16(sp)
400083b0:	49b2                	lw	s3,12(sp)
400083b2:	557d                	li	a0,-1
400083b4:	6105                	addi	sp,sp,32
400083b6:	8082                	ret
400083b8:	5dd4                	lw	a3,60(a1)
400083ba:	eed04de3          	bgtz	a3,400082b4 <__sflush_r+0x2c>
400083be:	4501                	li	a0,0
400083c0:	bf51                	j	40008354 <__sflush_r+0xcc>
400083c2:	4830                	lw	a2,80(s0)
400083c4:	b70d                	j	400082e6 <__sflush_r+0x5e>
400083c6:	00c41783          	lh	a5,12(s0)
400083ca:	4814                	lw	a3,16(s0)
400083cc:	777d                	lui	a4,0xfffff
400083ce:	7ff70713          	addi	a4,a4,2047 # fffff7ff <_bss_lma+0x7fffed5f>
400083d2:	8f7d                	and	a4,a4,a5
400083d4:	83b1                	srli	a5,a5,0xc
400083d6:	00e41623          	sh	a4,12(s0)
400083da:	00042223          	sw	zero,4(s0)
400083de:	c014                	sw	a3,0(s0)
400083e0:	8b85                	andi	a5,a5,1
400083e2:	dbb9                	beqz	a5,40008338 <__sflush_r+0xb0>
400083e4:	c828                	sw	a0,80(s0)
400083e6:	bf89                	j	40008338 <__sflush_r+0xb0>
400083e8:	0009a783          	lw	a5,0(s3)
400083ec:	ee0788e3          	beqz	a5,400082dc <__sflush_r+0x54>
400083f0:	4775                	li	a4,29
400083f2:	00e78563          	beq	a5,a4,400083fc <__sflush_r+0x174>
400083f6:	4759                	li	a4,22
400083f8:	fae792e3          	bne	a5,a4,4000839c <__sflush_r+0x114>
400083fc:	0099a023          	sw	s1,0(s3)
40008400:	4501                	li	a0,0
40008402:	bf89                	j	40008354 <__sflush_r+0xcc>
40008404:	fa95                	bnez	a3,40008338 <__sflush_r+0xb0>
40008406:	c828                	sw	a0,80(s0)
40008408:	bf05                	j	40008338 <__sflush_r+0xb0>

4000840a <_fflush_r>:
4000840a:	1101                	addi	sp,sp,-32
4000840c:	cc22                	sw	s0,24(sp)
4000840e:	ce06                	sw	ra,28(sp)
40008410:	842a                	mv	s0,a0
40008412:	c119                	beqz	a0,40008418 <_fflush_r+0xe>
40008414:	5d1c                	lw	a5,56(a0)
40008416:	cb89                	beqz	a5,40008428 <_fflush_r+0x1e>
40008418:	00c59783          	lh	a5,12(a1)
4000841c:	ef81                	bnez	a5,40008434 <_fflush_r+0x2a>
4000841e:	40f2                	lw	ra,28(sp)
40008420:	4462                	lw	s0,24(sp)
40008422:	4501                	li	a0,0
40008424:	6105                	addi	sp,sp,32
40008426:	8082                	ret
40008428:	c62e                	sw	a1,12(sp)
4000842a:	2a91                	jal	4000857e <__sinit>
4000842c:	45b2                	lw	a1,12(sp)
4000842e:	00c59783          	lh	a5,12(a1)
40008432:	d7f5                	beqz	a5,4000841e <_fflush_r+0x14>
40008434:	8522                	mv	a0,s0
40008436:	4462                	lw	s0,24(sp)
40008438:	40f2                	lw	ra,28(sp)
4000843a:	6105                	addi	sp,sp,32
4000843c:	e4dff06f          	j	40008288 <__sflush_r>

40008440 <_cleanup_r>:
40008440:	400095b7          	lui	a1,0x40009
40008444:	e1c58593          	addi	a1,a1,-484 # 40008e1c <_fclose_r>
40008448:	a315                	j	4000896c <_fwalk_reent>

4000844a <__sinit.part.0>:
4000844a:	1101                	addi	sp,sp,-32
4000844c:	400087b7          	lui	a5,0x40008
40008450:	ce06                	sw	ra,28(sp)
40008452:	cc22                	sw	s0,24(sp)
40008454:	ca26                	sw	s1,20(sp)
40008456:	c84a                	sw	s2,16(sp)
40008458:	c64e                	sw	s3,12(sp)
4000845a:	c452                	sw	s4,8(sp)
4000845c:	c256                	sw	s5,4(sp)
4000845e:	c05a                	sw	s6,0(sp)
40008460:	4140                	lw	s0,4(a0)
40008462:	44078793          	addi	a5,a5,1088 # 40008440 <_cleanup_r>
40008466:	dd5c                	sw	a5,60(a0)
40008468:	2ec50713          	addi	a4,a0,748
4000846c:	478d                	li	a5,3
4000846e:	2ee52423          	sw	a4,744(a0)
40008472:	2ef52223          	sw	a5,740(a0)
40008476:	2e052023          	sw	zero,736(a0)
4000847a:	4791                	li	a5,4
4000847c:	892a                	mv	s2,a0
4000847e:	c45c                	sw	a5,12(s0)
40008480:	4621                	li	a2,8
40008482:	4581                	li	a1,0
40008484:	00042023          	sw	zero,0(s0)
40008488:	00042223          	sw	zero,4(s0)
4000848c:	00042423          	sw	zero,8(s0)
40008490:	06042223          	sw	zero,100(s0)
40008494:	00042823          	sw	zero,16(s0)
40008498:	00042a23          	sw	zero,20(s0)
4000849c:	00042c23          	sw	zero,24(s0)
400084a0:	05c40513          	addi	a0,s0,92
400084a4:	cc9f90ef          	jal	ra,4000216c <memset>
400084a8:	40009b37          	lui	s6,0x40009
400084ac:	00892483          	lw	s1,8(s2)
400084b0:	40009ab7          	lui	s5,0x40009
400084b4:	40009a37          	lui	s4,0x40009
400084b8:	400099b7          	lui	s3,0x40009
400084bc:	b98b0b13          	addi	s6,s6,-1128 # 40008b98 <__sread>
400084c0:	bcea8a93          	addi	s5,s5,-1074 # 40008bce <__swrite>
400084c4:	c1ea0a13          	addi	s4,s4,-994 # 40008c1e <__sseek>
400084c8:	c6698993          	addi	s3,s3,-922 # 40008c66 <__sclose>
400084cc:	67c1                	lui	a5,0x10
400084ce:	03642023          	sw	s6,32(s0)
400084d2:	03542223          	sw	s5,36(s0)
400084d6:	03442423          	sw	s4,40(s0)
400084da:	03342623          	sw	s3,44(s0)
400084de:	cc40                	sw	s0,28(s0)
400084e0:	07a5                	addi	a5,a5,9 # 10009 <__stack_size+0xfedd>
400084e2:	c4dc                	sw	a5,12(s1)
400084e4:	4621                	li	a2,8
400084e6:	4581                	li	a1,0
400084e8:	0004a023          	sw	zero,0(s1)
400084ec:	0004a223          	sw	zero,4(s1)
400084f0:	0004a423          	sw	zero,8(s1)
400084f4:	0604a223          	sw	zero,100(s1)
400084f8:	0004a823          	sw	zero,16(s1)
400084fc:	0004aa23          	sw	zero,20(s1)
40008500:	0004ac23          	sw	zero,24(s1)
40008504:	05c48513          	addi	a0,s1,92
40008508:	c65f90ef          	jal	ra,4000216c <memset>
4000850c:	00c92403          	lw	s0,12(s2)
40008510:	000207b7          	lui	a5,0x20
40008514:	0364a023          	sw	s6,32(s1)
40008518:	0354a223          	sw	s5,36(s1)
4000851c:	0344a423          	sw	s4,40(s1)
40008520:	0334a623          	sw	s3,44(s1)
40008524:	ccc4                	sw	s1,28(s1)
40008526:	07c9                	addi	a5,a5,18 # 20012 <__stack_size+0x1fee6>
40008528:	c45c                	sw	a5,12(s0)
4000852a:	00042023          	sw	zero,0(s0)
4000852e:	00042223          	sw	zero,4(s0)
40008532:	00042423          	sw	zero,8(s0)
40008536:	06042223          	sw	zero,100(s0)
4000853a:	00042823          	sw	zero,16(s0)
4000853e:	00042a23          	sw	zero,20(s0)
40008542:	00042c23          	sw	zero,24(s0)
40008546:	05c40513          	addi	a0,s0,92
4000854a:	4621                	li	a2,8
4000854c:	4581                	li	a1,0
4000854e:	c1ff90ef          	jal	ra,4000216c <memset>
40008552:	40f2                	lw	ra,28(sp)
40008554:	03642023          	sw	s6,32(s0)
40008558:	03542223          	sw	s5,36(s0)
4000855c:	03442423          	sw	s4,40(s0)
40008560:	03342623          	sw	s3,44(s0)
40008564:	cc40                	sw	s0,28(s0)
40008566:	4462                	lw	s0,24(sp)
40008568:	4785                	li	a5,1
4000856a:	02f92c23          	sw	a5,56(s2)
4000856e:	44d2                	lw	s1,20(sp)
40008570:	4942                	lw	s2,16(sp)
40008572:	49b2                	lw	s3,12(sp)
40008574:	4a22                	lw	s4,8(sp)
40008576:	4a92                	lw	s5,4(sp)
40008578:	4b02                	lw	s6,0(sp)
4000857a:	6105                	addi	sp,sp,32
4000857c:	8082                	ret

4000857e <__sinit>:
4000857e:	5d1c                	lw	a5,56(a0)
40008580:	c391                	beqz	a5,40008584 <__sinit+0x6>
40008582:	8082                	ret
40008584:	ec7ff06f          	j	4000844a <__sinit.part.0>

40008588 <__sfp_lock_acquire>:
40008588:	8082                	ret

4000858a <__sfp_lock_release>:
4000858a:	8082                	ret

4000858c <__fputwc>:
4000858c:	1101                	addi	sp,sp,-32
4000858e:	cc22                	sw	s0,24(sp)
40008590:	ca26                	sw	s1,20(sp)
40008592:	c84a                	sw	s2,16(sp)
40008594:	ce06                	sw	ra,28(sp)
40008596:	892a                	mv	s2,a0
40008598:	84ae                	mv	s1,a1
4000859a:	8432                	mv	s0,a2
4000859c:	d63fd0ef          	jal	ra,400062fe <__locale_mb_cur_max>
400085a0:	4785                	li	a5,1
400085a2:	00f51b63          	bne	a0,a5,400085b8 <__fputwc+0x2c>
400085a6:	fff48793          	addi	a5,s1,-1
400085aa:	0fe00713          	li	a4,254
400085ae:	00f76563          	bltu	a4,a5,400085b8 <__fputwc+0x2c>
400085b2:	00910623          	sb	s1,12(sp)
400085b6:	a821                	j	400085ce <__fputwc+0x42>
400085b8:	05c40693          	addi	a3,s0,92
400085bc:	8626                	mv	a2,s1
400085be:	006c                	addi	a1,sp,12
400085c0:	854a                	mv	a0,s2
400085c2:	79c000ef          	jal	ra,40008d5e <_wcrtomb_r>
400085c6:	57fd                	li	a5,-1
400085c8:	04f50a63          	beq	a0,a5,4000861c <__fputwc+0x90>
400085cc:	c505                	beqz	a0,400085f4 <__fputwc+0x68>
400085ce:	441c                	lw	a5,8(s0)
400085d0:	00c14583          	lbu	a1,12(sp)
400085d4:	17fd                	addi	a5,a5,-1
400085d6:	c41c                	sw	a5,8(s0)
400085d8:	0007d863          	bgez	a5,400085e8 <__fputwc+0x5c>
400085dc:	4c18                	lw	a4,24(s0)
400085de:	02e7c263          	blt	a5,a4,40008602 <__fputwc+0x76>
400085e2:	47a9                	li	a5,10
400085e4:	00f58f63          	beq	a1,a5,40008602 <__fputwc+0x76>
400085e8:	401c                	lw	a5,0(s0)
400085ea:	00178713          	addi	a4,a5,1
400085ee:	c018                	sw	a4,0(s0)
400085f0:	00b78023          	sb	a1,0(a5)
400085f4:	40f2                	lw	ra,28(sp)
400085f6:	4462                	lw	s0,24(sp)
400085f8:	4942                	lw	s2,16(sp)
400085fa:	8526                	mv	a0,s1
400085fc:	44d2                	lw	s1,20(sp)
400085fe:	6105                	addi	sp,sp,32
40008600:	8082                	ret
40008602:	8622                	mv	a2,s0
40008604:	854a                	mv	a0,s2
40008606:	259d                	jal	40008c6c <__swbuf_r>
40008608:	57fd                	li	a5,-1
4000860a:	fef515e3          	bne	a0,a5,400085f4 <__fputwc+0x68>
4000860e:	557d                	li	a0,-1
40008610:	40f2                	lw	ra,28(sp)
40008612:	4462                	lw	s0,24(sp)
40008614:	44d2                	lw	s1,20(sp)
40008616:	4942                	lw	s2,16(sp)
40008618:	6105                	addi	sp,sp,32
4000861a:	8082                	ret
4000861c:	00c45783          	lhu	a5,12(s0)
40008620:	557d                	li	a0,-1
40008622:	0407e793          	ori	a5,a5,64
40008626:	00f41623          	sh	a5,12(s0)
4000862a:	b7dd                	j	40008610 <__fputwc+0x84>

4000862c <_fputwc_r>:
4000862c:	00c61783          	lh	a5,12(a2)
40008630:	01279713          	slli	a4,a5,0x12
40008634:	00074a63          	bltz	a4,40008648 <_fputwc_r+0x1c>
40008638:	5278                	lw	a4,100(a2)
4000863a:	6689                	lui	a3,0x2
4000863c:	8fd5                	or	a5,a5,a3
4000863e:	6689                	lui	a3,0x2
40008640:	8f55                	or	a4,a4,a3
40008642:	00f61623          	sh	a5,12(a2)
40008646:	d278                	sw	a4,100(a2)
40008648:	f45ff06f          	j	4000858c <__fputwc>

4000864c <__sfvwrite_r>:
4000864c:	461c                	lw	a5,8(a2)
4000864e:	22078063          	beqz	a5,4000886e <__sfvwrite_r+0x222>
40008652:	00c59683          	lh	a3,12(a1)
40008656:	7179                	addi	sp,sp,-48
40008658:	d422                	sw	s0,40(sp)
4000865a:	cc52                	sw	s4,24(sp)
4000865c:	c85a                	sw	s6,16(sp)
4000865e:	d606                	sw	ra,44(sp)
40008660:	d226                	sw	s1,36(sp)
40008662:	d04a                	sw	s2,32(sp)
40008664:	ce4e                	sw	s3,28(sp)
40008666:	ca56                	sw	s5,20(sp)
40008668:	c65e                	sw	s7,12(sp)
4000866a:	c462                	sw	s8,8(sp)
4000866c:	c266                	sw	s9,4(sp)
4000866e:	0086f793          	andi	a5,a3,8
40008672:	8b32                	mv	s6,a2
40008674:	8a2a                	mv	s4,a0
40008676:	842e                	mv	s0,a1
40008678:	c3ad                	beqz	a5,400086da <__sfvwrite_r+0x8e>
4000867a:	499c                	lw	a5,16(a1)
4000867c:	cfb9                	beqz	a5,400086da <__sfvwrite_r+0x8e>
4000867e:	0026f793          	andi	a5,a3,2
40008682:	000b2483          	lw	s1,0(s6)
40008686:	c7bd                	beqz	a5,400086f4 <__sfvwrite_r+0xa8>
40008688:	505c                	lw	a5,36(s0)
4000868a:	4c4c                	lw	a1,28(s0)
4000868c:	80000ab7          	lui	s5,0x80000
40008690:	4981                	li	s3,0
40008692:	4901                	li	s2,0
40008694:	c00aca93          	xori	s5,s5,-1024
40008698:	864e                	mv	a2,s3
4000869a:	8552                	mv	a0,s4
4000869c:	02090963          	beqz	s2,400086ce <__sfvwrite_r+0x82>
400086a0:	86ca                	mv	a3,s2
400086a2:	012af363          	bgeu	s5,s2,400086a8 <__sfvwrite_r+0x5c>
400086a6:	86d6                	mv	a3,s5
400086a8:	9782                	jalr	a5
400086aa:	1aa05a63          	blez	a0,4000885e <__sfvwrite_r+0x212>
400086ae:	008b2783          	lw	a5,8(s6)
400086b2:	99aa                	add	s3,s3,a0
400086b4:	40a90933          	sub	s2,s2,a0
400086b8:	8f89                	sub	a5,a5,a0
400086ba:	00fb2423          	sw	a5,8(s6)
400086be:	16078d63          	beqz	a5,40008838 <__sfvwrite_r+0x1ec>
400086c2:	505c                	lw	a5,36(s0)
400086c4:	4c4c                	lw	a1,28(s0)
400086c6:	864e                	mv	a2,s3
400086c8:	8552                	mv	a0,s4
400086ca:	fc091be3          	bnez	s2,400086a0 <__sfvwrite_r+0x54>
400086ce:	0004a983          	lw	s3,0(s1)
400086d2:	0044a903          	lw	s2,4(s1)
400086d6:	04a1                	addi	s1,s1,8
400086d8:	b7c1                	j	40008698 <__sfvwrite_r+0x4c>
400086da:	85a2                	mv	a1,s0
400086dc:	8552                	mv	a0,s4
400086de:	ac1ff0ef          	jal	ra,4000819e <__swsetup_r>
400086e2:	18051463          	bnez	a0,4000886a <__sfvwrite_r+0x21e>
400086e6:	00c41683          	lh	a3,12(s0)
400086ea:	000b2483          	lw	s1,0(s6)
400086ee:	0026f793          	andi	a5,a3,2
400086f2:	fbd9                	bnez	a5,40008688 <__sfvwrite_r+0x3c>
400086f4:	0016f793          	andi	a5,a3,1
400086f8:	e3ed                	bnez	a5,400087da <__sfvwrite_r+0x18e>
400086fa:	401c                	lw	a5,0(s0)
400086fc:	4418                	lw	a4,8(s0)
400086fe:	80000ab7          	lui	s5,0x80000
40008702:	4b81                	li	s7,0
40008704:	4981                	li	s3,0
40008706:	fffaca93          	not	s5,s5
4000870a:	853e                	mv	a0,a5
4000870c:	8c3a                	mv	s8,a4
4000870e:	0c098063          	beqz	s3,400087ce <__sfvwrite_r+0x182>
40008712:	2006f613          	andi	a2,a3,512
40008716:	18060d63          	beqz	a2,400088b0 <__sfvwrite_r+0x264>
4000871a:	8cba                	mv	s9,a4
4000871c:	1ee9ec63          	bltu	s3,a4,40008914 <__sfvwrite_r+0x2c8>
40008720:	4806f713          	andi	a4,a3,1152
40008724:	cb25                	beqz	a4,40008794 <__sfvwrite_r+0x148>
40008726:	4850                	lw	a2,20(s0)
40008728:	480c                	lw	a1,16(s0)
4000872a:	00161713          	slli	a4,a2,0x1
4000872e:	9732                	add	a4,a4,a2
40008730:	40b78933          	sub	s2,a5,a1
40008734:	01f75c13          	srli	s8,a4,0x1f
40008738:	9c3a                	add	s8,s8,a4
4000873a:	00190793          	addi	a5,s2,1
4000873e:	401c5c13          	srai	s8,s8,0x1
40008742:	97ce                	add	a5,a5,s3
40008744:	8662                	mv	a2,s8
40008746:	00fc7463          	bgeu	s8,a5,4000874e <__sfvwrite_r+0x102>
4000874a:	8c3e                	mv	s8,a5
4000874c:	863e                	mv	a2,a5
4000874e:	4006f693          	andi	a3,a3,1024
40008752:	1e068163          	beqz	a3,40008934 <__sfvwrite_r+0x2e8>
40008756:	85b2                	mv	a1,a2
40008758:	8552                	mv	a0,s4
4000875a:	baffd0ef          	jal	ra,40006308 <_malloc_r>
4000875e:	8caa                	mv	s9,a0
40008760:	20050063          	beqz	a0,40008960 <__sfvwrite_r+0x314>
40008764:	480c                	lw	a1,16(s0)
40008766:	864a                	mv	a2,s2
40008768:	8bff90ef          	jal	ra,40002026 <memcpy>
4000876c:	00c45783          	lhu	a5,12(s0)
40008770:	b7f7f793          	andi	a5,a5,-1153
40008774:	0807e793          	ori	a5,a5,128
40008778:	00f41623          	sh	a5,12(s0)
4000877c:	012c8533          	add	a0,s9,s2
40008780:	412c07b3          	sub	a5,s8,s2
40008784:	01942823          	sw	s9,16(s0)
40008788:	01842a23          	sw	s8,20(s0)
4000878c:	c008                	sw	a0,0(s0)
4000878e:	8c4e                	mv	s8,s3
40008790:	c41c                	sw	a5,8(s0)
40008792:	8cce                	mv	s9,s3
40008794:	8666                	mv	a2,s9
40008796:	85de                	mv	a1,s7
40008798:	e5afe0ef          	jal	ra,40006df2 <memmove>
4000879c:	4418                	lw	a4,8(s0)
4000879e:	401c                	lw	a5,0(s0)
400087a0:	894e                	mv	s2,s3
400087a2:	41870733          	sub	a4,a4,s8
400087a6:	97e6                	add	a5,a5,s9
400087a8:	c418                	sw	a4,8(s0)
400087aa:	c01c                	sw	a5,0(s0)
400087ac:	4981                	li	s3,0
400087ae:	008b2783          	lw	a5,8(s6)
400087b2:	9bca                	add	s7,s7,s2
400087b4:	412787b3          	sub	a5,a5,s2
400087b8:	00fb2423          	sw	a5,8(s6)
400087bc:	cfb5                	beqz	a5,40008838 <__sfvwrite_r+0x1ec>
400087be:	401c                	lw	a5,0(s0)
400087c0:	4418                	lw	a4,8(s0)
400087c2:	00c41683          	lh	a3,12(s0)
400087c6:	853e                	mv	a0,a5
400087c8:	8c3a                	mv	s8,a4
400087ca:	f40994e3          	bnez	s3,40008712 <__sfvwrite_r+0xc6>
400087ce:	0004ab83          	lw	s7,0(s1)
400087d2:	0044a983          	lw	s3,4(s1)
400087d6:	04a1                	addi	s1,s1,8
400087d8:	bf0d                	j	4000870a <__sfvwrite_r+0xbe>
400087da:	4a81                	li	s5,0
400087dc:	4501                	li	a0,0
400087de:	4c01                	li	s8,0
400087e0:	4981                	li	s3,0
400087e2:	08098863          	beqz	s3,40008872 <__sfvwrite_r+0x226>
400087e6:	cd51                	beqz	a0,40008882 <__sfvwrite_r+0x236>
400087e8:	87d6                	mv	a5,s5
400087ea:	8bce                	mv	s7,s3
400087ec:	0137f363          	bgeu	a5,s3,400087f2 <__sfvwrite_r+0x1a6>
400087f0:	8bbe                	mv	s7,a5
400087f2:	4008                	lw	a0,0(s0)
400087f4:	481c                	lw	a5,16(s0)
400087f6:	00842903          	lw	s2,8(s0)
400087fa:	4854                	lw	a3,20(s0)
400087fc:	00a7f563          	bgeu	a5,a0,40008806 <__sfvwrite_r+0x1ba>
40008800:	9936                	add	s2,s2,a3
40008802:	09794a63          	blt	s2,s7,40008896 <__sfvwrite_r+0x24a>
40008806:	10dbca63          	blt	s7,a3,4000891a <__sfvwrite_r+0x2ce>
4000880a:	505c                	lw	a5,36(s0)
4000880c:	4c4c                	lw	a1,28(s0)
4000880e:	8662                	mv	a2,s8
40008810:	8552                	mv	a0,s4
40008812:	9782                	jalr	a5
40008814:	892a                	mv	s2,a0
40008816:	04a05463          	blez	a0,4000885e <__sfvwrite_r+0x212>
4000881a:	412a8ab3          	sub	s5,s5,s2
4000881e:	4505                	li	a0,1
40008820:	020a8a63          	beqz	s5,40008854 <__sfvwrite_r+0x208>
40008824:	008b2783          	lw	a5,8(s6)
40008828:	9c4a                	add	s8,s8,s2
4000882a:	412989b3          	sub	s3,s3,s2
4000882e:	412787b3          	sub	a5,a5,s2
40008832:	00fb2423          	sw	a5,8(s6)
40008836:	f7d5                	bnez	a5,400087e2 <__sfvwrite_r+0x196>
40008838:	4501                	li	a0,0
4000883a:	50b2                	lw	ra,44(sp)
4000883c:	5422                	lw	s0,40(sp)
4000883e:	5492                	lw	s1,36(sp)
40008840:	5902                	lw	s2,32(sp)
40008842:	49f2                	lw	s3,28(sp)
40008844:	4a62                	lw	s4,24(sp)
40008846:	4ad2                	lw	s5,20(sp)
40008848:	4b42                	lw	s6,16(sp)
4000884a:	4bb2                	lw	s7,12(sp)
4000884c:	4c22                	lw	s8,8(sp)
4000884e:	4c92                	lw	s9,4(sp)
40008850:	6145                	addi	sp,sp,48
40008852:	8082                	ret
40008854:	85a2                	mv	a1,s0
40008856:	8552                	mv	a0,s4
40008858:	bb3ff0ef          	jal	ra,4000840a <_fflush_r>
4000885c:	d561                	beqz	a0,40008824 <__sfvwrite_r+0x1d8>
4000885e:	00c41783          	lh	a5,12(s0)
40008862:	0407e793          	ori	a5,a5,64
40008866:	00f41623          	sh	a5,12(s0)
4000886a:	557d                	li	a0,-1
4000886c:	b7f9                	j	4000883a <__sfvwrite_r+0x1ee>
4000886e:	4501                	li	a0,0
40008870:	8082                	ret
40008872:	0044a983          	lw	s3,4(s1)
40008876:	87a6                	mv	a5,s1
40008878:	04a1                	addi	s1,s1,8
4000887a:	fe098ce3          	beqz	s3,40008872 <__sfvwrite_r+0x226>
4000887e:	0007ac03          	lw	s8,0(a5)
40008882:	864e                	mv	a2,s3
40008884:	45a9                	li	a1,10
40008886:	8562                	mv	a0,s8
40008888:	85afe0ef          	jal	ra,400068e2 <memchr>
4000888c:	c571                	beqz	a0,40008958 <__sfvwrite_r+0x30c>
4000888e:	0505                	addi	a0,a0,1
40008890:	41850ab3          	sub	s5,a0,s8
40008894:	bf91                	j	400087e8 <__sfvwrite_r+0x19c>
40008896:	85e2                	mv	a1,s8
40008898:	864a                	mv	a2,s2
4000889a:	d58fe0ef          	jal	ra,40006df2 <memmove>
4000889e:	401c                	lw	a5,0(s0)
400088a0:	85a2                	mv	a1,s0
400088a2:	8552                	mv	a0,s4
400088a4:	97ca                	add	a5,a5,s2
400088a6:	c01c                	sw	a5,0(s0)
400088a8:	b63ff0ef          	jal	ra,4000840a <_fflush_r>
400088ac:	d53d                	beqz	a0,4000881a <__sfvwrite_r+0x1ce>
400088ae:	bf45                	j	4000885e <__sfvwrite_r+0x212>
400088b0:	4814                	lw	a3,16(s0)
400088b2:	02f6e863          	bltu	a3,a5,400088e2 <__sfvwrite_r+0x296>
400088b6:	4850                	lw	a2,20(s0)
400088b8:	02c9e563          	bltu	s3,a2,400088e2 <__sfvwrite_r+0x296>
400088bc:	87ce                	mv	a5,s3
400088be:	013af363          	bgeu	s5,s3,400088c4 <__sfvwrite_r+0x278>
400088c2:	87d6                	mv	a5,s5
400088c4:	02c7e6b3          	rem	a3,a5,a2
400088c8:	5058                	lw	a4,36(s0)
400088ca:	4c4c                	lw	a1,28(s0)
400088cc:	865e                	mv	a2,s7
400088ce:	8552                	mv	a0,s4
400088d0:	40d786b3          	sub	a3,a5,a3
400088d4:	9702                	jalr	a4
400088d6:	892a                	mv	s2,a0
400088d8:	f8a053e3          	blez	a0,4000885e <__sfvwrite_r+0x212>
400088dc:	412989b3          	sub	s3,s3,s2
400088e0:	b5f9                	j	400087ae <__sfvwrite_r+0x162>
400088e2:	893a                	mv	s2,a4
400088e4:	00e9f363          	bgeu	s3,a4,400088ea <__sfvwrite_r+0x29e>
400088e8:	894e                	mv	s2,s3
400088ea:	853e                	mv	a0,a5
400088ec:	864a                	mv	a2,s2
400088ee:	85de                	mv	a1,s7
400088f0:	d02fe0ef          	jal	ra,40006df2 <memmove>
400088f4:	4418                	lw	a4,8(s0)
400088f6:	401c                	lw	a5,0(s0)
400088f8:	41270733          	sub	a4,a4,s2
400088fc:	97ca                	add	a5,a5,s2
400088fe:	c418                	sw	a4,8(s0)
40008900:	c01c                	sw	a5,0(s0)
40008902:	ff69                	bnez	a4,400088dc <__sfvwrite_r+0x290>
40008904:	85a2                	mv	a1,s0
40008906:	8552                	mv	a0,s4
40008908:	b03ff0ef          	jal	ra,4000840a <_fflush_r>
4000890c:	f929                	bnez	a0,4000885e <__sfvwrite_r+0x212>
4000890e:	412989b3          	sub	s3,s3,s2
40008912:	bd71                	j	400087ae <__sfvwrite_r+0x162>
40008914:	8c4e                	mv	s8,s3
40008916:	8cce                	mv	s9,s3
40008918:	bdb5                	j	40008794 <__sfvwrite_r+0x148>
4000891a:	865e                	mv	a2,s7
4000891c:	85e2                	mv	a1,s8
4000891e:	cd4fe0ef          	jal	ra,40006df2 <memmove>
40008922:	4418                	lw	a4,8(s0)
40008924:	401c                	lw	a5,0(s0)
40008926:	895e                	mv	s2,s7
40008928:	41770733          	sub	a4,a4,s7
4000892c:	97de                	add	a5,a5,s7
4000892e:	c418                	sw	a4,8(s0)
40008930:	c01c                	sw	a5,0(s0)
40008932:	b5e5                	j	4000881a <__sfvwrite_r+0x1ce>
40008934:	8552                	mv	a0,s4
40008936:	d8efe0ef          	jal	ra,40006ec4 <_realloc_r>
4000893a:	8caa                	mv	s9,a0
4000893c:	e40510e3          	bnez	a0,4000877c <__sfvwrite_r+0x130>
40008940:	480c                	lw	a1,16(s0)
40008942:	8552                	mv	a0,s4
40008944:	e88fb0ef          	jal	ra,40003fcc <_free_r>
40008948:	00c41783          	lh	a5,12(s0)
4000894c:	4731                	li	a4,12
4000894e:	00ea2023          	sw	a4,0(s4)
40008952:	f7f7f793          	andi	a5,a5,-129
40008956:	b731                	j	40008862 <__sfvwrite_r+0x216>
40008958:	00198793          	addi	a5,s3,1
4000895c:	8abe                	mv	s5,a5
4000895e:	b571                	j	400087ea <__sfvwrite_r+0x19e>
40008960:	4731                	li	a4,12
40008962:	00c41783          	lh	a5,12(s0)
40008966:	00ea2023          	sw	a4,0(s4)
4000896a:	bde5                	j	40008862 <__sfvwrite_r+0x216>

4000896c <_fwalk_reent>:
4000896c:	7179                	addi	sp,sp,-48
4000896e:	d04a                	sw	s2,32(sp)
40008970:	ce4e                	sw	s3,28(sp)
40008972:	cc52                	sw	s4,24(sp)
40008974:	ca56                	sw	s5,20(sp)
40008976:	c85a                	sw	s6,16(sp)
40008978:	c65e                	sw	s7,12(sp)
4000897a:	d606                	sw	ra,44(sp)
4000897c:	d422                	sw	s0,40(sp)
4000897e:	d226                	sw	s1,36(sp)
40008980:	8aaa                	mv	s5,a0
40008982:	8bae                	mv	s7,a1
40008984:	2e050b13          	addi	s6,a0,736
40008988:	4a01                	li	s4,0
4000898a:	4985                	li	s3,1
4000898c:	597d                	li	s2,-1
4000898e:	004b2483          	lw	s1,4(s6)
40008992:	008b2403          	lw	s0,8(s6)
40008996:	14fd                	addi	s1,s1,-1
40008998:	0204c463          	bltz	s1,400089c0 <_fwalk_reent+0x54>
4000899c:	00c45783          	lhu	a5,12(s0)
400089a0:	14fd                	addi	s1,s1,-1
400089a2:	00f9fb63          	bgeu	s3,a5,400089b8 <_fwalk_reent+0x4c>
400089a6:	00e41783          	lh	a5,14(s0)
400089aa:	85a2                	mv	a1,s0
400089ac:	8556                	mv	a0,s5
400089ae:	01278563          	beq	a5,s2,400089b8 <_fwalk_reent+0x4c>
400089b2:	9b82                	jalr	s7
400089b4:	00aa6a33          	or	s4,s4,a0
400089b8:	06840413          	addi	s0,s0,104
400089bc:	ff2490e3          	bne	s1,s2,4000899c <_fwalk_reent+0x30>
400089c0:	000b2b03          	lw	s6,0(s6)
400089c4:	fc0b15e3          	bnez	s6,4000898e <_fwalk_reent+0x22>
400089c8:	50b2                	lw	ra,44(sp)
400089ca:	5422                	lw	s0,40(sp)
400089cc:	5492                	lw	s1,36(sp)
400089ce:	5902                	lw	s2,32(sp)
400089d0:	49f2                	lw	s3,28(sp)
400089d2:	4ad2                	lw	s5,20(sp)
400089d4:	4b42                	lw	s6,16(sp)
400089d6:	4bb2                	lw	s7,12(sp)
400089d8:	8552                	mv	a0,s4
400089da:	4a62                	lw	s4,24(sp)
400089dc:	6145                	addi	sp,sp,48
400089de:	8082                	ret

400089e0 <__smakebuf_r>:
400089e0:	00c59783          	lh	a5,12(a1)
400089e4:	7119                	addi	sp,sp,-128
400089e6:	dca2                	sw	s0,120(sp)
400089e8:	de86                	sw	ra,124(sp)
400089ea:	daa6                	sw	s1,116(sp)
400089ec:	d8ca                	sw	s2,112(sp)
400089ee:	d6ce                	sw	s3,108(sp)
400089f0:	d4d2                	sw	s4,104(sp)
400089f2:	0027f713          	andi	a4,a5,2
400089f6:	842e                	mv	s0,a1
400089f8:	cf19                	beqz	a4,40008a16 <__smakebuf_r+0x36>
400089fa:	04358793          	addi	a5,a1,67
400089fe:	c19c                	sw	a5,0(a1)
40008a00:	c99c                	sw	a5,16(a1)
40008a02:	4785                	li	a5,1
40008a04:	c9dc                	sw	a5,20(a1)
40008a06:	50f6                	lw	ra,124(sp)
40008a08:	5466                	lw	s0,120(sp)
40008a0a:	54d6                	lw	s1,116(sp)
40008a0c:	5946                	lw	s2,112(sp)
40008a0e:	59b6                	lw	s3,108(sp)
40008a10:	5a26                	lw	s4,104(sp)
40008a12:	6109                	addi	sp,sp,128
40008a14:	8082                	ret
40008a16:	00e59583          	lh	a1,14(a1)
40008a1a:	84aa                	mv	s1,a0
40008a1c:	0605c763          	bltz	a1,40008a8a <__smakebuf_r+0xaa>
40008a20:	0030                	addi	a2,sp,8
40008a22:	2165                	jal	40008eca <_fstat_r>
40008a24:	06054163          	bltz	a0,40008a86 <__smakebuf_r+0xa6>
40008a28:	47b2                	lw	a5,12(sp)
40008a2a:	693d                	lui	s2,0xf
40008a2c:	6985                	lui	s3,0x1
40008a2e:	00f97933          	and	s2,s2,a5
40008a32:	77f9                	lui	a5,0xffffe
40008a34:	993e                	add	s2,s2,a5
40008a36:	00193913          	seqz	s2,s2
40008a3a:	40000a13          	li	s4,1024
40008a3e:	80098993          	addi	s3,s3,-2048 # 800 <__stack_size+0x6d4>
40008a42:	85d2                	mv	a1,s4
40008a44:	8526                	mv	a0,s1
40008a46:	8c3fd0ef          	jal	ra,40006308 <_malloc_r>
40008a4a:	00c41783          	lh	a5,12(s0)
40008a4e:	cd21                	beqz	a0,40008aa6 <__smakebuf_r+0xc6>
40008a50:	40008737          	lui	a4,0x40008
40008a54:	44070713          	addi	a4,a4,1088 # 40008440 <_cleanup_r>
40008a58:	dcd8                	sw	a4,60(s1)
40008a5a:	0807e793          	ori	a5,a5,128
40008a5e:	00f41623          	sh	a5,12(s0)
40008a62:	c008                	sw	a0,0(s0)
40008a64:	c808                	sw	a0,16(s0)
40008a66:	01442a23          	sw	s4,20(s0)
40008a6a:	06091163          	bnez	s2,40008acc <__smakebuf_r+0xec>
40008a6e:	0137e7b3          	or	a5,a5,s3
40008a72:	50f6                	lw	ra,124(sp)
40008a74:	00f41623          	sh	a5,12(s0)
40008a78:	5466                	lw	s0,120(sp)
40008a7a:	54d6                	lw	s1,116(sp)
40008a7c:	5946                	lw	s2,112(sp)
40008a7e:	59b6                	lw	s3,108(sp)
40008a80:	5a26                	lw	s4,104(sp)
40008a82:	6109                	addi	sp,sp,128
40008a84:	8082                	ret
40008a86:	00c41783          	lh	a5,12(s0)
40008a8a:	0807f793          	andi	a5,a5,128
40008a8e:	4901                	li	s2,0
40008a90:	cb95                	beqz	a5,40008ac4 <__smakebuf_r+0xe4>
40008a92:	04000a13          	li	s4,64
40008a96:	85d2                	mv	a1,s4
40008a98:	8526                	mv	a0,s1
40008a9a:	86ffd0ef          	jal	ra,40006308 <_malloc_r>
40008a9e:	00c41783          	lh	a5,12(s0)
40008aa2:	4981                	li	s3,0
40008aa4:	f555                	bnez	a0,40008a50 <__smakebuf_r+0x70>
40008aa6:	2007f713          	andi	a4,a5,512
40008aaa:	ff31                	bnez	a4,40008a06 <__smakebuf_r+0x26>
40008aac:	9bf1                	andi	a5,a5,-4
40008aae:	0027e793          	ori	a5,a5,2
40008ab2:	04340713          	addi	a4,s0,67
40008ab6:	00f41623          	sh	a5,12(s0)
40008aba:	4785                	li	a5,1
40008abc:	c018                	sw	a4,0(s0)
40008abe:	c818                	sw	a4,16(s0)
40008ac0:	c85c                	sw	a5,20(s0)
40008ac2:	b791                	j	40008a06 <__smakebuf_r+0x26>
40008ac4:	40000a13          	li	s4,1024
40008ac8:	4981                	li	s3,0
40008aca:	bfa5                	j	40008a42 <__smakebuf_r+0x62>
40008acc:	00e41583          	lh	a1,14(s0)
40008ad0:	8526                	mv	a0,s1
40008ad2:	2915                	jal	40008f06 <_isatty_r>
40008ad4:	e501                	bnez	a0,40008adc <__smakebuf_r+0xfc>
40008ad6:	00c41783          	lh	a5,12(s0)
40008ada:	bf51                	j	40008a6e <__smakebuf_r+0x8e>
40008adc:	00c45783          	lhu	a5,12(s0)
40008ae0:	9bf1                	andi	a5,a5,-4
40008ae2:	0017e793          	ori	a5,a5,1
40008ae6:	07c2                	slli	a5,a5,0x10
40008ae8:	87c1                	srai	a5,a5,0x10
40008aea:	b751                	j	40008a6e <__smakebuf_r+0x8e>

40008aec <raise>:
40008aec:	1141                	addi	sp,sp,-16
40008aee:	c226                	sw	s1,4(sp)
40008af0:	c606                	sw	ra,12(sp)
40008af2:	c422                	sw	s0,8(sp)
40008af4:	47fd                	li	a5,31
40008af6:	80c1a483          	lw	s1,-2036(gp) # 4000c1b4 <_impure_ptr>
40008afa:	04a7ec63          	bltu	a5,a0,40008b52 <raise+0x66>
40008afe:	2dc4a783          	lw	a5,732(s1)
40008b02:	842a                	mv	s0,a0
40008b04:	c78d                	beqz	a5,40008b2e <raise+0x42>
40008b06:	00251713          	slli	a4,a0,0x2
40008b0a:	97ba                	add	a5,a5,a4
40008b0c:	4398                	lw	a4,0(a5)
40008b0e:	c305                	beqz	a4,40008b2e <raise+0x42>
40008b10:	4685                	li	a3,1
40008b12:	00d70863          	beq	a4,a3,40008b22 <raise+0x36>
40008b16:	56fd                	li	a3,-1
40008b18:	02d70563          	beq	a4,a3,40008b42 <raise+0x56>
40008b1c:	0007a023          	sw	zero,0(a5) # ffffe000 <_bss_lma+0x7fffd560>
40008b20:	9702                	jalr	a4
40008b22:	4501                	li	a0,0
40008b24:	40b2                	lw	ra,12(sp)
40008b26:	4422                	lw	s0,8(sp)
40008b28:	4492                	lw	s1,4(sp)
40008b2a:	0141                	addi	sp,sp,16
40008b2c:	8082                	ret
40008b2e:	8526                	mv	a0,s1
40008b30:	209d                	jal	40008b96 <_getpid_r>
40008b32:	8622                	mv	a2,s0
40008b34:	4422                	lw	s0,8(sp)
40008b36:	40b2                	lw	ra,12(sp)
40008b38:	85aa                	mv	a1,a0
40008b3a:	8526                	mv	a0,s1
40008b3c:	4492                	lw	s1,4(sp)
40008b3e:	0141                	addi	sp,sp,16
40008b40:	a829                	j	40008b5a <_kill_r>
40008b42:	40b2                	lw	ra,12(sp)
40008b44:	4422                	lw	s0,8(sp)
40008b46:	47d9                	li	a5,22
40008b48:	c09c                	sw	a5,0(s1)
40008b4a:	4505                	li	a0,1
40008b4c:	4492                	lw	s1,4(sp)
40008b4e:	0141                	addi	sp,sp,16
40008b50:	8082                	ret
40008b52:	47d9                	li	a5,22
40008b54:	c09c                	sw	a5,0(s1)
40008b56:	557d                	li	a0,-1
40008b58:	b7f1                	j	40008b24 <raise+0x38>

40008b5a <_kill_r>:
40008b5a:	1141                	addi	sp,sp,-16
40008b5c:	872e                	mv	a4,a1
40008b5e:	c422                	sw	s0,8(sp)
40008b60:	c226                	sw	s1,4(sp)
40008b62:	842a                	mv	s0,a0
40008b64:	4000c4b7          	lui	s1,0x4000c
40008b68:	85b2                	mv	a1,a2
40008b6a:	853a                	mv	a0,a4
40008b6c:	c606                	sw	ra,12(sp)
40008b6e:	2404a823          	sw	zero,592(s1) # 4000c250 <errno>
40008b72:	29e5                	jal	4000906a <_kill>
40008b74:	57fd                	li	a5,-1
40008b76:	00f50763          	beq	a0,a5,40008b84 <_kill_r+0x2a>
40008b7a:	40b2                	lw	ra,12(sp)
40008b7c:	4422                	lw	s0,8(sp)
40008b7e:	4492                	lw	s1,4(sp)
40008b80:	0141                	addi	sp,sp,16
40008b82:	8082                	ret
40008b84:	2504a783          	lw	a5,592(s1)
40008b88:	dbed                	beqz	a5,40008b7a <_kill_r+0x20>
40008b8a:	40b2                	lw	ra,12(sp)
40008b8c:	c01c                	sw	a5,0(s0)
40008b8e:	4422                	lw	s0,8(sp)
40008b90:	4492                	lw	s1,4(sp)
40008b92:	0141                	addi	sp,sp,16
40008b94:	8082                	ret

40008b96 <_getpid_r>:
40008b96:	a175                	j	40009042 <_getpid>

40008b98 <__sread>:
40008b98:	1141                	addi	sp,sp,-16
40008b9a:	c422                	sw	s0,8(sp)
40008b9c:	842e                	mv	s0,a1
40008b9e:	00e59583          	lh	a1,14(a1)
40008ba2:	c606                	sw	ra,12(sp)
40008ba4:	2ee1                	jal	40008f7c <_read_r>
40008ba6:	00054963          	bltz	a0,40008bb8 <__sread+0x20>
40008baa:	483c                	lw	a5,80(s0)
40008bac:	40b2                	lw	ra,12(sp)
40008bae:	97aa                	add	a5,a5,a0
40008bb0:	c83c                	sw	a5,80(s0)
40008bb2:	4422                	lw	s0,8(sp)
40008bb4:	0141                	addi	sp,sp,16
40008bb6:	8082                	ret
40008bb8:	00c45783          	lhu	a5,12(s0)
40008bbc:	777d                	lui	a4,0xfffff
40008bbe:	177d                	addi	a4,a4,-1 # ffffefff <_bss_lma+0x7fffe55f>
40008bc0:	8ff9                	and	a5,a5,a4
40008bc2:	40b2                	lw	ra,12(sp)
40008bc4:	00f41623          	sh	a5,12(s0)
40008bc8:	4422                	lw	s0,8(sp)
40008bca:	0141                	addi	sp,sp,16
40008bcc:	8082                	ret

40008bce <__swrite>:
40008bce:	00c59783          	lh	a5,12(a1)
40008bd2:	1101                	addi	sp,sp,-32
40008bd4:	cc22                	sw	s0,24(sp)
40008bd6:	ca26                	sw	s1,20(sp)
40008bd8:	c84a                	sw	s2,16(sp)
40008bda:	c64e                	sw	s3,12(sp)
40008bdc:	ce06                	sw	ra,28(sp)
40008bde:	1007f713          	andi	a4,a5,256
40008be2:	842e                	mv	s0,a1
40008be4:	84aa                	mv	s1,a0
40008be6:	8932                	mv	s2,a2
40008be8:	89b6                	mv	s3,a3
40008bea:	e315                	bnez	a4,40008c0e <__swrite+0x40>
40008bec:	777d                	lui	a4,0xfffff
40008bee:	177d                	addi	a4,a4,-1 # ffffefff <_bss_lma+0x7fffe55f>
40008bf0:	8ff9                	and	a5,a5,a4
40008bf2:	00e41583          	lh	a1,14(s0)
40008bf6:	00f41623          	sh	a5,12(s0)
40008bfa:	4462                	lw	s0,24(sp)
40008bfc:	40f2                	lw	ra,28(sp)
40008bfe:	86ce                	mv	a3,s3
40008c00:	864a                	mv	a2,s2
40008c02:	49b2                	lw	s3,12(sp)
40008c04:	4942                	lw	s2,16(sp)
40008c06:	8526                	mv	a0,s1
40008c08:	44d2                	lw	s1,20(sp)
40008c0a:	6105                	addi	sp,sp,32
40008c0c:	aa69                	j	40008da6 <_write_r>
40008c0e:	00e59583          	lh	a1,14(a1)
40008c12:	4689                	li	a3,2
40008c14:	4601                	li	a2,0
40008c16:	2625                	jal	40008f3e <_lseek_r>
40008c18:	00c41783          	lh	a5,12(s0)
40008c1c:	bfc1                	j	40008bec <__swrite+0x1e>

40008c1e <__sseek>:
40008c1e:	1141                	addi	sp,sp,-16
40008c20:	c422                	sw	s0,8(sp)
40008c22:	842e                	mv	s0,a1
40008c24:	00e59583          	lh	a1,14(a1)
40008c28:	c606                	sw	ra,12(sp)
40008c2a:	2e11                	jal	40008f3e <_lseek_r>
40008c2c:	57fd                	li	a5,-1
40008c2e:	00f50f63          	beq	a0,a5,40008c4c <__sseek+0x2e>
40008c32:	00c45783          	lhu	a5,12(s0)
40008c36:	6705                	lui	a4,0x1
40008c38:	40b2                	lw	ra,12(sp)
40008c3a:	8fd9                	or	a5,a5,a4
40008c3c:	07c2                	slli	a5,a5,0x10
40008c3e:	87c1                	srai	a5,a5,0x10
40008c40:	c828                	sw	a0,80(s0)
40008c42:	00f41623          	sh	a5,12(s0)
40008c46:	4422                	lw	s0,8(sp)
40008c48:	0141                	addi	sp,sp,16
40008c4a:	8082                	ret
40008c4c:	00c45783          	lhu	a5,12(s0)
40008c50:	777d                	lui	a4,0xfffff
40008c52:	177d                	addi	a4,a4,-1 # ffffefff <_bss_lma+0x7fffe55f>
40008c54:	8ff9                	and	a5,a5,a4
40008c56:	07c2                	slli	a5,a5,0x10
40008c58:	87c1                	srai	a5,a5,0x10
40008c5a:	40b2                	lw	ra,12(sp)
40008c5c:	00f41623          	sh	a5,12(s0)
40008c60:	4422                	lw	s0,8(sp)
40008c62:	0141                	addi	sp,sp,16
40008c64:	8082                	ret

40008c66 <__sclose>:
40008c66:	00e59583          	lh	a1,14(a1)
40008c6a:	aaad                	j	40008de4 <_close_r>

40008c6c <__swbuf_r>:
40008c6c:	1101                	addi	sp,sp,-32
40008c6e:	cc22                	sw	s0,24(sp)
40008c70:	ca26                	sw	s1,20(sp)
40008c72:	c84a                	sw	s2,16(sp)
40008c74:	ce06                	sw	ra,28(sp)
40008c76:	c64e                	sw	s3,12(sp)
40008c78:	892a                	mv	s2,a0
40008c7a:	84ae                	mv	s1,a1
40008c7c:	8432                	mv	s0,a2
40008c7e:	c119                	beqz	a0,40008c84 <__swbuf_r+0x18>
40008c80:	5d1c                	lw	a5,56(a0)
40008c82:	cbf9                	beqz	a5,40008d58 <__swbuf_r+0xec>
40008c84:	4c1c                	lw	a5,24(s0)
40008c86:	00c41703          	lh	a4,12(s0)
40008c8a:	c41c                	sw	a5,8(s0)
40008c8c:	00877793          	andi	a5,a4,8
40008c90:	cfa1                	beqz	a5,40008ce8 <__swbuf_r+0x7c>
40008c92:	481c                	lw	a5,16(s0)
40008c94:	cbb1                	beqz	a5,40008ce8 <__swbuf_r+0x7c>
40008c96:	01271693          	slli	a3,a4,0x12
40008c9a:	0ff4f993          	zext.b	s3,s1
40008c9e:	0ff4f493          	zext.b	s1,s1
40008ca2:	0606d363          	bgez	a3,40008d08 <__swbuf_r+0x9c>
40008ca6:	4018                	lw	a4,0(s0)
40008ca8:	4854                	lw	a3,20(s0)
40008caa:	40f707b3          	sub	a5,a4,a5
40008cae:	06d7dc63          	bge	a5,a3,40008d26 <__swbuf_r+0xba>
40008cb2:	4414                	lw	a3,8(s0)
40008cb4:	00170613          	addi	a2,a4,1
40008cb8:	c010                	sw	a2,0(s0)
40008cba:	16fd                	addi	a3,a3,-1 # 1fff <__stack_size+0x1ed3>
40008cbc:	c414                	sw	a3,8(s0)
40008cbe:	01370023          	sb	s3,0(a4)
40008cc2:	4858                	lw	a4,20(s0)
40008cc4:	0785                	addi	a5,a5,1
40008cc6:	08f70263          	beq	a4,a5,40008d4a <__swbuf_r+0xde>
40008cca:	00c45783          	lhu	a5,12(s0)
40008cce:	8b85                	andi	a5,a5,1
40008cd0:	c781                	beqz	a5,40008cd8 <__swbuf_r+0x6c>
40008cd2:	47a9                	li	a5,10
40008cd4:	06f48b63          	beq	s1,a5,40008d4a <__swbuf_r+0xde>
40008cd8:	40f2                	lw	ra,28(sp)
40008cda:	4462                	lw	s0,24(sp)
40008cdc:	4942                	lw	s2,16(sp)
40008cde:	49b2                	lw	s3,12(sp)
40008ce0:	8526                	mv	a0,s1
40008ce2:	44d2                	lw	s1,20(sp)
40008ce4:	6105                	addi	sp,sp,32
40008ce6:	8082                	ret
40008ce8:	85a2                	mv	a1,s0
40008cea:	854a                	mv	a0,s2
40008cec:	cb2ff0ef          	jal	ra,4000819e <__swsetup_r>
40008cf0:	e135                	bnez	a0,40008d54 <__swbuf_r+0xe8>
40008cf2:	00c41703          	lh	a4,12(s0)
40008cf6:	0ff4f993          	zext.b	s3,s1
40008cfa:	481c                	lw	a5,16(s0)
40008cfc:	01271693          	slli	a3,a4,0x12
40008d00:	0ff4f493          	zext.b	s1,s1
40008d04:	fa06c1e3          	bltz	a3,40008ca6 <__swbuf_r+0x3a>
40008d08:	5074                	lw	a3,100(s0)
40008d0a:	6609                	lui	a2,0x2
40008d0c:	8f51                	or	a4,a4,a2
40008d0e:	7679                	lui	a2,0xffffe
40008d10:	167d                	addi	a2,a2,-1 # ffffdfff <_bss_lma+0x7fffd55f>
40008d12:	8ef1                	and	a3,a3,a2
40008d14:	00e41623          	sh	a4,12(s0)
40008d18:	4018                	lw	a4,0(s0)
40008d1a:	d074                	sw	a3,100(s0)
40008d1c:	4854                	lw	a3,20(s0)
40008d1e:	40f707b3          	sub	a5,a4,a5
40008d22:	f8d7c8e3          	blt	a5,a3,40008cb2 <__swbuf_r+0x46>
40008d26:	85a2                	mv	a1,s0
40008d28:	854a                	mv	a0,s2
40008d2a:	ee0ff0ef          	jal	ra,4000840a <_fflush_r>
40008d2e:	e11d                	bnez	a0,40008d54 <__swbuf_r+0xe8>
40008d30:	4018                	lw	a4,0(s0)
40008d32:	4414                	lw	a3,8(s0)
40008d34:	4785                	li	a5,1
40008d36:	00170613          	addi	a2,a4,1
40008d3a:	16fd                	addi	a3,a3,-1
40008d3c:	c010                	sw	a2,0(s0)
40008d3e:	c414                	sw	a3,8(s0)
40008d40:	01370023          	sb	s3,0(a4)
40008d44:	4858                	lw	a4,20(s0)
40008d46:	f8f712e3          	bne	a4,a5,40008cca <__swbuf_r+0x5e>
40008d4a:	85a2                	mv	a1,s0
40008d4c:	854a                	mv	a0,s2
40008d4e:	ebcff0ef          	jal	ra,4000840a <_fflush_r>
40008d52:	d159                	beqz	a0,40008cd8 <__swbuf_r+0x6c>
40008d54:	54fd                	li	s1,-1
40008d56:	b749                	j	40008cd8 <__swbuf_r+0x6c>
40008d58:	827ff0ef          	jal	ra,4000857e <__sinit>
40008d5c:	b725                	j	40008c84 <__swbuf_r+0x18>

40008d5e <_wcrtomb_r>:
40008d5e:	1101                	addi	sp,sp,-32
40008d60:	cc22                	sw	s0,24(sp)
40008d62:	ca26                	sw	s1,20(sp)
40008d64:	4000c7b7          	lui	a5,0x4000c
40008d68:	ce06                	sw	ra,28(sp)
40008d6a:	d107a783          	lw	a5,-752(a5) # 4000bd10 <__global_locale+0xe0>
40008d6e:	842a                	mv	s0,a0
40008d70:	84b6                	mv	s1,a3
40008d72:	c991                	beqz	a1,40008d86 <_wcrtomb_r+0x28>
40008d74:	9782                	jalr	a5
40008d76:	57fd                	li	a5,-1
40008d78:	00f50d63          	beq	a0,a5,40008d92 <_wcrtomb_r+0x34>
40008d7c:	40f2                	lw	ra,28(sp)
40008d7e:	4462                	lw	s0,24(sp)
40008d80:	44d2                	lw	s1,20(sp)
40008d82:	6105                	addi	sp,sp,32
40008d84:	8082                	ret
40008d86:	4601                	li	a2,0
40008d88:	004c                	addi	a1,sp,4
40008d8a:	9782                	jalr	a5
40008d8c:	57fd                	li	a5,-1
40008d8e:	fef517e3          	bne	a0,a5,40008d7c <_wcrtomb_r+0x1e>
40008d92:	0004a023          	sw	zero,0(s1)
40008d96:	08a00793          	li	a5,138
40008d9a:	40f2                	lw	ra,28(sp)
40008d9c:	c01c                	sw	a5,0(s0)
40008d9e:	4462                	lw	s0,24(sp)
40008da0:	44d2                	lw	s1,20(sp)
40008da2:	6105                	addi	sp,sp,32
40008da4:	8082                	ret

40008da6 <_write_r>:
40008da6:	1141                	addi	sp,sp,-16
40008da8:	872e                	mv	a4,a1
40008daa:	c422                	sw	s0,8(sp)
40008dac:	c226                	sw	s1,4(sp)
40008dae:	85b2                	mv	a1,a2
40008db0:	842a                	mv	s0,a0
40008db2:	4000c4b7          	lui	s1,0x4000c
40008db6:	8636                	mv	a2,a3
40008db8:	853a                	mv	a0,a4
40008dba:	c606                	sw	ra,12(sp)
40008dbc:	2404a823          	sw	zero,592(s1) # 4000c250 <errno>
40008dc0:	26bd                	jal	4000912e <_write>
40008dc2:	57fd                	li	a5,-1
40008dc4:	00f50763          	beq	a0,a5,40008dd2 <_write_r+0x2c>
40008dc8:	40b2                	lw	ra,12(sp)
40008dca:	4422                	lw	s0,8(sp)
40008dcc:	4492                	lw	s1,4(sp)
40008dce:	0141                	addi	sp,sp,16
40008dd0:	8082                	ret
40008dd2:	2504a783          	lw	a5,592(s1)
40008dd6:	dbed                	beqz	a5,40008dc8 <_write_r+0x22>
40008dd8:	40b2                	lw	ra,12(sp)
40008dda:	c01c                	sw	a5,0(s0)
40008ddc:	4422                	lw	s0,8(sp)
40008dde:	4492                	lw	s1,4(sp)
40008de0:	0141                	addi	sp,sp,16
40008de2:	8082                	ret

40008de4 <_close_r>:
40008de4:	1141                	addi	sp,sp,-16
40008de6:	c422                	sw	s0,8(sp)
40008de8:	c226                	sw	s1,4(sp)
40008dea:	842a                	mv	s0,a0
40008dec:	4000c4b7          	lui	s1,0x4000c
40008df0:	852e                	mv	a0,a1
40008df2:	c606                	sw	ra,12(sp)
40008df4:	2404a823          	sw	zero,592(s1) # 4000c250 <errno>
40008df8:	22c9                	jal	40008fba <_close>
40008dfa:	57fd                	li	a5,-1
40008dfc:	00f50763          	beq	a0,a5,40008e0a <_close_r+0x26>
40008e00:	40b2                	lw	ra,12(sp)
40008e02:	4422                	lw	s0,8(sp)
40008e04:	4492                	lw	s1,4(sp)
40008e06:	0141                	addi	sp,sp,16
40008e08:	8082                	ret
40008e0a:	2504a783          	lw	a5,592(s1)
40008e0e:	dbed                	beqz	a5,40008e00 <_close_r+0x1c>
40008e10:	40b2                	lw	ra,12(sp)
40008e12:	c01c                	sw	a5,0(s0)
40008e14:	4422                	lw	s0,8(sp)
40008e16:	4492                	lw	s1,4(sp)
40008e18:	0141                	addi	sp,sp,16
40008e1a:	8082                	ret

40008e1c <_fclose_r>:
40008e1c:	1141                	addi	sp,sp,-16
40008e1e:	c606                	sw	ra,12(sp)
40008e20:	c422                	sw	s0,8(sp)
40008e22:	c226                	sw	s1,4(sp)
40008e24:	c04a                	sw	s2,0(sp)
40008e26:	c989                	beqz	a1,40008e38 <_fclose_r+0x1c>
40008e28:	842e                	mv	s0,a1
40008e2a:	84aa                	mv	s1,a0
40008e2c:	c119                	beqz	a0,40008e32 <_fclose_r+0x16>
40008e2e:	5d1c                	lw	a5,56(a0)
40008e30:	cfa5                	beqz	a5,40008ea8 <_fclose_r+0x8c>
40008e32:	00c41783          	lh	a5,12(s0)
40008e36:	eb89                	bnez	a5,40008e48 <_fclose_r+0x2c>
40008e38:	40b2                	lw	ra,12(sp)
40008e3a:	4422                	lw	s0,8(sp)
40008e3c:	4901                	li	s2,0
40008e3e:	4492                	lw	s1,4(sp)
40008e40:	854a                	mv	a0,s2
40008e42:	4902                	lw	s2,0(sp)
40008e44:	0141                	addi	sp,sp,16
40008e46:	8082                	ret
40008e48:	85a2                	mv	a1,s0
40008e4a:	8526                	mv	a0,s1
40008e4c:	c3cff0ef          	jal	ra,40008288 <__sflush_r>
40008e50:	545c                	lw	a5,44(s0)
40008e52:	892a                	mv	s2,a0
40008e54:	c791                	beqz	a5,40008e60 <_fclose_r+0x44>
40008e56:	4c4c                	lw	a1,28(s0)
40008e58:	8526                	mv	a0,s1
40008e5a:	9782                	jalr	a5
40008e5c:	04054c63          	bltz	a0,40008eb4 <_fclose_r+0x98>
40008e60:	00c45783          	lhu	a5,12(s0)
40008e64:	0807f793          	andi	a5,a5,128
40008e68:	efa1                	bnez	a5,40008ec0 <_fclose_r+0xa4>
40008e6a:	580c                	lw	a1,48(s0)
40008e6c:	c991                	beqz	a1,40008e80 <_fclose_r+0x64>
40008e6e:	04040793          	addi	a5,s0,64
40008e72:	00f58563          	beq	a1,a5,40008e7c <_fclose_r+0x60>
40008e76:	8526                	mv	a0,s1
40008e78:	954fb0ef          	jal	ra,40003fcc <_free_r>
40008e7c:	02042823          	sw	zero,48(s0)
40008e80:	406c                	lw	a1,68(s0)
40008e82:	c591                	beqz	a1,40008e8e <_fclose_r+0x72>
40008e84:	8526                	mv	a0,s1
40008e86:	946fb0ef          	jal	ra,40003fcc <_free_r>
40008e8a:	04042223          	sw	zero,68(s0)
40008e8e:	efaff0ef          	jal	ra,40008588 <__sfp_lock_acquire>
40008e92:	00041623          	sh	zero,12(s0)
40008e96:	ef4ff0ef          	jal	ra,4000858a <__sfp_lock_release>
40008e9a:	40b2                	lw	ra,12(sp)
40008e9c:	4422                	lw	s0,8(sp)
40008e9e:	4492                	lw	s1,4(sp)
40008ea0:	854a                	mv	a0,s2
40008ea2:	4902                	lw	s2,0(sp)
40008ea4:	0141                	addi	sp,sp,16
40008ea6:	8082                	ret
40008ea8:	ed6ff0ef          	jal	ra,4000857e <__sinit>
40008eac:	00c41783          	lh	a5,12(s0)
40008eb0:	d7c1                	beqz	a5,40008e38 <_fclose_r+0x1c>
40008eb2:	bf59                	j	40008e48 <_fclose_r+0x2c>
40008eb4:	00c45783          	lhu	a5,12(s0)
40008eb8:	597d                	li	s2,-1
40008eba:	0807f793          	andi	a5,a5,128
40008ebe:	d7d5                	beqz	a5,40008e6a <_fclose_r+0x4e>
40008ec0:	480c                	lw	a1,16(s0)
40008ec2:	8526                	mv	a0,s1
40008ec4:	908fb0ef          	jal	ra,40003fcc <_free_r>
40008ec8:	b74d                	j	40008e6a <_fclose_r+0x4e>

40008eca <_fstat_r>:
40008eca:	1141                	addi	sp,sp,-16
40008ecc:	872e                	mv	a4,a1
40008ece:	c422                	sw	s0,8(sp)
40008ed0:	c226                	sw	s1,4(sp)
40008ed2:	842a                	mv	s0,a0
40008ed4:	4000c4b7          	lui	s1,0x4000c
40008ed8:	85b2                	mv	a1,a2
40008eda:	853a                	mv	a0,a4
40008edc:	c606                	sw	ra,12(sp)
40008ede:	2404a823          	sw	zero,592(s1) # 4000c250 <errno>
40008ee2:	221d                	jal	40009008 <_fstat>
40008ee4:	57fd                	li	a5,-1
40008ee6:	00f50763          	beq	a0,a5,40008ef4 <_fstat_r+0x2a>
40008eea:	40b2                	lw	ra,12(sp)
40008eec:	4422                	lw	s0,8(sp)
40008eee:	4492                	lw	s1,4(sp)
40008ef0:	0141                	addi	sp,sp,16
40008ef2:	8082                	ret
40008ef4:	2504a783          	lw	a5,592(s1)
40008ef8:	dbed                	beqz	a5,40008eea <_fstat_r+0x20>
40008efa:	40b2                	lw	ra,12(sp)
40008efc:	c01c                	sw	a5,0(s0)
40008efe:	4422                	lw	s0,8(sp)
40008f00:	4492                	lw	s1,4(sp)
40008f02:	0141                	addi	sp,sp,16
40008f04:	8082                	ret

40008f06 <_isatty_r>:
40008f06:	1141                	addi	sp,sp,-16
40008f08:	c422                	sw	s0,8(sp)
40008f0a:	c226                	sw	s1,4(sp)
40008f0c:	842a                	mv	s0,a0
40008f0e:	4000c4b7          	lui	s1,0x4000c
40008f12:	852e                	mv	a0,a1
40008f14:	c606                	sw	ra,12(sp)
40008f16:	2404a823          	sw	zero,592(s1) # 4000c250 <errno>
40008f1a:	2235                	jal	40009046 <_isatty>
40008f1c:	57fd                	li	a5,-1
40008f1e:	00f50763          	beq	a0,a5,40008f2c <_isatty_r+0x26>
40008f22:	40b2                	lw	ra,12(sp)
40008f24:	4422                	lw	s0,8(sp)
40008f26:	4492                	lw	s1,4(sp)
40008f28:	0141                	addi	sp,sp,16
40008f2a:	8082                	ret
40008f2c:	2504a783          	lw	a5,592(s1)
40008f30:	dbed                	beqz	a5,40008f22 <_isatty_r+0x1c>
40008f32:	40b2                	lw	ra,12(sp)
40008f34:	c01c                	sw	a5,0(s0)
40008f36:	4422                	lw	s0,8(sp)
40008f38:	4492                	lw	s1,4(sp)
40008f3a:	0141                	addi	sp,sp,16
40008f3c:	8082                	ret

40008f3e <_lseek_r>:
40008f3e:	1141                	addi	sp,sp,-16
40008f40:	872e                	mv	a4,a1
40008f42:	c422                	sw	s0,8(sp)
40008f44:	c226                	sw	s1,4(sp)
40008f46:	85b2                	mv	a1,a2
40008f48:	842a                	mv	s0,a0
40008f4a:	4000c4b7          	lui	s1,0x4000c
40008f4e:	8636                	mv	a2,a3
40008f50:	853a                	mv	a0,a4
40008f52:	c606                	sw	ra,12(sp)
40008f54:	2404a823          	sw	zero,592(s1) # 4000c250 <errno>
40008f58:	221d                	jal	4000907e <_lseek>
40008f5a:	57fd                	li	a5,-1
40008f5c:	00f50763          	beq	a0,a5,40008f6a <_lseek_r+0x2c>
40008f60:	40b2                	lw	ra,12(sp)
40008f62:	4422                	lw	s0,8(sp)
40008f64:	4492                	lw	s1,4(sp)
40008f66:	0141                	addi	sp,sp,16
40008f68:	8082                	ret
40008f6a:	2504a783          	lw	a5,592(s1)
40008f6e:	dbed                	beqz	a5,40008f60 <_lseek_r+0x22>
40008f70:	40b2                	lw	ra,12(sp)
40008f72:	c01c                	sw	a5,0(s0)
40008f74:	4422                	lw	s0,8(sp)
40008f76:	4492                	lw	s1,4(sp)
40008f78:	0141                	addi	sp,sp,16
40008f7a:	8082                	ret

40008f7c <_read_r>:
40008f7c:	1141                	addi	sp,sp,-16
40008f7e:	872e                	mv	a4,a1
40008f80:	c422                	sw	s0,8(sp)
40008f82:	c226                	sw	s1,4(sp)
40008f84:	85b2                	mv	a1,a2
40008f86:	842a                	mv	s0,a0
40008f88:	4000c4b7          	lui	s1,0x4000c
40008f8c:	8636                	mv	a2,a3
40008f8e:	853a                	mv	a0,a4
40008f90:	c606                	sw	ra,12(sp)
40008f92:	2404a823          	sw	zero,592(s1) # 4000c250 <errno>
40008f96:	2a11                	jal	400090aa <_read>
40008f98:	57fd                	li	a5,-1
40008f9a:	00f50763          	beq	a0,a5,40008fa8 <_read_r+0x2c>
40008f9e:	40b2                	lw	ra,12(sp)
40008fa0:	4422                	lw	s0,8(sp)
40008fa2:	4492                	lw	s1,4(sp)
40008fa4:	0141                	addi	sp,sp,16
40008fa6:	8082                	ret
40008fa8:	2504a783          	lw	a5,592(s1)
40008fac:	dbed                	beqz	a5,40008f9e <_read_r+0x22>
40008fae:	40b2                	lw	ra,12(sp)
40008fb0:	c01c                	sw	a5,0(s0)
40008fb2:	4422                	lw	s0,8(sp)
40008fb4:	4492                	lw	s1,4(sp)
40008fb6:	0141                	addi	sp,sp,16
40008fb8:	8082                	ret

40008fba <_close>:
40008fba:	1141                	addi	sp,sp,-16
40008fbc:	c606                	sw	ra,12(sp)
40008fbe:	c422                	sw	s0,8(sp)
40008fc0:	03900893          	li	a7,57
40008fc4:	00000073          	ecall
40008fc8:	842a                	mv	s0,a0
40008fca:	00054763          	bltz	a0,40008fd8 <_close+0x1e>
40008fce:	40b2                	lw	ra,12(sp)
40008fd0:	8522                	mv	a0,s0
40008fd2:	4422                	lw	s0,8(sp)
40008fd4:	0141                	addi	sp,sp,16
40008fd6:	8082                	ret
40008fd8:	40800433          	neg	s0,s0
40008fdc:	de7fd0ef          	jal	ra,40006dc2 <__errno>
40008fe0:	c100                	sw	s0,0(a0)
40008fe2:	547d                	li	s0,-1
40008fe4:	b7ed                	j	40008fce <_close+0x14>

40008fe6 <_exit>:
40008fe6:	05d00893          	li	a7,93
40008fea:	00000073          	ecall
40008fee:	00054363          	bltz	a0,40008ff4 <_exit+0xe>
40008ff2:	a001                	j	40008ff2 <_exit+0xc>
40008ff4:	1141                	addi	sp,sp,-16
40008ff6:	c422                	sw	s0,8(sp)
40008ff8:	842a                	mv	s0,a0
40008ffa:	c606                	sw	ra,12(sp)
40008ffc:	40800433          	neg	s0,s0
40009000:	dc3fd0ef          	jal	ra,40006dc2 <__errno>
40009004:	c100                	sw	s0,0(a0)
40009006:	a001                	j	40009006 <_exit+0x20>

40009008 <_fstat>:
40009008:	7175                	addi	sp,sp,-144
4000900a:	c326                	sw	s1,132(sp)
4000900c:	c706                	sw	ra,140(sp)
4000900e:	84ae                	mv	s1,a1
40009010:	c522                	sw	s0,136(sp)
40009012:	05000893          	li	a7,80
40009016:	858a                	mv	a1,sp
40009018:	00000073          	ecall
4000901c:	842a                	mv	s0,a0
4000901e:	00054b63          	bltz	a0,40009034 <_fstat+0x2c>
40009022:	8526                	mv	a0,s1
40009024:	858a                	mv	a1,sp
40009026:	2a15                	jal	4000915a <_conv_stat>
40009028:	40ba                	lw	ra,140(sp)
4000902a:	8522                	mv	a0,s0
4000902c:	442a                	lw	s0,136(sp)
4000902e:	449a                	lw	s1,132(sp)
40009030:	6149                	addi	sp,sp,144
40009032:	8082                	ret
40009034:	40800433          	neg	s0,s0
40009038:	d8bfd0ef          	jal	ra,40006dc2 <__errno>
4000903c:	c100                	sw	s0,0(a0)
4000903e:	547d                	li	s0,-1
40009040:	b7cd                	j	40009022 <_fstat+0x1a>

40009042 <_getpid>:
40009042:	4505                	li	a0,1
40009044:	8082                	ret

40009046 <_isatty>:
40009046:	7159                	addi	sp,sp,-112
40009048:	002c                	addi	a1,sp,8
4000904a:	d686                	sw	ra,108(sp)
4000904c:	fbdff0ef          	jal	ra,40009008 <_fstat>
40009050:	57fd                	li	a5,-1
40009052:	00f50863          	beq	a0,a5,40009062 <_isatty+0x1c>
40009056:	4532                	lw	a0,12(sp)
40009058:	50b6                	lw	ra,108(sp)
4000905a:	8135                	srli	a0,a0,0xd
4000905c:	8905                	andi	a0,a0,1
4000905e:	6165                	addi	sp,sp,112
40009060:	8082                	ret
40009062:	50b6                	lw	ra,108(sp)
40009064:	4501                	li	a0,0
40009066:	6165                	addi	sp,sp,112
40009068:	8082                	ret

4000906a <_kill>:
4000906a:	1141                	addi	sp,sp,-16
4000906c:	c606                	sw	ra,12(sp)
4000906e:	d55fd0ef          	jal	ra,40006dc2 <__errno>
40009072:	40b2                	lw	ra,12(sp)
40009074:	47d9                	li	a5,22
40009076:	c11c                	sw	a5,0(a0)
40009078:	557d                	li	a0,-1
4000907a:	0141                	addi	sp,sp,16
4000907c:	8082                	ret

4000907e <_lseek>:
4000907e:	1141                	addi	sp,sp,-16
40009080:	c606                	sw	ra,12(sp)
40009082:	c422                	sw	s0,8(sp)
40009084:	03e00893          	li	a7,62
40009088:	00000073          	ecall
4000908c:	842a                	mv	s0,a0
4000908e:	00054763          	bltz	a0,4000909c <_lseek+0x1e>
40009092:	40b2                	lw	ra,12(sp)
40009094:	8522                	mv	a0,s0
40009096:	4422                	lw	s0,8(sp)
40009098:	0141                	addi	sp,sp,16
4000909a:	8082                	ret
4000909c:	40800433          	neg	s0,s0
400090a0:	d23fd0ef          	jal	ra,40006dc2 <__errno>
400090a4:	c100                	sw	s0,0(a0)
400090a6:	547d                	li	s0,-1
400090a8:	b7ed                	j	40009092 <_lseek+0x14>

400090aa <_read>:
400090aa:	1141                	addi	sp,sp,-16
400090ac:	c606                	sw	ra,12(sp)
400090ae:	c422                	sw	s0,8(sp)
400090b0:	03f00893          	li	a7,63
400090b4:	00000073          	ecall
400090b8:	842a                	mv	s0,a0
400090ba:	00054763          	bltz	a0,400090c8 <_read+0x1e>
400090be:	40b2                	lw	ra,12(sp)
400090c0:	8522                	mv	a0,s0
400090c2:	4422                	lw	s0,8(sp)
400090c4:	0141                	addi	sp,sp,16
400090c6:	8082                	ret
400090c8:	40800433          	neg	s0,s0
400090cc:	cf7fd0ef          	jal	ra,40006dc2 <__errno>
400090d0:	c100                	sw	s0,0(a0)
400090d2:	547d                	li	s0,-1
400090d4:	b7ed                	j	400090be <_read+0x14>

400090d6 <_sbrk>:
400090d6:	4000c6b7          	lui	a3,0x4000c
400090da:	2546a703          	lw	a4,596(a3) # 4000c254 <heap_end.0>
400090de:	1141                	addi	sp,sp,-16
400090e0:	c606                	sw	ra,12(sp)
400090e2:	87aa                	mv	a5,a0
400090e4:	ef01                	bnez	a4,400090fc <_sbrk+0x26>
400090e6:	0d600893          	li	a7,214
400090ea:	4501                	li	a0,0
400090ec:	00000073          	ecall
400090f0:	567d                	li	a2,-1
400090f2:	872a                	mv	a4,a0
400090f4:	02c50563          	beq	a0,a2,4000911e <_sbrk+0x48>
400090f8:	24a6aa23          	sw	a0,596(a3)
400090fc:	0d600893          	li	a7,214
40009100:	00e78533          	add	a0,a5,a4
40009104:	00000073          	ecall
40009108:	2546a703          	lw	a4,596(a3)
4000910c:	97ba                	add	a5,a5,a4
4000910e:	00f51863          	bne	a0,a5,4000911e <_sbrk+0x48>
40009112:	40b2                	lw	ra,12(sp)
40009114:	24a6aa23          	sw	a0,596(a3)
40009118:	853a                	mv	a0,a4
4000911a:	0141                	addi	sp,sp,16
4000911c:	8082                	ret
4000911e:	ca5fd0ef          	jal	ra,40006dc2 <__errno>
40009122:	40b2                	lw	ra,12(sp)
40009124:	47b1                	li	a5,12
40009126:	c11c                	sw	a5,0(a0)
40009128:	557d                	li	a0,-1
4000912a:	0141                	addi	sp,sp,16
4000912c:	8082                	ret

4000912e <_write>:
4000912e:	1141                	addi	sp,sp,-16
40009130:	c606                	sw	ra,12(sp)
40009132:	c422                	sw	s0,8(sp)
40009134:	04000893          	li	a7,64
40009138:	00000073          	ecall
4000913c:	842a                	mv	s0,a0
4000913e:	00054763          	bltz	a0,4000914c <_write+0x1e>
40009142:	40b2                	lw	ra,12(sp)
40009144:	8522                	mv	a0,s0
40009146:	4422                	lw	s0,8(sp)
40009148:	0141                	addi	sp,sp,16
4000914a:	8082                	ret
4000914c:	40800433          	neg	s0,s0
40009150:	c73fd0ef          	jal	ra,40006dc2 <__errno>
40009154:	c100                	sw	s0,0(a0)
40009156:	547d                	li	s0,-1
40009158:	b7ed                	j	40009142 <_write+0x14>

4000915a <_conv_stat>:
4000915a:	0185d703          	lhu	a4,24(a1)
4000915e:	0145d783          	lhu	a5,20(a1)
40009162:	1141                	addi	sp,sp,-16
40009164:	01c5a283          	lw	t0,28(a1)
40009168:	0205af83          	lw	t6,32(a1)
4000916c:	0305af03          	lw	t5,48(a1)
40009170:	0405ae83          	lw	t4,64(a1)
40009174:	0385ae03          	lw	t3,56(a1)
40009178:	0485a303          	lw	t1,72(a1)
4000917c:	04c5a383          	lw	t2,76(a1)
40009180:	0585a803          	lw	a6,88(a1)
40009184:	05c5a883          	lw	a7,92(a1)
40009188:	c622                	sw	s0,12(sp)
4000918a:	c426                	sw	s1,8(sp)
4000918c:	4980                	lw	s0,16(a1)
4000918e:	4584                	lw	s1,8(a1)
40009190:	c24a                	sw	s2,4(sp)
40009192:	0005a903          	lw	s2,0(a1)
40009196:	55b0                	lw	a2,104(a1)
40009198:	0742                	slli	a4,a4,0x10
4000919a:	8fd9                	or	a5,a5,a4
4000919c:	55f4                	lw	a3,108(a1)
4000919e:	01251023          	sh	s2,0(a0)
400091a2:	00951123          	sh	s1,2(a0)
400091a6:	c140                	sw	s0,4(a0)
400091a8:	c51c                	sw	a5,8(a0)
400091aa:	00551623          	sh	t0,12(a0)
400091ae:	01f51723          	sh	t6,14(a0)
400091b2:	01e52823          	sw	t5,16(a0)
400091b6:	05d52623          	sw	t4,76(a0)
400091ba:	05c52423          	sw	t3,72(a0)
400091be:	00652c23          	sw	t1,24(a0)
400091c2:	00752e23          	sw	t2,28(a0)
400091c6:	03052423          	sw	a6,40(a0)
400091ca:	03152623          	sw	a7,44(a0)
400091ce:	dd10                	sw	a2,56(a0)
400091d0:	4432                	lw	s0,12(sp)
400091d2:	dd54                	sw	a3,60(a0)
400091d4:	44a2                	lw	s1,8(sp)
400091d6:	4912                	lw	s2,4(sp)
400091d8:	0141                	addi	sp,sp,16
400091da:	8082                	ret

400091dc <__muldf3>:
400091dc:	7179                	addi	sp,sp,-48
400091de:	ca56                	sw	s5,20(sp)
400091e0:	0145da93          	srli	s5,a1,0x14
400091e4:	d422                	sw	s0,40(sp)
400091e6:	d226                	sw	s1,36(sp)
400091e8:	ce4e                	sw	s3,28(sp)
400091ea:	cc52                	sw	s4,24(sp)
400091ec:	c85a                	sw	s6,16(sp)
400091ee:	00c59493          	slli	s1,a1,0xc
400091f2:	d606                	sw	ra,44(sp)
400091f4:	d04a                	sw	s2,32(sp)
400091f6:	c65e                	sw	s7,12(sp)
400091f8:	7ffafa93          	andi	s5,s5,2047
400091fc:	842a                	mv	s0,a0
400091fe:	8b32                	mv	s6,a2
40009200:	89b6                	mv	s3,a3
40009202:	80b1                	srli	s1,s1,0xc
40009204:	01f5da13          	srli	s4,a1,0x1f
40009208:	240a8663          	beqz	s5,40009454 <__muldf3+0x278>
4000920c:	7ff00793          	li	a5,2047
40009210:	28fa8c63          	beq	s5,a5,400094a8 <__muldf3+0x2cc>
40009214:	048e                	slli	s1,s1,0x3
40009216:	01d55793          	srli	a5,a0,0x1d
4000921a:	8fc5                	or	a5,a5,s1
4000921c:	008004b7          	lui	s1,0x800
40009220:	8cdd                	or	s1,s1,a5
40009222:	00351913          	slli	s2,a0,0x3
40009226:	c01a8a93          	addi	s5,s5,-1023 # 7ffffc01 <_bss_lma+0xfffff161>
4000922a:	4b81                	li	s7,0
4000922c:	0149d713          	srli	a4,s3,0x14
40009230:	00c99413          	slli	s0,s3,0xc
40009234:	7ff77713          	andi	a4,a4,2047
40009238:	8031                	srli	s0,s0,0xc
4000923a:	01f9d993          	srli	s3,s3,0x1f
4000923e:	28070763          	beqz	a4,400094cc <__muldf3+0x2f0>
40009242:	7ff00793          	li	a5,2047
40009246:	2cf70c63          	beq	a4,a5,4000951e <__muldf3+0x342>
4000924a:	040e                	slli	s0,s0,0x3
4000924c:	01db5793          	srli	a5,s6,0x1d
40009250:	8fc1                	or	a5,a5,s0
40009252:	00800437          	lui	s0,0x800
40009256:	8c5d                	or	s0,s0,a5
40009258:	c0170693          	addi	a3,a4,-1023
4000925c:	003b1793          	slli	a5,s6,0x3
40009260:	4501                	li	a0,0
40009262:	002b9713          	slli	a4,s7,0x2
40009266:	9ab6                	add	s5,s5,a3
40009268:	8f49                	or	a4,a4,a0
4000926a:	46a9                	li	a3,10
4000926c:	013a4633          	xor	a2,s4,s3
40009270:	001a8593          	addi	a1,s5,1
40009274:	30e6c163          	blt	a3,a4,40009576 <__muldf3+0x39a>
40009278:	4689                	li	a3,2
4000927a:	2ce6c363          	blt	a3,a4,40009540 <__muldf3+0x364>
4000927e:	177d                	addi	a4,a4,-1
40009280:	4685                	li	a3,1
40009282:	2ce6fe63          	bgeu	a3,a4,4000955e <__muldf3+0x382>
40009286:	6841                	lui	a6,0x10
40009288:	fff80e93          	addi	t4,a6,-1 # ffff <__stack_size+0xfed3>
4000928c:	01095693          	srli	a3,s2,0x10
40009290:	0107d893          	srli	a7,a5,0x10
40009294:	01d97933          	and	s2,s2,t4
40009298:	01d7ff33          	and	t5,a5,t4
4000929c:	03e907b3          	mul	a5,s2,t5
400092a0:	03e68333          	mul	t1,a3,t5
400092a4:	0107d513          	srli	a0,a5,0x10
400092a8:	03288733          	mul	a4,a7,s2
400092ac:	971a                	add	a4,a4,t1
400092ae:	953a                	add	a0,a0,a4
400092b0:	03168e33          	mul	t3,a3,a7
400092b4:	00657363          	bgeu	a0,t1,400092ba <__muldf3+0xde>
400092b8:	9e42                	add	t3,t3,a6
400092ba:	01055713          	srli	a4,a0,0x10
400092be:	01d57533          	and	a0,a0,t4
400092c2:	01d7f7b3          	and	a5,a5,t4
400092c6:	01045813          	srli	a6,s0,0x10
400092ca:	01d47eb3          	and	t4,s0,t4
400092ce:	0542                	slli	a0,a0,0x10
400092d0:	953e                	add	a0,a0,a5
400092d2:	03d90fb3          	mul	t6,s2,t4
400092d6:	03d687b3          	mul	a5,a3,t4
400092da:	03280933          	mul	s2,a6,s2
400092de:	03068333          	mul	t1,a3,a6
400092e2:	993e                	add	s2,s2,a5
400092e4:	010fd693          	srli	a3,t6,0x10
400092e8:	96ca                	add	a3,a3,s2
400092ea:	00f6f463          	bgeu	a3,a5,400092f2 <__muldf3+0x116>
400092ee:	67c1                	lui	a5,0x10
400092f0:	933e                	add	t1,t1,a5
400092f2:	63c1                	lui	t2,0x10
400092f4:	0106d793          	srli	a5,a3,0x10
400092f8:	fff38293          	addi	t0,t2,-1 # ffff <__stack_size+0xfed3>
400092fc:	933e                	add	t1,t1,a5
400092fe:	0056f7b3          	and	a5,a3,t0
40009302:	005fffb3          	and	t6,t6,t0
40009306:	0104d913          	srli	s2,s1,0x10
4000930a:	0054f2b3          	and	t0,s1,t0
4000930e:	07c2                	slli	a5,a5,0x10
40009310:	97fe                	add	a5,a5,t6
40009312:	03288433          	mul	s0,a7,s2
40009316:	973e                	add	a4,a4,a5
40009318:	025f0fb3          	mul	t6,t5,t0
4000931c:	025888b3          	mul	a7,a7,t0
40009320:	010fd693          	srli	a3,t6,0x10
40009324:	03e90f33          	mul	t5,s2,t5
40009328:	98fa                	add	a7,a7,t5
4000932a:	96c6                	add	a3,a3,a7
4000932c:	01e6f363          	bgeu	a3,t5,40009332 <__muldf3+0x156>
40009330:	941e                	add	s0,s0,t2
40009332:	025e83b3          	mul	t2,t4,t0
40009336:	0106df13          	srli	t5,a3,0x10
4000933a:	64c1                	lui	s1,0x10
4000933c:	9f22                	add	t5,t5,s0
4000933e:	fff48413          	addi	s0,s1,-1 # ffff <__stack_size+0xfed3>
40009342:	8ee1                	and	a3,a3,s0
40009344:	06c2                	slli	a3,a3,0x10
40009346:	008fffb3          	and	t6,t6,s0
4000934a:	9fb6                	add	t6,t6,a3
4000934c:	03d90eb3          	mul	t4,s2,t4
40009350:	0103d693          	srli	a3,t2,0x10
40009354:	032808b3          	mul	a7,a6,s2
40009358:	02580833          	mul	a6,a6,t0
4000935c:	9876                	add	a6,a6,t4
4000935e:	9836                	add	a6,a6,a3
40009360:	01d87363          	bgeu	a6,t4,40009366 <__muldf3+0x18a>
40009364:	98a6                	add	a7,a7,s1
40009366:	008876b3          	and	a3,a6,s0
4000936a:	0083f3b3          	and	t2,t2,s0
4000936e:	06c2                	slli	a3,a3,0x10
40009370:	9772                	add	a4,a4,t3
40009372:	969e                	add	a3,a3,t2
40009374:	9336                	add	t1,t1,a3
40009376:	00f737b3          	sltu	a5,a4,a5
4000937a:	979a                	add	a5,a5,t1
4000937c:	00d336b3          	sltu	a3,t1,a3
40009380:	0067b333          	sltu	t1,a5,t1
40009384:	01085813          	srli	a6,a6,0x10
40009388:	0066e6b3          	or	a3,a3,t1
4000938c:	96c2                	add	a3,a3,a6
4000938e:	01f70833          	add	a6,a4,t6
40009392:	9f3e                	add	t5,t5,a5
40009394:	00e83733          	sltu	a4,a6,a4
40009398:	977a                	add	a4,a4,t5
4000939a:	00ff3433          	sltu	s0,t5,a5
4000939e:	01e73f33          	sltu	t5,a4,t5
400093a2:	01e46433          	or	s0,s0,t5
400093a6:	9436                	add	s0,s0,a3
400093a8:	9446                	add	s0,s0,a7
400093aa:	01775793          	srli	a5,a4,0x17
400093ae:	0426                	slli	s0,s0,0x9
400093b0:	8c5d                	or	s0,s0,a5
400093b2:	00981793          	slli	a5,a6,0x9
400093b6:	8fc9                	or	a5,a5,a0
400093b8:	00f037b3          	snez	a5,a5
400093bc:	01785813          	srli	a6,a6,0x17
400093c0:	0726                	slli	a4,a4,0x9
400093c2:	0107e7b3          	or	a5,a5,a6
400093c6:	8fd9                	or	a5,a5,a4
400093c8:	01000737          	lui	a4,0x1000
400093cc:	8f61                	and	a4,a4,s0
400093ce:	1a070f63          	beqz	a4,4000958c <__muldf3+0x3b0>
400093d2:	0017d713          	srli	a4,a5,0x1
400093d6:	8b85                	andi	a5,a5,1
400093d8:	8f5d                	or	a4,a4,a5
400093da:	01f41793          	slli	a5,s0,0x1f
400093de:	8fd9                	or	a5,a5,a4
400093e0:	8005                	srli	s0,s0,0x1
400093e2:	3ff58693          	addi	a3,a1,1023
400093e6:	1ad05563          	blez	a3,40009590 <__muldf3+0x3b4>
400093ea:	0077f713          	andi	a4,a5,7
400093ee:	cf01                	beqz	a4,40009406 <__muldf3+0x22a>
400093f0:	00f7f713          	andi	a4,a5,15
400093f4:	4511                	li	a0,4
400093f6:	00a70863          	beq	a4,a0,40009406 <__muldf3+0x22a>
400093fa:	00478713          	addi	a4,a5,4 # 10004 <__stack_size+0xfed8>
400093fe:	00f73533          	sltu	a0,a4,a5
40009402:	942a                	add	s0,s0,a0
40009404:	87ba                	mv	a5,a4
40009406:	01000737          	lui	a4,0x1000
4000940a:	8f61                	and	a4,a4,s0
4000940c:	c719                	beqz	a4,4000941a <__muldf3+0x23e>
4000940e:	ff000737          	lui	a4,0xff000
40009412:	177d                	addi	a4,a4,-1 # feffffff <_bss_lma+0x7efff55f>
40009414:	8c79                	and	s0,s0,a4
40009416:	40058693          	addi	a3,a1,1024
4000941a:	7fe00713          	li	a4,2046
4000941e:	20d74863          	blt	a4,a3,4000962e <__muldf3+0x452>
40009422:	01d41713          	slli	a4,s0,0x1d
40009426:	838d                	srli	a5,a5,0x3
40009428:	8f5d                	or	a4,a4,a5
4000942a:	800d                	srli	s0,s0,0x3
4000942c:	0432                	slli	s0,s0,0xc
4000942e:	8031                	srli	s0,s0,0xc
40009430:	06d2                	slli	a3,a3,0x14
40009432:	50b2                	lw	ra,44(sp)
40009434:	8ec1                	or	a3,a3,s0
40009436:	5422                	lw	s0,40(sp)
40009438:	067e                	slli	a2,a2,0x1f
4000943a:	00c6e7b3          	or	a5,a3,a2
4000943e:	5492                	lw	s1,36(sp)
40009440:	5902                	lw	s2,32(sp)
40009442:	49f2                	lw	s3,28(sp)
40009444:	4a62                	lw	s4,24(sp)
40009446:	4ad2                	lw	s5,20(sp)
40009448:	4b42                	lw	s6,16(sp)
4000944a:	4bb2                	lw	s7,12(sp)
4000944c:	853a                	mv	a0,a4
4000944e:	85be                	mv	a1,a5
40009450:	6145                	addi	sp,sp,48
40009452:	8082                	ret
40009454:	00a4e933          	or	s2,s1,a0
40009458:	06090163          	beqz	s2,400094ba <__muldf3+0x2de>
4000945c:	c885                	beqz	s1,4000948c <__muldf3+0x2b0>
4000945e:	8526                	mv	a0,s1
40009460:	b8bf80ef          	jal	ra,40001fea <__clzsi2>
40009464:	ff550713          	addi	a4,a0,-11
40009468:	47f5                	li	a5,29
4000946a:	ff850693          	addi	a3,a0,-8
4000946e:	8f99                	sub	a5,a5,a4
40009470:	00d494b3          	sll	s1,s1,a3
40009474:	00f457b3          	srl	a5,s0,a5
40009478:	8fc5                	or	a5,a5,s1
4000947a:	00d414b3          	sll	s1,s0,a3
4000947e:	c0d00a93          	li	s5,-1011
40009482:	8926                	mv	s2,s1
40009484:	40aa8ab3          	sub	s5,s5,a0
40009488:	84be                	mv	s1,a5
4000948a:	b345                	j	4000922a <__muldf3+0x4e>
4000948c:	b5ff80ef          	jal	ra,40001fea <__clzsi2>
40009490:	87aa                	mv	a5,a0
40009492:	01578713          	addi	a4,a5,21
40009496:	46f1                	li	a3,28
40009498:	02050513          	addi	a0,a0,32
4000949c:	fce6d6e3          	bge	a3,a4,40009468 <__muldf3+0x28c>
400094a0:	17e1                	addi	a5,a5,-8
400094a2:	00f417b3          	sll	a5,s0,a5
400094a6:	bfe1                	j	4000947e <__muldf3+0x2a2>
400094a8:	00a4e933          	or	s2,s1,a0
400094ac:	00090b63          	beqz	s2,400094c2 <__muldf3+0x2e6>
400094b0:	892a                	mv	s2,a0
400094b2:	7ff00a93          	li	s5,2047
400094b6:	4b8d                	li	s7,3
400094b8:	bb95                	j	4000922c <__muldf3+0x50>
400094ba:	4481                	li	s1,0
400094bc:	4a81                	li	s5,0
400094be:	4b85                	li	s7,1
400094c0:	b3b5                	j	4000922c <__muldf3+0x50>
400094c2:	4481                	li	s1,0
400094c4:	7ff00a93          	li	s5,2047
400094c8:	4b89                	li	s7,2
400094ca:	b38d                	j	4000922c <__muldf3+0x50>
400094cc:	016467b3          	or	a5,s0,s6
400094d0:	cfb9                	beqz	a5,4000952e <__muldf3+0x352>
400094d2:	c41d                	beqz	s0,40009500 <__muldf3+0x324>
400094d4:	8522                	mv	a0,s0
400094d6:	b15f80ef          	jal	ra,40001fea <__clzsi2>
400094da:	ff550693          	addi	a3,a0,-11
400094de:	4775                	li	a4,29
400094e0:	ff850793          	addi	a5,a0,-8
400094e4:	8f15                	sub	a4,a4,a3
400094e6:	00f41433          	sll	s0,s0,a5
400094ea:	00eb5733          	srl	a4,s6,a4
400094ee:	8f41                	or	a4,a4,s0
400094f0:	00fb1433          	sll	s0,s6,a5
400094f4:	c0d00693          	li	a3,-1011
400094f8:	87a2                	mv	a5,s0
400094fa:	8e89                	sub	a3,a3,a0
400094fc:	843a                	mv	s0,a4
400094fe:	b38d                	j	40009260 <__muldf3+0x84>
40009500:	855a                	mv	a0,s6
40009502:	ae9f80ef          	jal	ra,40001fea <__clzsi2>
40009506:	87aa                	mv	a5,a0
40009508:	01578693          	addi	a3,a5,21
4000950c:	4771                	li	a4,28
4000950e:	02050513          	addi	a0,a0,32
40009512:	fcd756e3          	bge	a4,a3,400094de <__muldf3+0x302>
40009516:	17e1                	addi	a5,a5,-8
40009518:	00fb1733          	sll	a4,s6,a5
4000951c:	bfe1                	j	400094f4 <__muldf3+0x318>
4000951e:	016467b3          	or	a5,s0,s6
40009522:	cb91                	beqz	a5,40009536 <__muldf3+0x35a>
40009524:	87da                	mv	a5,s6
40009526:	7ff00693          	li	a3,2047
4000952a:	450d                	li	a0,3
4000952c:	bb1d                	j	40009262 <__muldf3+0x86>
4000952e:	4401                	li	s0,0
40009530:	4681                	li	a3,0
40009532:	4505                	li	a0,1
40009534:	b33d                	j	40009262 <__muldf3+0x86>
40009536:	4401                	li	s0,0
40009538:	7ff00693          	li	a3,2047
4000953c:	4509                	li	a0,2
4000953e:	b315                	j	40009262 <__muldf3+0x86>
40009540:	4685                	li	a3,1
40009542:	00e696b3          	sll	a3,a3,a4
40009546:	5306f713          	andi	a4,a3,1328
4000954a:	ef0d                	bnez	a4,40009584 <__muldf3+0x3a8>
4000954c:	2406f813          	andi	a6,a3,576
40009550:	0c081563          	bnez	a6,4000961a <__muldf3+0x43e>
40009554:	0886f693          	andi	a3,a3,136
40009558:	d20687e3          	beqz	a3,40009286 <__muldf3+0xaa>
4000955c:	864e                	mv	a2,s3
4000955e:	4709                	li	a4,2
40009560:	0ce50763          	beq	a0,a4,4000962e <__muldf3+0x452>
40009564:	470d                	li	a4,3
40009566:	0ce50063          	beq	a0,a4,40009626 <__muldf3+0x44a>
4000956a:	4705                	li	a4,1
4000956c:	e6e51be3          	bne	a0,a4,400093e2 <__muldf3+0x206>
40009570:	4401                	li	s0,0
40009572:	4701                	li	a4,0
40009574:	a8ad                	j	400095ee <__muldf3+0x412>
40009576:	46bd                	li	a3,15
40009578:	0ad70763          	beq	a4,a3,40009626 <__muldf3+0x44a>
4000957c:	46ad                	li	a3,11
4000957e:	8652                	mv	a2,s4
40009580:	fcd70ee3          	beq	a4,a3,4000955c <__muldf3+0x380>
40009584:	8426                	mv	s0,s1
40009586:	87ca                	mv	a5,s2
40009588:	855e                	mv	a0,s7
4000958a:	bfd1                	j	4000955e <__muldf3+0x382>
4000958c:	85d6                	mv	a1,s5
4000958e:	bd91                	j	400093e2 <__muldf3+0x206>
40009590:	4505                	li	a0,1
40009592:	ca89                	beqz	a3,400095a4 <__muldf3+0x3c8>
40009594:	8d15                	sub	a0,a0,a3
40009596:	03800713          	li	a4,56
4000959a:	fca74be3          	blt	a4,a0,40009570 <__muldf3+0x394>
4000959e:	477d                	li	a4,31
400095a0:	04a74963          	blt	a4,a0,400095f2 <__muldf3+0x416>
400095a4:	41e58593          	addi	a1,a1,1054
400095a8:	00a7d733          	srl	a4,a5,a0
400095ac:	00b797b3          	sll	a5,a5,a1
400095b0:	00f037b3          	snez	a5,a5
400095b4:	00b415b3          	sll	a1,s0,a1
400095b8:	8fcd                	or	a5,a5,a1
400095ba:	8fd9                	or	a5,a5,a4
400095bc:	00a45433          	srl	s0,s0,a0
400095c0:	0077f713          	andi	a4,a5,7
400095c4:	cf01                	beqz	a4,400095dc <__muldf3+0x400>
400095c6:	00f7f713          	andi	a4,a5,15
400095ca:	4691                	li	a3,4
400095cc:	00d70863          	beq	a4,a3,400095dc <__muldf3+0x400>
400095d0:	00478713          	addi	a4,a5,4
400095d4:	00f736b3          	sltu	a3,a4,a5
400095d8:	9436                	add	s0,s0,a3
400095da:	87ba                	mv	a5,a4
400095dc:	00800737          	lui	a4,0x800
400095e0:	8f61                	and	a4,a4,s0
400095e2:	eb39                	bnez	a4,40009638 <__muldf3+0x45c>
400095e4:	01d41713          	slli	a4,s0,0x1d
400095e8:	838d                	srli	a5,a5,0x3
400095ea:	8f5d                	or	a4,a4,a5
400095ec:	800d                	srli	s0,s0,0x3
400095ee:	4681                	li	a3,0
400095f0:	bd35                	j	4000942c <__muldf3+0x250>
400095f2:	5705                	li	a4,-31
400095f4:	8f15                	sub	a4,a4,a3
400095f6:	02000813          	li	a6,32
400095fa:	00e45733          	srl	a4,s0,a4
400095fe:	4681                	li	a3,0
40009600:	01050663          	beq	a0,a6,4000960c <__muldf3+0x430>
40009604:	43e58593          	addi	a1,a1,1086
40009608:	00b416b3          	sll	a3,s0,a1
4000960c:	8edd                	or	a3,a3,a5
4000960e:	00d036b3          	snez	a3,a3
40009612:	00d767b3          	or	a5,a4,a3
40009616:	4401                	li	s0,0
40009618:	b765                	j	400095c0 <__muldf3+0x3e4>
4000961a:	00080437          	lui	s0,0x80
4000961e:	7ff00693          	li	a3,2047
40009622:	4601                	li	a2,0
40009624:	b521                	j	4000942c <__muldf3+0x250>
40009626:	00080437          	lui	s0,0x80
4000962a:	4701                	li	a4,0
4000962c:	bfcd                	j	4000961e <__muldf3+0x442>
4000962e:	4401                	li	s0,0
40009630:	4701                	li	a4,0
40009632:	7ff00693          	li	a3,2047
40009636:	bbdd                	j	4000942c <__muldf3+0x250>
40009638:	4401                	li	s0,0
4000963a:	4701                	li	a4,0
4000963c:	4685                	li	a3,1
4000963e:	b3fd                	j	4000942c <__muldf3+0x250>

40009640 <__eqtf2>:
40009640:	4558                	lw	a4,12(a0)
40009642:	45d0                	lw	a2,12(a1)
40009644:	0005a283          	lw	t0,0(a1)
40009648:	0045af83          	lw	t6,4(a1)
4000964c:	0085af03          	lw	t5,8(a1)
40009650:	65a1                	lui	a1,0x8
40009652:	01075813          	srli	a6,a4,0x10
40009656:	15fd                	addi	a1,a1,-1 # 7fff <__stack_size+0x7ed3>
40009658:	01071893          	slli	a7,a4,0x10
4000965c:	01061e93          	slli	t4,a2,0x10
40009660:	01065693          	srli	a3,a2,0x10
40009664:	00b87833          	and	a6,a6,a1
40009668:	411c                	lw	a5,0(a0)
4000966a:	00452e03          	lw	t3,4(a0)
4000966e:	00852303          	lw	t1,8(a0)
40009672:	1141                	addi	sp,sp,-16
40009674:	0108d893          	srli	a7,a7,0x10
40009678:	837d                	srli	a4,a4,0x1f
4000967a:	010ede93          	srli	t4,t4,0x10
4000967e:	8eed                	and	a3,a3,a1
40009680:	827d                	srli	a2,a2,0x1f
40009682:	4505                	li	a0,1
40009684:	00b80663          	beq	a6,a1,40009690 <__eqtf2+0x50>
40009688:	02b69963          	bne	a3,a1,400096ba <__eqtf2+0x7a>
4000968c:	0141                	addi	sp,sp,16
4000968e:	8082                	ret
40009690:	ff069ee3          	bne	a3,a6,4000968c <__eqtf2+0x4c>
40009694:	01c7e7b3          	or	a5,a5,t3
40009698:	0067e7b3          	or	a5,a5,t1
4000969c:	0117e7b3          	or	a5,a5,a7
400096a0:	0057e7b3          	or	a5,a5,t0
400096a4:	01f7e7b3          	or	a5,a5,t6
400096a8:	01e7e7b3          	or	a5,a5,t5
400096ac:	01d7e7b3          	or	a5,a5,t4
400096b0:	fff1                	bnez	a5,4000968c <__eqtf2+0x4c>
400096b2:	8f11                	sub	a4,a4,a2
400096b4:	00e03533          	snez	a0,a4
400096b8:	bfd1                	j	4000968c <__eqtf2+0x4c>
400096ba:	4505                	li	a0,1
400096bc:	fd0698e3          	bne	a3,a6,4000968c <__eqtf2+0x4c>
400096c0:	fc5796e3          	bne	a5,t0,4000968c <__eqtf2+0x4c>
400096c4:	fdfe14e3          	bne	t3,t6,4000968c <__eqtf2+0x4c>
400096c8:	fde312e3          	bne	t1,t5,4000968c <__eqtf2+0x4c>
400096cc:	fdd890e3          	bne	a7,t4,4000968c <__eqtf2+0x4c>
400096d0:	00c70c63          	beq	a4,a2,400096e8 <__eqtf2+0xa8>
400096d4:	fec5                	bnez	a3,4000968c <__eqtf2+0x4c>
400096d6:	01c7e533          	or	a0,a5,t3
400096da:	00656533          	or	a0,a0,t1
400096de:	01156533          	or	a0,a0,a7
400096e2:	00a03533          	snez	a0,a0
400096e6:	b75d                	j	4000968c <__eqtf2+0x4c>
400096e8:	4501                	li	a0,0
400096ea:	b74d                	j	4000968c <__eqtf2+0x4c>

400096ec <__getf2>:
400096ec:	00052883          	lw	a7,0(a0)
400096f0:	00452303          	lw	t1,4(a0)
400096f4:	00852e03          	lw	t3,8(a0)
400096f8:	4548                	lw	a0,12(a0)
400096fa:	00c5a803          	lw	a6,12(a1)
400096fe:	6721                	lui	a4,0x8
40009700:	01055693          	srli	a3,a0,0x10
40009704:	177d                	addi	a4,a4,-1 # 7fff <__stack_size+0x7ed3>
40009706:	01051613          	slli	a2,a0,0x10
4000970a:	01081f13          	slli	t5,a6,0x10
4000970e:	419c                	lw	a5,0(a1)
40009710:	0045af83          	lw	t6,4(a1)
40009714:	0085ae83          	lw	t4,8(a1)
40009718:	8ef9                	and	a3,a3,a4
4000971a:	01f55593          	srli	a1,a0,0x1f
4000971e:	01085513          	srli	a0,a6,0x10
40009722:	1141                	addi	sp,sp,-16
40009724:	8241                	srli	a2,a2,0x10
40009726:	010f5f13          	srli	t5,t5,0x10
4000972a:	8d79                	and	a0,a0,a4
4000972c:	01f85813          	srli	a6,a6,0x1f
40009730:	02e69d63          	bne	a3,a4,4000976a <__getf2+0x7e>
40009734:	011368b3          	or	a7,t1,a7
40009738:	01c8e8b3          	or	a7,a7,t3
4000973c:	00c8e8b3          	or	a7,a7,a2
40009740:	0a089d63          	bnez	a7,400097fa <__getf2+0x10e>
40009744:	00d50663          	beq	a0,a3,40009750 <__getf2+0x64>
40009748:	4505                	li	a0,1
4000974a:	cd91                	beqz	a1,40009766 <__getf2+0x7a>
4000974c:	557d                	li	a0,-1
4000974e:	a821                	j	40009766 <__getf2+0x7a>
40009750:	01f7e7b3          	or	a5,a5,t6
40009754:	01d7e7b3          	or	a5,a5,t4
40009758:	01e7e7b3          	or	a5,a5,t5
4000975c:	5579                	li	a0,-2
4000975e:	e781                	bnez	a5,40009766 <__getf2+0x7a>
40009760:	4501                	li	a0,0
40009762:	feb813e3          	bne	a6,a1,40009748 <__getf2+0x5c>
40009766:	0141                	addi	sp,sp,16
40009768:	8082                	ret
4000976a:	02e51063          	bne	a0,a4,4000978a <__getf2+0x9e>
4000976e:	01f7e733          	or	a4,a5,t6
40009772:	01d76733          	or	a4,a4,t4
40009776:	01e76733          	or	a4,a4,t5
4000977a:	e341                	bnez	a4,400097fa <__getf2+0x10e>
4000977c:	c285                	beqz	a3,4000979c <__getf2+0xb0>
4000977e:	fcb815e3          	bne	a6,a1,40009748 <__getf2+0x5c>
40009782:	557d                	li	a0,-1
40009784:	d1ed                	beqz	a1,40009766 <__getf2+0x7a>
40009786:	852e                	mv	a0,a1
40009788:	bff9                	j	40009766 <__getf2+0x7a>
4000978a:	c685                	beqz	a3,400097b2 <__getf2+0xc6>
4000978c:	dd55                	beqz	a0,40009748 <__getf2+0x5c>
4000978e:	fab81de3          	bne	a6,a1,40009748 <__getf2+0x5c>
40009792:	fad54be3          	blt	a0,a3,40009748 <__getf2+0x5c>
40009796:	02a6de63          	bge	a3,a0,400097d2 <__getf2+0xe6>
4000979a:	b7e5                	j	40009782 <__getf2+0x96>
4000979c:	01136733          	or	a4,t1,a7
400097a0:	01c76733          	or	a4,a4,t3
400097a4:	8f51                	or	a4,a4,a2
400097a6:	f765                	bnez	a4,4000978e <__getf2+0xa2>
400097a8:	557d                	li	a0,-1
400097aa:	fa080ee3          	beqz	a6,40009766 <__getf2+0x7a>
400097ae:	8542                	mv	a0,a6
400097b0:	bf5d                	j	40009766 <__getf2+0x7a>
400097b2:	01136733          	or	a4,t1,a7
400097b6:	01c76733          	or	a4,a4,t3
400097ba:	8f51                	or	a4,a4,a2
400097bc:	f56d                	bnez	a0,400097a6 <__getf2+0xba>
400097be:	01f7e6b3          	or	a3,a5,t6
400097c2:	01d6e6b3          	or	a3,a3,t4
400097c6:	01e6e6b3          	or	a3,a3,t5
400097ca:	c695                	beqz	a3,400097f6 <__getf2+0x10a>
400097cc:	df71                	beqz	a4,400097a8 <__getf2+0xbc>
400097ce:	f6b81de3          	bne	a6,a1,40009748 <__getf2+0x5c>
400097d2:	f6cf6be3          	bltu	t5,a2,40009748 <__getf2+0x5c>
400097d6:	fbe616e3          	bne	a2,t5,40009782 <__getf2+0x96>
400097da:	f7cee7e3          	bltu	t4,t3,40009748 <__getf2+0x5c>
400097de:	fbde12e3          	bne	t3,t4,40009782 <__getf2+0x96>
400097e2:	f66fe3e3          	bltu	t6,t1,40009748 <__getf2+0x5c>
400097e6:	f9f31ee3          	bne	t1,t6,40009782 <__getf2+0x96>
400097ea:	f517efe3          	bltu	a5,a7,40009748 <__getf2+0x5c>
400097ee:	4501                	li	a0,0
400097f0:	f8f8e9e3          	bltu	a7,a5,40009782 <__getf2+0x96>
400097f4:	bf8d                	j	40009766 <__getf2+0x7a>
400097f6:	db25                	beqz	a4,40009766 <__getf2+0x7a>
400097f8:	bf81                	j	40009748 <__getf2+0x5c>
400097fa:	5579                	li	a0,-2
400097fc:	b7ad                	j	40009766 <__getf2+0x7a>

400097fe <__letf2>:
400097fe:	00052883          	lw	a7,0(a0)
40009802:	00452303          	lw	t1,4(a0)
40009806:	00852e03          	lw	t3,8(a0)
4000980a:	4548                	lw	a0,12(a0)
4000980c:	00c5a803          	lw	a6,12(a1)
40009810:	6721                	lui	a4,0x8
40009812:	01055693          	srli	a3,a0,0x10
40009816:	177d                	addi	a4,a4,-1 # 7fff <__stack_size+0x7ed3>
40009818:	01051613          	slli	a2,a0,0x10
4000981c:	01081f13          	slli	t5,a6,0x10
40009820:	419c                	lw	a5,0(a1)
40009822:	0045af83          	lw	t6,4(a1)
40009826:	0085ae83          	lw	t4,8(a1)
4000982a:	8ef9                	and	a3,a3,a4
4000982c:	01f55593          	srli	a1,a0,0x1f
40009830:	01085513          	srli	a0,a6,0x10
40009834:	1141                	addi	sp,sp,-16
40009836:	8241                	srli	a2,a2,0x10
40009838:	010f5f13          	srli	t5,t5,0x10
4000983c:	8d79                	and	a0,a0,a4
4000983e:	01f85813          	srli	a6,a6,0x1f
40009842:	02e69d63          	bne	a3,a4,4000987c <__letf2+0x7e>
40009846:	011368b3          	or	a7,t1,a7
4000984a:	01c8e8b3          	or	a7,a7,t3
4000984e:	00c8e8b3          	or	a7,a7,a2
40009852:	0a089d63          	bnez	a7,4000990c <__letf2+0x10e>
40009856:	00d50663          	beq	a0,a3,40009862 <__letf2+0x64>
4000985a:	4505                	li	a0,1
4000985c:	cd91                	beqz	a1,40009878 <__letf2+0x7a>
4000985e:	557d                	li	a0,-1
40009860:	a821                	j	40009878 <__letf2+0x7a>
40009862:	01f7e7b3          	or	a5,a5,t6
40009866:	01d7e7b3          	or	a5,a5,t4
4000986a:	01e7e7b3          	or	a5,a5,t5
4000986e:	4509                	li	a0,2
40009870:	e781                	bnez	a5,40009878 <__letf2+0x7a>
40009872:	4501                	li	a0,0
40009874:	feb813e3          	bne	a6,a1,4000985a <__letf2+0x5c>
40009878:	0141                	addi	sp,sp,16
4000987a:	8082                	ret
4000987c:	02e51063          	bne	a0,a4,4000989c <__letf2+0x9e>
40009880:	01f7e733          	or	a4,a5,t6
40009884:	01d76733          	or	a4,a4,t4
40009888:	01e76733          	or	a4,a4,t5
4000988c:	e341                	bnez	a4,4000990c <__letf2+0x10e>
4000988e:	c285                	beqz	a3,400098ae <__letf2+0xb0>
40009890:	fcb815e3          	bne	a6,a1,4000985a <__letf2+0x5c>
40009894:	557d                	li	a0,-1
40009896:	d1ed                	beqz	a1,40009878 <__letf2+0x7a>
40009898:	852e                	mv	a0,a1
4000989a:	bff9                	j	40009878 <__letf2+0x7a>
4000989c:	c685                	beqz	a3,400098c4 <__letf2+0xc6>
4000989e:	dd55                	beqz	a0,4000985a <__letf2+0x5c>
400098a0:	fab81de3          	bne	a6,a1,4000985a <__letf2+0x5c>
400098a4:	fad54be3          	blt	a0,a3,4000985a <__letf2+0x5c>
400098a8:	02a6de63          	bge	a3,a0,400098e4 <__letf2+0xe6>
400098ac:	b7e5                	j	40009894 <__letf2+0x96>
400098ae:	01136733          	or	a4,t1,a7
400098b2:	01c76733          	or	a4,a4,t3
400098b6:	8f51                	or	a4,a4,a2
400098b8:	f765                	bnez	a4,400098a0 <__letf2+0xa2>
400098ba:	557d                	li	a0,-1
400098bc:	fa080ee3          	beqz	a6,40009878 <__letf2+0x7a>
400098c0:	8542                	mv	a0,a6
400098c2:	bf5d                	j	40009878 <__letf2+0x7a>
400098c4:	01136733          	or	a4,t1,a7
400098c8:	01c76733          	or	a4,a4,t3
400098cc:	8f51                	or	a4,a4,a2
400098ce:	f56d                	bnez	a0,400098b8 <__letf2+0xba>
400098d0:	01f7e6b3          	or	a3,a5,t6
400098d4:	01d6e6b3          	or	a3,a3,t4
400098d8:	01e6e6b3          	or	a3,a3,t5
400098dc:	c695                	beqz	a3,40009908 <__letf2+0x10a>
400098de:	df71                	beqz	a4,400098ba <__letf2+0xbc>
400098e0:	f6b81de3          	bne	a6,a1,4000985a <__letf2+0x5c>
400098e4:	f6cf6be3          	bltu	t5,a2,4000985a <__letf2+0x5c>
400098e8:	fbe616e3          	bne	a2,t5,40009894 <__letf2+0x96>
400098ec:	f7cee7e3          	bltu	t4,t3,4000985a <__letf2+0x5c>
400098f0:	fbde12e3          	bne	t3,t4,40009894 <__letf2+0x96>
400098f4:	f66fe3e3          	bltu	t6,t1,4000985a <__letf2+0x5c>
400098f8:	f9f31ee3          	bne	t1,t6,40009894 <__letf2+0x96>
400098fc:	f517efe3          	bltu	a5,a7,4000985a <__letf2+0x5c>
40009900:	4501                	li	a0,0
40009902:	f8f8e9e3          	bltu	a7,a5,40009894 <__letf2+0x96>
40009906:	bf8d                	j	40009878 <__letf2+0x7a>
40009908:	db25                	beqz	a4,40009878 <__letf2+0x7a>
4000990a:	bf81                	j	4000985a <__letf2+0x5c>
4000990c:	4509                	li	a0,2
4000990e:	b7ad                	j	40009878 <__letf2+0x7a>

40009910 <__multf3>:
40009910:	7171                	addi	sp,sp,-176
40009912:	cf4e                	sw	s3,156(sp)
40009914:	00c5a983          	lw	s3,12(a1)
40009918:	419c                	lw	a5,0(a1)
4000991a:	4594                	lw	a3,8(a1)
4000991c:	d522                	sw	s0,168(sp)
4000991e:	842a                	mv	s0,a0
40009920:	41c8                	lw	a0,4(a1)
40009922:	01099713          	slli	a4,s3,0x10
40009926:	d14a                	sw	s2,160(sp)
40009928:	cd52                	sw	s4,152(sp)
4000992a:	00062903          	lw	s2,0(a2)
4000992e:	00c62a03          	lw	s4,12(a2)
40009932:	cb56                	sw	s5,148(sp)
40009934:	c95a                	sw	s6,144(sp)
40009936:	00862a83          	lw	s5,8(a2)
4000993a:	00462b03          	lw	s6,4(a2)
4000993e:	6621                	lui	a2,0x8
40009940:	d326                	sw	s1,164(sp)
40009942:	8341                	srli	a4,a4,0x10
40009944:	0109d493          	srli	s1,s3,0x10
40009948:	167d                	addi	a2,a2,-1 # 7fff <__stack_size+0x7ed3>
4000994a:	cece                	sw	s3,92(sp)
4000994c:	d706                	sw	ra,172(sp)
4000994e:	c75e                	sw	s7,140(sp)
40009950:	c562                	sw	s8,136(sp)
40009952:	c366                	sw	s9,132(sp)
40009954:	c16a                	sw	s10,128(sp)
40009956:	deee                	sw	s11,124(sp)
40009958:	c8be                	sw	a5,80(sp)
4000995a:	caaa                	sw	a0,84(sp)
4000995c:	ccb6                	sw	a3,88(sp)
4000995e:	d03e                	sw	a5,32(sp)
40009960:	d22a                	sw	a0,36(sp)
40009962:	d436                	sw	a3,40(sp)
40009964:	d63a                	sw	a4,44(sp)
40009966:	8cf1                	and	s1,s1,a2
40009968:	01f9d993          	srli	s3,s3,0x1f
4000996c:	6e048d63          	beqz	s1,4000a066 <__multf3+0x756>
40009970:	7ec48563          	beq	s1,a2,4000a15a <__multf3+0x84a>
40009974:	67c1                	lui	a5,0x10
40009976:	8f5d                	or	a4,a4,a5
40009978:	d63a                	sw	a4,44(sp)
4000997a:	101c                	addi	a5,sp,32
4000997c:	0850                	addi	a2,sp,20
4000997e:	47d8                	lw	a4,12(a5)
40009980:	4794                	lw	a3,8(a5)
40009982:	17f1                	addi	a5,a5,-4 # fffc <__stack_size+0xfed0>
40009984:	070e                	slli	a4,a4,0x3
40009986:	82f5                	srli	a3,a3,0x1d
40009988:	8f55                	or	a4,a4,a3
4000998a:	cb98                	sw	a4,16(a5)
4000998c:	fef619e3          	bne	a2,a5,4000997e <__multf3+0x6e>
40009990:	5782                	lw	a5,32(sp)
40009992:	078e                	slli	a5,a5,0x3
40009994:	d03e                	sw	a5,32(sp)
40009996:	77f1                	lui	a5,0xffffc
40009998:	0785                	addi	a5,a5,1 # ffffc001 <_bss_lma+0x7fffb561>
4000999a:	94be                	add	s1,s1,a5
4000999c:	4b81                	li	s7,0
4000999e:	010a1513          	slli	a0,s4,0x10
400099a2:	6721                	lui	a4,0x8
400099a4:	010a5793          	srli	a5,s4,0x10
400099a8:	8141                	srli	a0,a0,0x10
400099aa:	177d                	addi	a4,a4,-1 # 7fff <__stack_size+0x7ed3>
400099ac:	ced2                	sw	s4,92(sp)
400099ae:	c8ca                	sw	s2,80(sp)
400099b0:	cada                	sw	s6,84(sp)
400099b2:	ccd6                	sw	s5,88(sp)
400099b4:	d84a                	sw	s2,48(sp)
400099b6:	da5a                	sw	s6,52(sp)
400099b8:	dc56                	sw	s5,56(sp)
400099ba:	de2a                	sw	a0,60(sp)
400099bc:	8ff9                	and	a5,a5,a4
400099be:	01fa5a13          	srli	s4,s4,0x1f
400099c2:	7a078763          	beqz	a5,4000a170 <__multf3+0x860>
400099c6:	0ae783e3          	beq	a5,a4,4000a26c <__multf3+0x95c>
400099ca:	6741                	lui	a4,0x10
400099cc:	8d59                	or	a0,a0,a4
400099ce:	de2a                	sw	a0,60(sp)
400099d0:	1818                	addi	a4,sp,48
400099d2:	104c                	addi	a1,sp,36
400099d4:	4754                	lw	a3,12(a4)
400099d6:	4710                	lw	a2,8(a4)
400099d8:	1771                	addi	a4,a4,-4 # fffc <__stack_size+0xfed0>
400099da:	068e                	slli	a3,a3,0x3
400099dc:	8275                	srli	a2,a2,0x1d
400099de:	8ed1                	or	a3,a3,a2
400099e0:	cb14                	sw	a3,16(a4)
400099e2:	fee599e3          	bne	a1,a4,400099d4 <__multf3+0xc4>
400099e6:	5742                	lw	a4,48(sp)
400099e8:	070e                	slli	a4,a4,0x3
400099ea:	d83a                	sw	a4,48(sp)
400099ec:	7771                	lui	a4,0xffffc
400099ee:	0705                	addi	a4,a4,1 # ffffc001 <_bss_lma+0x7fffb561>
400099f0:	97ba                	add	a5,a5,a4
400099f2:	4681                	li	a3,0
400099f4:	97a6                	add	a5,a5,s1
400099f6:	c63e                	sw	a5,12(sp)
400099f8:	0785                	addi	a5,a5,1
400099fa:	0149c733          	xor	a4,s3,s4
400099fe:	c43e                	sw	a5,8(sp)
40009a00:	002b9793          	slli	a5,s7,0x2
40009a04:	c23a                	sw	a4,4(sp)
40009a06:	8fd5                	or	a5,a5,a3
40009a08:	4729                	li	a4,10
40009a0a:	0af746e3          	blt	a4,a5,4000a2b6 <__multf3+0x9a6>
40009a0e:	4709                	li	a4,2
40009a10:	06f74ee3          	blt	a4,a5,4000a28c <__multf3+0x97c>
40009a14:	17fd                	addi	a5,a5,-1
40009a16:	4705                	li	a4,1
40009a18:	0cf77de3          	bgeu	a4,a5,4000a2f2 <__multf3+0x9e2>
40009a1c:	5882                	lw	a7,32(sp)
40009a1e:	5f42                	lw	t5,48(sp)
40009a20:	65c1                	lui	a1,0x10
40009a22:	fff58713          	addi	a4,a1,-1 # ffff <__stack_size+0xfed3>
40009a26:	0108d993          	srli	s3,a7,0x10
40009a2a:	010f5913          	srli	s2,t5,0x10
40009a2e:	00e8f8b3          	and	a7,a7,a4
40009a32:	00ef7f33          	and	t5,t5,a4
40009a36:	031f0633          	mul	a2,t5,a7
40009a3a:	03e98533          	mul	a0,s3,t5
40009a3e:	01065793          	srli	a5,a2,0x10
40009a42:	031906b3          	mul	a3,s2,a7
40009a46:	96aa                	add	a3,a3,a0
40009a48:	97b6                	add	a5,a5,a3
40009a4a:	03298bb3          	mul	s7,s3,s2
40009a4e:	00a7f363          	bgeu	a5,a0,40009a54 <__multf3+0x144>
40009a52:	9bae                	add	s7,s7,a1
40009a54:	5ed2                	lw	t4,52(sp)
40009a56:	0107d693          	srli	a3,a5,0x10
40009a5a:	8ff9                	and	a5,a5,a4
40009a5c:	8e79                	and	a2,a2,a4
40009a5e:	07c2                	slli	a5,a5,0x10
40009a60:	97b2                	add	a5,a5,a2
40009a62:	010ed393          	srli	t2,t4,0x10
40009a66:	00eefeb3          	and	t4,t4,a4
40009a6a:	03d98633          	mul	a2,s3,t4
40009a6e:	c83e                	sw	a5,16(sp)
40009a70:	c8be                	sw	a5,80(sp)
40009a72:	03138733          	mul	a4,t2,a7
40009a76:	031e87b3          	mul	a5,t4,a7
40009a7a:	9732                	add	a4,a4,a2
40009a7c:	0107d313          	srli	t1,a5,0x10
40009a80:	933a                	add	t1,t1,a4
40009a82:	02798b33          	mul	s6,s3,t2
40009a86:	00c37463          	bgeu	t1,a2,40009a8e <__multf3+0x17e>
40009a8a:	6741                	lui	a4,0x10
40009a8c:	9b3a                	add	s6,s6,a4
40009a8e:	5812                	lw	a6,36(sp)
40009a90:	6741                	lui	a4,0x10
40009a92:	fff70613          	addi	a2,a4,-1 # ffff <__stack_size+0xfed3>
40009a96:	01035513          	srli	a0,t1,0x10
40009a9a:	00c37333          	and	t1,t1,a2
40009a9e:	8ff1                	and	a5,a5,a2
40009aa0:	01085493          	srli	s1,a6,0x10
40009aa4:	0342                	slli	t1,t1,0x10
40009aa6:	00c87833          	and	a6,a6,a2
40009aaa:	933e                	add	t1,t1,a5
40009aac:	03e48fb3          	mul	t6,s1,t5
40009ab0:	969a                	add	a3,a3,t1
40009ab2:	03e807b3          	mul	a5,a6,t5
40009ab6:	03090e33          	mul	t3,s2,a6
40009aba:	0107d613          	srli	a2,a5,0x10
40009abe:	9e7e                	add	t3,t3,t6
40009ac0:	9672                	add	a2,a2,t3
40009ac2:	029905b3          	mul	a1,s2,s1
40009ac6:	01f67363          	bgeu	a2,t6,40009acc <__multf3+0x1bc>
40009aca:	95ba                	add	a1,a1,a4
40009acc:	01065a93          	srli	s5,a2,0x10
40009ad0:	6741                	lui	a4,0x10
40009ad2:	9aae                	add	s5,s5,a1
40009ad4:	fff70593          	addi	a1,a4,-1 # ffff <__stack_size+0xfed3>
40009ad8:	8fed                	and	a5,a5,a1
40009ada:	8e6d                	and	a2,a2,a1
40009adc:	0642                	slli	a2,a2,0x10
40009ade:	030e85b3          	mul	a1,t4,a6
40009ae2:	963e                	add	a2,a2,a5
40009ae4:	03d48fb3          	mul	t6,s1,t4
40009ae8:	0105d793          	srli	a5,a1,0x10
40009aec:	03038e33          	mul	t3,t2,a6
40009af0:	9e7e                	add	t3,t3,t6
40009af2:	97f2                	add	a5,a5,t3
40009af4:	029382b3          	mul	t0,t2,s1
40009af8:	01f7f363          	bgeu	a5,t6,40009afe <__multf3+0x1ee>
40009afc:	92ba                	add	t0,t0,a4
40009afe:	0107d713          	srli	a4,a5,0x10
40009b02:	9716                	add	a4,a4,t0
40009b04:	6a41                	lui	s4,0x10
40009b06:	ca3a                	sw	a4,20(sp)
40009b08:	fffa0713          	addi	a4,s4,-1 # ffff <__stack_size+0xfed3>
40009b0c:	5e62                	lw	t3,56(sp)
40009b0e:	8ff9                	and	a5,a5,a4
40009b10:	8df9                	and	a1,a1,a4
40009b12:	07c2                	slli	a5,a5,0x10
40009b14:	97ae                	add	a5,a5,a1
40009b16:	cc3e                	sw	a5,24(sp)
40009b18:	010e5793          	srli	a5,t3,0x10
40009b1c:	00ee7e33          	and	t3,t3,a4
40009b20:	031e05b3          	mul	a1,t3,a7
40009b24:	03c98c33          	mul	s8,s3,t3
40009b28:	0105d713          	srli	a4,a1,0x10
40009b2c:	031782b3          	mul	t0,a5,a7
40009b30:	92e2                	add	t0,t0,s8
40009b32:	9716                	add	a4,a4,t0
40009b34:	02f98fb3          	mul	t6,s3,a5
40009b38:	01877363          	bgeu	a4,s8,40009b3e <__multf3+0x22e>
40009b3c:	9fd2                	add	t6,t6,s4
40009b3e:	01075293          	srli	t0,a4,0x10
40009b42:	9f96                	add	t6,t6,t0
40009b44:	6cc1                	lui	s9,0x10
40009b46:	ce7e                	sw	t6,28(sp)
40009b48:	fffc8f93          	addi	t6,s9,-1 # ffff <__stack_size+0xfed3>
40009b4c:	01f77733          	and	a4,a4,t6
40009b50:	01f5f5b3          	and	a1,a1,t6
40009b54:	0742                	slli	a4,a4,0x10
40009b56:	972e                	add	a4,a4,a1
40009b58:	55a2                	lw	a1,40(sp)
40009b5a:	0105d293          	srli	t0,a1,0x10
40009b5e:	01f5f5b3          	and	a1,a1,t6
40009b62:	03e58fb3          	mul	t6,a1,t5
40009b66:	03e28d33          	mul	s10,t0,t5
40009b6a:	010fdd93          	srli	s11,t6,0x10
40009b6e:	02b90a33          	mul	s4,s2,a1
40009b72:	9a6a                	add	s4,s4,s10
40009b74:	9a6e                	add	s4,s4,s11
40009b76:	02590c33          	mul	s8,s2,t0
40009b7a:	01aa7363          	bgeu	s4,s10,40009b80 <__multf3+0x270>
40009b7e:	9c66                	add	s8,s8,s9
40009b80:	96de                	add	a3,a3,s7
40009b82:	0066b333          	sltu	t1,a3,t1
40009b86:	010a5d13          	srli	s10,s4,0x10
40009b8a:	951a                	add	a0,a0,t1
40009b8c:	6cc1                	lui	s9,0x10
40009b8e:	955a                	add	a0,a0,s6
40009b90:	9d62                	add	s10,s10,s8
40009b92:	9636                	add	a2,a2,a3
40009b94:	fffc8c13          	addi	s8,s9,-1 # ffff <__stack_size+0xfed3>
40009b98:	9aaa                	add	s5,s5,a0
40009b9a:	018a7a33          	and	s4,s4,s8
40009b9e:	00d636b3          	sltu	a3,a2,a3
40009ba2:	96d6                	add	a3,a3,s5
40009ba4:	0a42                	slli	s4,s4,0x10
40009ba6:	018fffb3          	and	t6,t6,s8
40009baa:	9fd2                	add	t6,t6,s4
40009bac:	00aaba33          	sltu	s4,s5,a0
40009bb0:	0156bab3          	sltu	s5,a3,s5
40009bb4:	015a6a33          	or	s4,s4,s5
40009bb8:	00653533          	sltu	a0,a0,t1
40009bbc:	9552                	add	a0,a0,s4
40009bbe:	4362                	lw	t1,24(sp)
40009bc0:	4a52                	lw	s4,20(sp)
40009bc2:	cab2                	sw	a2,84(sp)
40009bc4:	9336                	add	t1,t1,a3
40009bc6:	01450ab3          	add	s5,a0,s4
40009bca:	4a72                	lw	s4,28(sp)
40009bcc:	00d336b3          	sltu	a3,t1,a3
40009bd0:	96d6                	add	a3,a3,s5
40009bd2:	971a                	add	a4,a4,t1
40009bd4:	01468b33          	add	s6,a3,s4
40009bd8:	00673333          	sltu	t1,a4,t1
40009bdc:	935a                	add	t1,t1,s6
40009bde:	9fba                	add	t6,t6,a4
40009be0:	9d1a                	add	s10,s10,t1
40009be2:	00efb733          	sltu	a4,t6,a4
40009be6:	00aab533          	sltu	a0,s5,a0
40009bea:	976a                	add	a4,a4,s10
40009bec:	0156bab3          	sltu	s5,a3,s5
40009bf0:	00db36b3          	sltu	a3,s6,a3
40009bf4:	01633b33          	sltu	s6,t1,s6
40009bf8:	0166e6b3          	or	a3,a3,s6
40009bfc:	006d3a33          	sltu	s4,s10,t1
40009c00:	01556ab3          	or	s5,a0,s5
40009c04:	01a73d33          	sltu	s10,a4,s10
40009c08:	9ab6                	add	s5,s5,a3
40009c0a:	01aa6a33          	or	s4,s4,s10
40009c0e:	9a56                	add	s4,s4,s5
40009c10:	5af2                	lw	s5,60(sp)
40009c12:	ccfe                	sw	t6,88(sp)
40009c14:	010adb13          	srli	s6,s5,0x10
40009c18:	018afab3          	and	s5,s5,s8
40009c1c:	031a86b3          	mul	a3,s5,a7
40009c20:	03598533          	mul	a0,s3,s5
40009c24:	031b08b3          	mul	a7,s6,a7
40009c28:	00a88333          	add	t1,a7,a0
40009c2c:	0106d893          	srli	a7,a3,0x10
40009c30:	989a                	add	a7,a7,t1
40009c32:	036989b3          	mul	s3,s3,s6
40009c36:	00a8f363          	bgeu	a7,a0,40009c3c <__multf3+0x32c>
40009c3a:	99e6                	add	s3,s3,s9
40009c3c:	5bb2                	lw	s7,44(sp)
40009c3e:	0108d513          	srli	a0,a7,0x10
40009c42:	954e                	add	a0,a0,s3
40009c44:	6c41                	lui	s8,0x10
40009c46:	ca2a                	sw	a0,20(sp)
40009c48:	fffc0513          	addi	a0,s8,-1 # ffff <__stack_size+0xfed3>
40009c4c:	010bd993          	srli	s3,s7,0x10
40009c50:	00abfbb3          	and	s7,s7,a0
40009c54:	8ee9                	and	a3,a3,a0
40009c56:	00a8f8b3          	and	a7,a7,a0
40009c5a:	03390333          	mul	t1,s2,s3
40009c5e:	08c2                	slli	a7,a7,0x10
40009c60:	98b6                	add	a7,a7,a3
40009c62:	03eb8533          	mul	a0,s7,t5
40009c66:	03790933          	mul	s2,s2,s7
40009c6a:	01055693          	srli	a3,a0,0x10
40009c6e:	03e98f33          	mul	t5,s3,t5
40009c72:	997a                	add	s2,s2,t5
40009c74:	96ca                	add	a3,a3,s2
40009c76:	01e6f363          	bgeu	a3,t5,40009c7c <__multf3+0x36c>
40009c7a:	9362                	add	t1,t1,s8
40009c7c:	0106df13          	srli	t5,a3,0x10
40009c80:	937a                	add	t1,t1,t5
40009c82:	6cc1                	lui	s9,0x10
40009c84:	cc1a                	sw	t1,24(sp)
40009c86:	fffc8313          	addi	t1,s9,-1 # ffff <__stack_size+0xfed3>
40009c8a:	00657533          	and	a0,a0,t1
40009c8e:	0066f6b3          	and	a3,a3,t1
40009c92:	03c48f33          	mul	t5,s1,t3
40009c96:	06c2                	slli	a3,a3,0x10
40009c98:	96aa                	add	a3,a3,a0
40009c9a:	03c80333          	mul	t1,a6,t3
40009c9e:	03078933          	mul	s2,a5,a6
40009ca2:	01035513          	srli	a0,t1,0x10
40009ca6:	997a                	add	s2,s2,t5
40009ca8:	954a                	add	a0,a0,s2
40009caa:	02f48c33          	mul	s8,s1,a5
40009cae:	01e57363          	bgeu	a0,t5,40009cb4 <__multf3+0x3a4>
40009cb2:	9c66                	add	s8,s8,s9
40009cb4:	6d41                	lui	s10,0x10
40009cb6:	fffd0f13          	addi	t5,s10,-1 # ffff <__stack_size+0xfed3>
40009cba:	01055913          	srli	s2,a0,0x10
40009cbe:	01e57533          	and	a0,a0,t5
40009cc2:	01e37333          	and	t1,t1,t5
40009cc6:	0542                	slli	a0,a0,0x10
40009cc8:	9962                	add	s2,s2,s8
40009cca:	02b38f33          	mul	t5,t2,a1
40009cce:	951a                	add	a0,a0,t1
40009cd0:	03d28c33          	mul	s8,t0,t4
40009cd4:	02be8333          	mul	t1,t4,a1
40009cd8:	9f62                	add	t5,t5,s8
40009cda:	01035d93          	srli	s11,t1,0x10
40009cde:	9f6e                	add	t5,t5,s11
40009ce0:	02538cb3          	mul	s9,t2,t0
40009ce4:	018f7363          	bgeu	t5,s8,40009cea <__multf3+0x3da>
40009ce8:	9cea                	add	s9,s9,s10
40009cea:	010f5c13          	srli	s8,t5,0x10
40009cee:	9c66                	add	s8,s8,s9
40009cf0:	6cc1                	lui	s9,0x10
40009cf2:	fffc8d13          	addi	s10,s9,-1 # ffff <__stack_size+0xfed3>
40009cf6:	01af7f33          	and	t5,t5,s10
40009cfa:	0f42                	slli	t5,t5,0x10
40009cfc:	01a37333          	and	t1,t1,s10
40009d00:	937a                	add	t1,t1,t5
40009d02:	4f52                	lw	t5,20(sp)
40009d04:	98ba                	add	a7,a7,a4
40009d06:	4d62                	lw	s10,24(sp)
40009d08:	9f52                	add	t5,t5,s4
40009d0a:	00e8b733          	sltu	a4,a7,a4
40009d0e:	977a                	add	a4,a4,t5
40009d10:	96c6                	add	a3,a3,a7
40009d12:	9d3a                	add	s10,s10,a4
40009d14:	0116b8b3          	sltu	a7,a3,a7
40009d18:	98ea                	add	a7,a7,s10
40009d1a:	9536                	add	a0,a0,a3
40009d1c:	9946                	add	s2,s2,a7
40009d1e:	00d536b3          	sltu	a3,a0,a3
40009d22:	96ca                	add	a3,a3,s2
40009d24:	014f3a33          	sltu	s4,t5,s4
40009d28:	01e73f33          	sltu	t5,a4,t5
40009d2c:	00ed3733          	sltu	a4,s10,a4
40009d30:	01a8bd33          	sltu	s10,a7,s10
40009d34:	01ea6f33          	or	t5,s4,t5
40009d38:	011938b3          	sltu	a7,s2,a7
40009d3c:	01a76733          	or	a4,a4,s10
40009d40:	0126b933          	sltu	s2,a3,s2
40009d44:	9c36                	add	s8,s8,a3
40009d46:	977a                	add	a4,a4,t5
40009d48:	0128e8b3          	or	a7,a7,s2
40009d4c:	00e88933          	add	s2,a7,a4
40009d50:	03c28f33          	mul	t5,t0,t3
40009d54:	00dc38b3          	sltu	a7,s8,a3
40009d58:	932a                	add	t1,t1,a0
40009d5a:	00a33533          	sltu	a0,t1,a0
40009d5e:	9562                	add	a0,a0,s8
40009d60:	01853c33          	sltu	s8,a0,s8
40009d64:	0188e8b3          	or	a7,a7,s8
40009d68:	ce9a                	sw	t1,92(sp)
40009d6a:	98ca                	add	a7,a7,s2
40009d6c:	02be06b3          	mul	a3,t3,a1
40009d70:	02b78a33          	mul	s4,a5,a1
40009d74:	0106d713          	srli	a4,a3,0x10
40009d78:	9a7a                	add	s4,s4,t5
40009d7a:	9752                	add	a4,a4,s4
40009d7c:	02578933          	mul	s2,a5,t0
40009d80:	01e77363          	bgeu	a4,t5,40009d86 <__multf3+0x476>
40009d84:	9966                	add	s2,s2,s9
40009d86:	01075f13          	srli	t5,a4,0x10
40009d8a:	9f4a                	add	t5,t5,s2
40009d8c:	6941                	lui	s2,0x10
40009d8e:	fff90a13          	addi	s4,s2,-1 # ffff <__stack_size+0xfed3>
40009d92:	01477733          	and	a4,a4,s4
40009d96:	0146f6b3          	and	a3,a3,s4
40009d9a:	0742                	slli	a4,a4,0x10
40009d9c:	03548a33          	mul	s4,s1,s5
40009da0:	9736                	add	a4,a4,a3
40009da2:	030a86b3          	mul	a3,s5,a6
40009da6:	030b0833          	mul	a6,s6,a6
40009daa:	01480c33          	add	s8,a6,s4
40009dae:	0106d813          	srli	a6,a3,0x10
40009db2:	9862                	add	a6,a6,s8
40009db4:	036484b3          	mul	s1,s1,s6
40009db8:	01487363          	bgeu	a6,s4,40009dbe <__multf3+0x4ae>
40009dbc:	94ca                	add	s1,s1,s2
40009dbe:	01085913          	srli	s2,a6,0x10
40009dc2:	6c41                	lui	s8,0x10
40009dc4:	94ca                	add	s1,s1,s2
40009dc6:	fffc0913          	addi	s2,s8,-1 # ffff <__stack_size+0xfed3>
40009dca:	0126f6b3          	and	a3,a3,s2
40009dce:	01287833          	and	a6,a6,s2
40009dd2:	0842                	slli	a6,a6,0x10
40009dd4:	03db8a33          	mul	s4,s7,t4
40009dd8:	9836                	add	a6,a6,a3
40009dda:	03d98eb3          	mul	t4,s3,t4
40009dde:	010a5693          	srli	a3,s4,0x10
40009de2:	03338933          	mul	s2,t2,s3
40009de6:	037383b3          	mul	t2,t2,s7
40009dea:	93f6                	add	t2,t2,t4
40009dec:	969e                	add	a3,a3,t2
40009dee:	01d6f363          	bgeu	a3,t4,40009df4 <__multf3+0x4e4>
40009df2:	9962                	add	s2,s2,s8
40009df4:	0106de93          	srli	t4,a3,0x10
40009df8:	9eca                	add	t4,t4,s2
40009dfa:	6941                	lui	s2,0x10
40009dfc:	fff90393          	addi	t2,s2,-1 # ffff <__stack_size+0xfed3>
40009e00:	0076f6b3          	and	a3,a3,t2
40009e04:	007a7a33          	and	s4,s4,t2
40009e08:	06c2                	slli	a3,a3,0x10
40009e0a:	02ba83b3          	mul	t2,s5,a1
40009e0e:	96d2                	add	a3,a3,s4
40009e10:	02bb05b3          	mul	a1,s6,a1
40009e14:	03528a33          	mul	s4,t0,s5
40009e18:	01458c33          	add	s8,a1,s4
40009e1c:	0103d593          	srli	a1,t2,0x10
40009e20:	95e2                	add	a1,a1,s8
40009e22:	036282b3          	mul	t0,t0,s6
40009e26:	0145f363          	bgeu	a1,s4,40009e2c <__multf3+0x51c>
40009e2a:	92ca                	add	t0,t0,s2
40009e2c:	0105d913          	srli	s2,a1,0x10
40009e30:	92ca                	add	t0,t0,s2
40009e32:	6941                	lui	s2,0x10
40009e34:	fff90a13          	addi	s4,s2,-1 # ffff <__stack_size+0xfed3>
40009e38:	0145f5b3          	and	a1,a1,s4
40009e3c:	0143f3b3          	and	t2,t2,s4
40009e40:	05c2                	slli	a1,a1,0x10
40009e42:	03378a33          	mul	s4,a5,s3
40009e46:	959e                	add	a1,a1,t2
40009e48:	037787b3          	mul	a5,a5,s7
40009e4c:	03cb83b3          	mul	t2,s7,t3
40009e50:	03c98e33          	mul	t3,s3,t3
40009e54:	0103dc13          	srli	s8,t2,0x10
40009e58:	97f2                	add	a5,a5,t3
40009e5a:	97e2                	add	a5,a5,s8
40009e5c:	01c7f363          	bgeu	a5,t3,40009e62 <__multf3+0x552>
40009e60:	9a4a                	add	s4,s4,s2
40009e62:	972a                	add	a4,a4,a0
40009e64:	0107de13          	srli	t3,a5,0x10
40009e68:	6941                	lui	s2,0x10
40009e6a:	9f46                	add	t5,t5,a7
40009e6c:	9e52                	add	t3,t3,s4
40009e6e:	00a73533          	sltu	a0,a4,a0
40009e72:	fff90a13          	addi	s4,s2,-1 # ffff <__stack_size+0xfed3>
40009e76:	957a                	add	a0,a0,t5
40009e78:	983a                	add	a6,a6,a4
40009e7a:	0147f7b3          	and	a5,a5,s4
40009e7e:	94aa                	add	s1,s1,a0
40009e80:	0143f3b3          	and	t2,t2,s4
40009e84:	00e83733          	sltu	a4,a6,a4
40009e88:	07c2                	slli	a5,a5,0x10
40009e8a:	979e                	add	a5,a5,t2
40009e8c:	00e483b3          	add	t2,s1,a4
40009e90:	011f38b3          	sltu	a7,t5,a7
40009e94:	01e53f33          	sltu	t5,a0,t5
40009e98:	00a4b533          	sltu	a0,s1,a0
40009e9c:	0093b4b3          	sltu	s1,t2,s1
40009ea0:	8d45                	or	a0,a0,s1
40009ea2:	01e8e8b3          	or	a7,a7,t5
40009ea6:	98aa                	add	a7,a7,a0
40009ea8:	037a8533          	mul	a0,s5,s7
40009eac:	96c2                	add	a3,a3,a6
40009eae:	9e9e                	add	t4,t4,t2
40009eb0:	d0b6                	sw	a3,96(sp)
40009eb2:	0106b6b3          	sltu	a3,a3,a6
40009eb6:	00de8733          	add	a4,t4,a3
40009eba:	007eb3b3          	sltu	t2,t4,t2
40009ebe:	01d73eb3          	sltu	t4,a4,t4
40009ec2:	01d3e3b3          	or	t2,t2,t4
40009ec6:	95ba                	add	a1,a1,a4
40009ec8:	03598ab3          	mul	s5,s3,s5
40009ecc:	93c6                	add	t2,t2,a7
40009ece:	929e                	add	t0,t0,t2
40009ed0:	00e5b733          	sltu	a4,a1,a4
40009ed4:	9716                	add	a4,a4,t0
40009ed6:	97ae                	add	a5,a5,a1
40009ed8:	9e3a                	add	t3,t3,a4
40009eda:	d2be                	sw	a5,100(sp)
40009edc:	00b7b7b3          	sltu	a5,a5,a1
40009ee0:	97f2                	add	a5,a5,t3
40009ee2:	033b09b3          	mul	s3,s6,s3
40009ee6:	01055693          	srli	a3,a0,0x10
40009eea:	0072b3b3          	sltu	t2,t0,t2
40009eee:	005732b3          	sltu	t0,a4,t0
40009ef2:	00ee3733          	sltu	a4,t3,a4
40009ef6:	01c7be33          	sltu	t3,a5,t3
40009efa:	0053e3b3          	or	t2,t2,t0
40009efe:	01c76733          	or	a4,a4,t3
40009f02:	037b0b33          	mul	s6,s6,s7
40009f06:	9b56                	add	s6,s6,s5
40009f08:	96da                	add	a3,a3,s6
40009f0a:	0156f363          	bgeu	a3,s5,40009f10 <__multf3+0x600>
40009f0e:	99ca                	add	s3,s3,s2
40009f10:	6841                	lui	a6,0x10
40009f12:	187d                	addi	a6,a6,-1 # ffff <__stack_size+0xfed3>
40009f14:	0106d593          	srli	a1,a3,0x10
40009f18:	0106f6b3          	and	a3,a3,a6
40009f1c:	06c2                	slli	a3,a3,0x10
40009f1e:	01057533          	and	a0,a0,a6
40009f22:	96aa                	add	a3,a3,a0
40009f24:	96be                	add	a3,a3,a5
40009f26:	959e                	add	a1,a1,t2
40009f28:	00f6b7b3          	sltu	a5,a3,a5
40009f2c:	972e                	add	a4,a4,a1
40009f2e:	97ba                	add	a5,a5,a4
40009f30:	97ce                	add	a5,a5,s3
40009f32:	d6be                	sw	a5,108(sp)
40009f34:	47c2                	lw	a5,16(sp)
40009f36:	0336                	slli	t1,t1,0xd
40009f38:	d4b6                	sw	a3,104(sp)
40009f3a:	8fd1                	or	a5,a5,a2
40009f3c:	00ffefb3          	or	t6,t6,a5
40009f40:	01f36333          	or	t1,t1,t6
40009f44:	089c                	addi	a5,sp,80
40009f46:	1090                	addi	a2,sp,96
40009f48:	47d8                	lw	a4,12(a5)
40009f4a:	4b94                	lw	a3,16(a5)
40009f4c:	834d                	srli	a4,a4,0x13
40009f4e:	06b6                	slli	a3,a3,0xd
40009f50:	8f55                	or	a4,a4,a3
40009f52:	c398                	sw	a4,0(a5)
40009f54:	0791                	addi	a5,a5,4
40009f56:	fef619e3          	bne	a2,a5,40009f48 <__multf3+0x638>
40009f5a:	4766                	lw	a4,88(sp)
40009f5c:	47c6                	lw	a5,80(sp)
40009f5e:	00603333          	snez	t1,t1
40009f62:	c4ba                	sw	a4,72(sp)
40009f64:	4756                	lw	a4,84(sp)
40009f66:	00f36333          	or	t1,t1,a5
40009f6a:	47f6                	lw	a5,92(sp)
40009f6c:	c2ba                	sw	a4,68(sp)
40009f6e:	00100737          	lui	a4,0x100
40009f72:	c6be                	sw	a5,76(sp)
40009f74:	c09a                	sw	t1,64(sp)
40009f76:	8ff9                	and	a5,a5,a4
40009f78:	38078663          	beqz	a5,4000a304 <__multf3+0x9f4>
40009f7c:	037e                	slli	t1,t1,0x1f
40009f7e:	009c                	addi	a5,sp,64
40009f80:	00f0                	addi	a2,sp,76
40009f82:	4398                	lw	a4,0(a5)
40009f84:	43d4                	lw	a3,4(a5)
40009f86:	8305                	srli	a4,a4,0x1
40009f88:	06fe                	slli	a3,a3,0x1f
40009f8a:	8f55                	or	a4,a4,a3
40009f8c:	c398                	sw	a4,0(a5)
40009f8e:	0791                	addi	a5,a5,4
40009f90:	fef619e3          	bne	a2,a5,40009f82 <__multf3+0x672>
40009f94:	47b6                	lw	a5,76(sp)
40009f96:	00603333          	snez	t1,t1
40009f9a:	8385                	srli	a5,a5,0x1
40009f9c:	c6be                	sw	a5,76(sp)
40009f9e:	4786                	lw	a5,64(sp)
40009fa0:	0067e7b3          	or	a5,a5,t1
40009fa4:	c0be                	sw	a5,64(sp)
40009fa6:	4722                	lw	a4,8(sp)
40009fa8:	6791                	lui	a5,0x4
40009faa:	17fd                	addi	a5,a5,-1 # 3fff <__stack_size+0x3ed3>
40009fac:	97ba                	add	a5,a5,a4
40009fae:	36f05563          	blez	a5,4000a318 <__multf3+0xa08>
40009fb2:	4706                	lw	a4,64(sp)
40009fb4:	00777693          	andi	a3,a4,7
40009fb8:	c69d                	beqz	a3,40009fe6 <__multf3+0x6d6>
40009fba:	00f77693          	andi	a3,a4,15
40009fbe:	4611                	li	a2,4
40009fc0:	02c68363          	beq	a3,a2,40009fe6 <__multf3+0x6d6>
40009fc4:	0711                	addi	a4,a4,4 # 100004 <__stack_size+0xffed8>
40009fc6:	00473693          	sltiu	a3,a4,4
40009fca:	c0ba                	sw	a4,64(sp)
40009fcc:	4716                	lw	a4,68(sp)
40009fce:	9736                	add	a4,a4,a3
40009fd0:	c2ba                	sw	a4,68(sp)
40009fd2:	00d73733          	sltu	a4,a4,a3
40009fd6:	46a6                	lw	a3,72(sp)
40009fd8:	9736                	add	a4,a4,a3
40009fda:	c4ba                	sw	a4,72(sp)
40009fdc:	00d73733          	sltu	a4,a4,a3
40009fe0:	46b6                	lw	a3,76(sp)
40009fe2:	9736                	add	a4,a4,a3
40009fe4:	c6ba                	sw	a4,76(sp)
40009fe6:	4736                	lw	a4,76(sp)
40009fe8:	001006b7          	lui	a3,0x100
40009fec:	8ef9                	and	a3,a3,a4
40009fee:	ca89                	beqz	a3,4000a000 <__multf3+0x6f0>
40009ff0:	fff007b7          	lui	a5,0xfff00
40009ff4:	17fd                	addi	a5,a5,-1 # ffefffff <_bss_lma+0x7feff55f>
40009ff6:	8f7d                	and	a4,a4,a5
40009ff8:	c6ba                	sw	a4,76(sp)
40009ffa:	4722                	lw	a4,8(sp)
40009ffc:	6791                	lui	a5,0x4
40009ffe:	97ba                	add	a5,a5,a4
4000a000:	0098                	addi	a4,sp,64
4000a002:	00ec                	addi	a1,sp,76
4000a004:	4314                	lw	a3,0(a4)
4000a006:	4350                	lw	a2,4(a4)
4000a008:	828d                	srli	a3,a3,0x3
4000a00a:	0676                	slli	a2,a2,0x1d
4000a00c:	8ed1                	or	a3,a3,a2
4000a00e:	c314                	sw	a3,0(a4)
4000a010:	0711                	addi	a4,a4,4
4000a012:	feb719e3          	bne	a4,a1,4000a004 <__multf3+0x6f4>
4000a016:	66a1                	lui	a3,0x8
4000a018:	ffe68613          	addi	a2,a3,-2 # 7ffe <__stack_size+0x7ed2>
4000a01c:	4736                	lw	a4,76(sp)
4000a01e:	2ef64663          	blt	a2,a5,4000a30a <__multf3+0x9fa>
4000a022:	830d                	srli	a4,a4,0x3
4000a024:	c6ba                	sw	a4,76(sp)
4000a026:	4736                	lw	a4,76(sp)
4000a028:	4586                	lw	a1,64(sp)
4000a02a:	4616                	lw	a2,68(sp)
4000a02c:	04e11e23          	sh	a4,92(sp)
4000a030:	4712                	lw	a4,4(sp)
4000a032:	46a6                	lw	a3,72(sp)
4000a034:	50ba                	lw	ra,172(sp)
4000a036:	073e                	slli	a4,a4,0xf
4000a038:	8fd9                	or	a5,a5,a4
4000a03a:	04f11f23          	sh	a5,94(sp)
4000a03e:	47f6                	lw	a5,92(sp)
4000a040:	c00c                	sw	a1,0(s0)
4000a042:	c050                	sw	a2,4(s0)
4000a044:	c414                	sw	a3,8(s0)
4000a046:	c45c                	sw	a5,12(s0)
4000a048:	8522                	mv	a0,s0
4000a04a:	542a                	lw	s0,168(sp)
4000a04c:	549a                	lw	s1,164(sp)
4000a04e:	590a                	lw	s2,160(sp)
4000a050:	49fa                	lw	s3,156(sp)
4000a052:	4a6a                	lw	s4,152(sp)
4000a054:	4ada                	lw	s5,148(sp)
4000a056:	4b4a                	lw	s6,144(sp)
4000a058:	4bba                	lw	s7,140(sp)
4000a05a:	4c2a                	lw	s8,136(sp)
4000a05c:	4c9a                	lw	s9,132(sp)
4000a05e:	4d0a                	lw	s10,128(sp)
4000a060:	5df6                	lw	s11,124(sp)
4000a062:	614d                	addi	sp,sp,176
4000a064:	8082                	ret
4000a066:	00a7e633          	or	a2,a5,a0
4000a06a:	8e55                	or	a2,a2,a3
4000a06c:	8e59                	or	a2,a2,a4
4000a06e:	0e060e63          	beqz	a2,4000a16a <__multf3+0x85a>
4000a072:	c339                	beqz	a4,4000a0b8 <__multf3+0x7a8>
4000a074:	853a                	mv	a0,a4
4000a076:	f75f70ef          	jal	ra,40001fea <__clzsi2>
4000a07a:	ff450693          	addi	a3,a0,-12
4000a07e:	02000613          	li	a2,32
4000a082:	8e15                	sub	a2,a2,a3
4000a084:	4781                	li	a5,0
4000a086:	55f1                	li	a1,-4
4000a088:	02b785b3          	mul	a1,a5,a1
4000a08c:	02010313          	addi	t1,sp,32
4000a090:	00c58713          	addi	a4,a1,12
4000a094:	971a                	add	a4,a4,t1
4000a096:	40b005b3          	neg	a1,a1
4000a09a:	0ae31063          	bne	t1,a4,4000a13a <__multf3+0x82a>
4000a09e:	fff78713          	addi	a4,a5,-1 # 3fff <__stack_size+0x3ed3>
4000a0a2:	078a                	slli	a5,a5,0x2
4000a0a4:	1010                	addi	a2,sp,32
4000a0a6:	05078793          	addi	a5,a5,80
4000a0aa:	97b2                	add	a5,a5,a2
4000a0ac:	5602                	lw	a2,32(sp)
4000a0ae:	00d616b3          	sll	a3,a2,a3
4000a0b2:	fad7a823          	sw	a3,-80(a5)
4000a0b6:	a8a1                	j	4000a10e <__multf3+0x7fe>
4000a0b8:	c285                	beqz	a3,4000a0d8 <__multf3+0x7c8>
4000a0ba:	8536                	mv	a0,a3
4000a0bc:	f2ff70ef          	jal	ra,40001fea <__clzsi2>
4000a0c0:	02050513          	addi	a0,a0,32
4000a0c4:	ff450693          	addi	a3,a0,-12
4000a0c8:	4056d793          	srai	a5,a3,0x5
4000a0cc:	8afd                	andi	a3,a3,31
4000a0ce:	c28d                	beqz	a3,4000a0f0 <__multf3+0x7e0>
4000a0d0:	02000613          	li	a2,32
4000a0d4:	8e15                	sub	a2,a2,a3
4000a0d6:	bf45                	j	4000a086 <__multf3+0x776>
4000a0d8:	c511                	beqz	a0,4000a0e4 <__multf3+0x7d4>
4000a0da:	f11f70ef          	jal	ra,40001fea <__clzsi2>
4000a0de:	04050513          	addi	a0,a0,64
4000a0e2:	b7cd                	j	4000a0c4 <__multf3+0x7b4>
4000a0e4:	853e                	mv	a0,a5
4000a0e6:	f05f70ef          	jal	ra,40001fea <__clzsi2>
4000a0ea:	06050513          	addi	a0,a0,96
4000a0ee:	bfd9                	j	4000a0c4 <__multf3+0x7b4>
4000a0f0:	5671                	li	a2,-4
4000a0f2:	02c78633          	mul	a2,a5,a2
4000a0f6:	1078                	addi	a4,sp,44
4000a0f8:	468d                	li	a3,3
4000a0fa:	00c705b3          	add	a1,a4,a2
4000a0fe:	418c                	lw	a1,0(a1)
4000a100:	16fd                	addi	a3,a3,-1
4000a102:	1771                	addi	a4,a4,-4
4000a104:	c34c                	sw	a1,4(a4)
4000a106:	fef6dae3          	bge	a3,a5,4000a0fa <__multf3+0x7ea>
4000a10a:	fff78713          	addi	a4,a5,-1
4000a10e:	00170793          	addi	a5,a4,1
4000a112:	078a                	slli	a5,a5,0x2
4000a114:	46a1                	li	a3,8
4000a116:	1018                	addi	a4,sp,32
4000a118:	00d7e863          	bltu	a5,a3,4000a128 <__multf3+0x818>
4000a11c:	00072023          	sw	zero,0(a4)
4000a120:	00072223          	sw	zero,4(a4)
4000a124:	17e1                	addi	a5,a5,-8
4000a126:	1038                	addi	a4,sp,40
4000a128:	4691                	li	a3,4
4000a12a:	00d7e463          	bltu	a5,a3,4000a132 <__multf3+0x822>
4000a12e:	00072023          	sw	zero,0(a4)
4000a132:	74f1                	lui	s1,0xffffc
4000a134:	04c5                	addi	s1,s1,17 # ffffc011 <_bss_lma+0x7fffb571>
4000a136:	8c89                	sub	s1,s1,a0
4000a138:	b095                	j	4000999c <__multf3+0x8c>
4000a13a:	00072803          	lw	a6,0(a4)
4000a13e:	ffc72883          	lw	a7,-4(a4)
4000a142:	00b70e33          	add	t3,a4,a1
4000a146:	00d81833          	sll	a6,a6,a3
4000a14a:	00c8d8b3          	srl	a7,a7,a2
4000a14e:	01186833          	or	a6,a6,a7
4000a152:	010e2023          	sw	a6,0(t3)
4000a156:	1771                	addi	a4,a4,-4
4000a158:	b789                	j	4000a09a <__multf3+0x78a>
4000a15a:	8fc9                	or	a5,a5,a0
4000a15c:	8fd5                	or	a5,a5,a3
4000a15e:	8fd9                	or	a5,a5,a4
4000a160:	4b89                	li	s7,2
4000a162:	82078ee3          	beqz	a5,4000999e <__multf3+0x8e>
4000a166:	4b8d                	li	s7,3
4000a168:	b81d                	j	4000999e <__multf3+0x8e>
4000a16a:	4481                	li	s1,0
4000a16c:	4b85                	li	s7,1
4000a16e:	b805                	j	4000999e <__multf3+0x8e>
4000a170:	016967b3          	or	a5,s2,s6
4000a174:	0157e7b3          	or	a5,a5,s5
4000a178:	8fc9                	or	a5,a5,a0
4000a17a:	10078563          	beqz	a5,4000a284 <__multf3+0x974>
4000a17e:	c131                	beqz	a0,4000a1c2 <__multf3+0x8b2>
4000a180:	e6bf70ef          	jal	ra,40001fea <__clzsi2>
4000a184:	ff450693          	addi	a3,a0,-12
4000a188:	02000593          	li	a1,32
4000a18c:	8d95                	sub	a1,a1,a3
4000a18e:	4781                	li	a5,0
4000a190:	5671                	li	a2,-4
4000a192:	02c78633          	mul	a2,a5,a2
4000a196:	03010313          	addi	t1,sp,48
4000a19a:	00c60713          	addi	a4,a2,12
4000a19e:	971a                	add	a4,a4,t1
4000a1a0:	40c00633          	neg	a2,a2
4000a1a4:	0ae31463          	bne	t1,a4,4000a24c <__multf3+0x93c>
4000a1a8:	fff78713          	addi	a4,a5,-1
4000a1ac:	078a                	slli	a5,a5,0x2
4000a1ae:	1010                	addi	a2,sp,32
4000a1b0:	05078793          	addi	a5,a5,80
4000a1b4:	97b2                	add	a5,a5,a2
4000a1b6:	5642                	lw	a2,48(sp)
4000a1b8:	00d616b3          	sll	a3,a2,a3
4000a1bc:	fcd7a023          	sw	a3,-64(a5)
4000a1c0:	a8b9                	j	4000a21e <__multf3+0x90e>
4000a1c2:	020a8163          	beqz	s5,4000a1e4 <__multf3+0x8d4>
4000a1c6:	8556                	mv	a0,s5
4000a1c8:	e23f70ef          	jal	ra,40001fea <__clzsi2>
4000a1cc:	02050513          	addi	a0,a0,32
4000a1d0:	ff450693          	addi	a3,a0,-12
4000a1d4:	4056d793          	srai	a5,a3,0x5
4000a1d8:	8afd                	andi	a3,a3,31
4000a1da:	c29d                	beqz	a3,4000a200 <__multf3+0x8f0>
4000a1dc:	02000593          	li	a1,32
4000a1e0:	8d95                	sub	a1,a1,a3
4000a1e2:	b77d                	j	4000a190 <__multf3+0x880>
4000a1e4:	000b0863          	beqz	s6,4000a1f4 <__multf3+0x8e4>
4000a1e8:	855a                	mv	a0,s6
4000a1ea:	e01f70ef          	jal	ra,40001fea <__clzsi2>
4000a1ee:	04050513          	addi	a0,a0,64
4000a1f2:	bff9                	j	4000a1d0 <__multf3+0x8c0>
4000a1f4:	854a                	mv	a0,s2
4000a1f6:	df5f70ef          	jal	ra,40001fea <__clzsi2>
4000a1fa:	06050513          	addi	a0,a0,96
4000a1fe:	bfc9                	j	4000a1d0 <__multf3+0x8c0>
4000a200:	5671                	li	a2,-4
4000a202:	02c78633          	mul	a2,a5,a2
4000a206:	1878                	addi	a4,sp,60
4000a208:	468d                	li	a3,3
4000a20a:	00c705b3          	add	a1,a4,a2
4000a20e:	418c                	lw	a1,0(a1)
4000a210:	16fd                	addi	a3,a3,-1
4000a212:	1771                	addi	a4,a4,-4
4000a214:	c34c                	sw	a1,4(a4)
4000a216:	fef6dae3          	bge	a3,a5,4000a20a <__multf3+0x8fa>
4000a21a:	fff78713          	addi	a4,a5,-1
4000a21e:	00170793          	addi	a5,a4,1
4000a222:	078a                	slli	a5,a5,0x2
4000a224:	46a1                	li	a3,8
4000a226:	1818                	addi	a4,sp,48
4000a228:	00d7e863          	bltu	a5,a3,4000a238 <__multf3+0x928>
4000a22c:	00072023          	sw	zero,0(a4)
4000a230:	00072223          	sw	zero,4(a4)
4000a234:	17e1                	addi	a5,a5,-8
4000a236:	1838                	addi	a4,sp,56
4000a238:	4691                	li	a3,4
4000a23a:	00d7e463          	bltu	a5,a3,4000a242 <__multf3+0x932>
4000a23e:	00072023          	sw	zero,0(a4)
4000a242:	77f1                	lui	a5,0xffffc
4000a244:	07c5                	addi	a5,a5,17 # ffffc011 <_bss_lma+0x7fffb571>
4000a246:	8f89                	sub	a5,a5,a0
4000a248:	faaff06f          	j	400099f2 <__multf3+0xe2>
4000a24c:	00072803          	lw	a6,0(a4)
4000a250:	ffc72883          	lw	a7,-4(a4)
4000a254:	00c70e33          	add	t3,a4,a2
4000a258:	00d81833          	sll	a6,a6,a3
4000a25c:	00b8d8b3          	srl	a7,a7,a1
4000a260:	01186833          	or	a6,a6,a7
4000a264:	010e2023          	sw	a6,0(t3)
4000a268:	1771                	addi	a4,a4,-4
4000a26a:	bf2d                	j	4000a1a4 <__multf3+0x894>
4000a26c:	01696933          	or	s2,s2,s6
4000a270:	01596933          	or	s2,s2,s5
4000a274:	00a96933          	or	s2,s2,a0
4000a278:	4689                	li	a3,2
4000a27a:	f6090d63          	beqz	s2,400099f4 <__multf3+0xe4>
4000a27e:	468d                	li	a3,3
4000a280:	f74ff06f          	j	400099f4 <__multf3+0xe4>
4000a284:	4781                	li	a5,0
4000a286:	4685                	li	a3,1
4000a288:	f6cff06f          	j	400099f4 <__multf3+0xe4>
4000a28c:	4705                	li	a4,1
4000a28e:	00f717b3          	sll	a5,a4,a5
4000a292:	5307f713          	andi	a4,a5,1328
4000a296:	e71d                	bnez	a4,4000a2c4 <__multf3+0x9b4>
4000a298:	0887f713          	andi	a4,a5,136
4000a29c:	eb31                	bnez	a4,4000a2f0 <__multf3+0x9e0>
4000a29e:	2407f793          	andi	a5,a5,576
4000a2a2:	f6078d63          	beqz	a5,40009a1c <__multf3+0x10c>
4000a2a6:	67a1                	lui	a5,0x8
4000a2a8:	c6be                	sw	a5,76(sp)
4000a2aa:	c482                	sw	zero,72(sp)
4000a2ac:	c282                	sw	zero,68(sp)
4000a2ae:	c082                	sw	zero,64(sp)
4000a2b0:	17fd                	addi	a5,a5,-1 # 7fff <__stack_size+0x7ed3>
4000a2b2:	c202                	sw	zero,4(sp)
4000a2b4:	bb8d                	j	4000a026 <__multf3+0x716>
4000a2b6:	473d                	li	a4,15
4000a2b8:	fee787e3          	beq	a5,a4,4000a2a6 <__multf3+0x996>
4000a2bc:	472d                	li	a4,11
4000a2be:	02e78963          	beq	a5,a4,4000a2f0 <__multf3+0x9e0>
4000a2c2:	c24e                	sw	s3,4(sp)
4000a2c4:	5782                	lw	a5,32(sp)
4000a2c6:	c0be                	sw	a5,64(sp)
4000a2c8:	5792                	lw	a5,36(sp)
4000a2ca:	c2be                	sw	a5,68(sp)
4000a2cc:	57a2                	lw	a5,40(sp)
4000a2ce:	c4be                	sw	a5,72(sp)
4000a2d0:	57b2                	lw	a5,44(sp)
4000a2d2:	c6be                	sw	a5,76(sp)
4000a2d4:	4789                	li	a5,2
4000a2d6:	1afb8563          	beq	s7,a5,4000a480 <__multf3+0xb70>
4000a2da:	478d                	li	a5,3
4000a2dc:	fcfb85e3          	beq	s7,a5,4000a2a6 <__multf3+0x996>
4000a2e0:	4785                	li	a5,1
4000a2e2:	ccfb92e3          	bne	s7,a5,40009fa6 <__multf3+0x696>
4000a2e6:	c682                	sw	zero,76(sp)
4000a2e8:	c482                	sw	zero,72(sp)
4000a2ea:	c282                	sw	zero,68(sp)
4000a2ec:	c082                	sw	zero,64(sp)
4000a2ee:	aab5                	j	4000a46a <__multf3+0xb5a>
4000a2f0:	c252                	sw	s4,4(sp)
4000a2f2:	57c2                	lw	a5,48(sp)
4000a2f4:	8bb6                	mv	s7,a3
4000a2f6:	c0be                	sw	a5,64(sp)
4000a2f8:	57d2                	lw	a5,52(sp)
4000a2fa:	c2be                	sw	a5,68(sp)
4000a2fc:	57e2                	lw	a5,56(sp)
4000a2fe:	c4be                	sw	a5,72(sp)
4000a300:	57f2                	lw	a5,60(sp)
4000a302:	bfc1                	j	4000a2d2 <__multf3+0x9c2>
4000a304:	47b2                	lw	a5,12(sp)
4000a306:	c43e                	sw	a5,8(sp)
4000a308:	b979                	j	40009fa6 <__multf3+0x696>
4000a30a:	c682                	sw	zero,76(sp)
4000a30c:	c482                	sw	zero,72(sp)
4000a30e:	c282                	sw	zero,68(sp)
4000a310:	c082                	sw	zero,64(sp)
4000a312:	fff68793          	addi	a5,a3,-1
4000a316:	bb01                	j	4000a026 <__multf3+0x716>
4000a318:	4685                	li	a3,1
4000a31a:	c791                	beqz	a5,4000a326 <__multf3+0xa16>
4000a31c:	8e9d                	sub	a3,a3,a5
4000a31e:	07400793          	li	a5,116
4000a322:	14d7c663          	blt	a5,a3,4000a46e <__multf3+0xb5e>
4000a326:	0088                	addi	a0,sp,64
4000a328:	4056d713          	srai	a4,a3,0x5
4000a32c:	85aa                	mv	a1,a0
4000a32e:	8afd                	andi	a3,a3,31
4000a330:	4781                	li	a5,0
4000a332:	4601                	li	a2,0
4000a334:	02e61663          	bne	a2,a4,4000a360 <__multf3+0xa50>
4000a338:	460d                	li	a2,3
4000a33a:	8e19                	sub	a2,a2,a4
4000a33c:	00271593          	slli	a1,a4,0x2
4000a340:	e69d                	bnez	a3,4000a36e <__multf3+0xa5e>
4000a342:	882a                	mv	a6,a0
4000a344:	00b808b3          	add	a7,a6,a1
4000a348:	0008a883          	lw	a7,0(a7)
4000a34c:	0685                	addi	a3,a3,1
4000a34e:	0811                	addi	a6,a6,4
4000a350:	ff182e23          	sw	a7,-4(a6)
4000a354:	fed658e3          	bge	a2,a3,4000a344 <__multf3+0xa34>
4000a358:	4691                	li	a3,4
4000a35a:	40e68733          	sub	a4,a3,a4
4000a35e:	a899                	j	4000a3b4 <__multf3+0xaa4>
4000a360:	0005a803          	lw	a6,0(a1)
4000a364:	0605                	addi	a2,a2,1
4000a366:	0591                	addi	a1,a1,4
4000a368:	0107e7b3          	or	a5,a5,a6
4000a36c:	b7e1                	j	4000a334 <__multf3+0xa24>
4000a36e:	05058493          	addi	s1,a1,80
4000a372:	02010813          	addi	a6,sp,32
4000a376:	9826                	add	a6,a6,s1
4000a378:	fd082803          	lw	a6,-48(a6)
4000a37c:	02000313          	li	t1,32
4000a380:	40d30333          	sub	t1,t1,a3
4000a384:	00681833          	sll	a6,a6,t1
4000a388:	0107e7b3          	or	a5,a5,a6
4000a38c:	4e01                	li	t3,0
4000a38e:	00b50833          	add	a6,a0,a1
4000a392:	40b005b3          	neg	a1,a1
4000a396:	08ce4b63          	blt	t3,a2,4000a42c <__multf3+0xb1c>
4000a39a:	4591                	li	a1,4
4000a39c:	060a                	slli	a2,a2,0x2
4000a39e:	40e58733          	sub	a4,a1,a4
4000a3a2:	05060613          	addi	a2,a2,80
4000a3a6:	100c                	addi	a1,sp,32
4000a3a8:	962e                	add	a2,a2,a1
4000a3aa:	45b6                	lw	a1,76(sp)
4000a3ac:	00d5d6b3          	srl	a3,a1,a3
4000a3b0:	fcd62823          	sw	a3,-48(a2)
4000a3b4:	4691                	li	a3,4
4000a3b6:	8e99                	sub	a3,a3,a4
4000a3b8:	068a                	slli	a3,a3,0x2
4000a3ba:	070a                	slli	a4,a4,0x2
4000a3bc:	4621                	li	a2,8
4000a3be:	972a                	add	a4,a4,a0
4000a3c0:	00c6e863          	bltu	a3,a2,4000a3d0 <__multf3+0xac0>
4000a3c4:	00072023          	sw	zero,0(a4)
4000a3c8:	00072223          	sw	zero,4(a4)
4000a3cc:	16e1                	addi	a3,a3,-8
4000a3ce:	0721                	addi	a4,a4,8
4000a3d0:	4611                	li	a2,4
4000a3d2:	00c6e463          	bltu	a3,a2,4000a3da <__multf3+0xaca>
4000a3d6:	00072023          	sw	zero,0(a4)
4000a3da:	4706                	lw	a4,64(sp)
4000a3dc:	00f037b3          	snez	a5,a5
4000a3e0:	8fd9                	or	a5,a5,a4
4000a3e2:	c0be                	sw	a5,64(sp)
4000a3e4:	0077f713          	andi	a4,a5,7
4000a3e8:	c71d                	beqz	a4,4000a416 <__multf3+0xb06>
4000a3ea:	00f7f713          	andi	a4,a5,15
4000a3ee:	4691                	li	a3,4
4000a3f0:	02d70363          	beq	a4,a3,4000a416 <__multf3+0xb06>
4000a3f4:	4716                	lw	a4,68(sp)
4000a3f6:	0791                	addi	a5,a5,4
4000a3f8:	c0be                	sw	a5,64(sp)
4000a3fa:	0047b793          	sltiu	a5,a5,4
4000a3fe:	97ba                	add	a5,a5,a4
4000a400:	c2be                	sw	a5,68(sp)
4000a402:	00e7b7b3          	sltu	a5,a5,a4
4000a406:	4726                	lw	a4,72(sp)
4000a408:	97ba                	add	a5,a5,a4
4000a40a:	c4be                	sw	a5,72(sp)
4000a40c:	00e7b7b3          	sltu	a5,a5,a4
4000a410:	4736                	lw	a4,76(sp)
4000a412:	97ba                	add	a5,a5,a4
4000a414:	c6be                	sw	a5,76(sp)
4000a416:	4736                	lw	a4,76(sp)
4000a418:	000807b7          	lui	a5,0x80
4000a41c:	8ff9                	and	a5,a5,a4
4000a41e:	cb85                	beqz	a5,4000a44e <__multf3+0xb3e>
4000a420:	c682                	sw	zero,76(sp)
4000a422:	c482                	sw	zero,72(sp)
4000a424:	c282                	sw	zero,68(sp)
4000a426:	c082                	sw	zero,64(sp)
4000a428:	4785                	li	a5,1
4000a42a:	bef5                	j	4000a026 <__multf3+0x716>
4000a42c:	00082883          	lw	a7,0(a6)
4000a430:	00482e83          	lw	t4,4(a6)
4000a434:	00b80f33          	add	t5,a6,a1
4000a438:	00d8d8b3          	srl	a7,a7,a3
4000a43c:	006e9eb3          	sll	t4,t4,t1
4000a440:	01d8e8b3          	or	a7,a7,t4
4000a444:	011f2023          	sw	a7,0(t5)
4000a448:	0e05                	addi	t3,t3,1
4000a44a:	0811                	addi	a6,a6,4
4000a44c:	b7a9                	j	4000a396 <__multf3+0xa86>
4000a44e:	00c50693          	addi	a3,a0,12
4000a452:	411c                	lw	a5,0(a0)
4000a454:	4158                	lw	a4,4(a0)
4000a456:	838d                	srli	a5,a5,0x3
4000a458:	0776                	slli	a4,a4,0x1d
4000a45a:	8fd9                	or	a5,a5,a4
4000a45c:	c11c                	sw	a5,0(a0)
4000a45e:	0511                	addi	a0,a0,4
4000a460:	fea699e3          	bne	a3,a0,4000a452 <__multf3+0xb42>
4000a464:	47b6                	lw	a5,76(sp)
4000a466:	838d                	srli	a5,a5,0x3
4000a468:	c6be                	sw	a5,76(sp)
4000a46a:	4781                	li	a5,0
4000a46c:	be6d                	j	4000a026 <__multf3+0x716>
4000a46e:	4716                	lw	a4,68(sp)
4000a470:	4786                	lw	a5,64(sp)
4000a472:	8fd9                	or	a5,a5,a4
4000a474:	4726                	lw	a4,72(sp)
4000a476:	8fd9                	or	a5,a5,a4
4000a478:	4736                	lw	a4,76(sp)
4000a47a:	8fd9                	or	a5,a5,a4
4000a47c:	d7fd                	beqz	a5,4000a46a <__multf3+0xb5a>
4000a47e:	b5a5                	j	4000a2e6 <__multf3+0x9d6>
4000a480:	67a1                	lui	a5,0x8
4000a482:	c682                	sw	zero,76(sp)
4000a484:	c482                	sw	zero,72(sp)
4000a486:	c282                	sw	zero,68(sp)
4000a488:	c082                	sw	zero,64(sp)
4000a48a:	17fd                	addi	a5,a5,-1 # 7fff <__stack_size+0x7ed3>
4000a48c:	be69                	j	4000a026 <__multf3+0x716>

4000a48e <__subtf3>:
4000a48e:	7159                	addi	sp,sp,-112
4000a490:	459c                	lw	a5,8(a1)
4000a492:	cad6                	sw	s5,84(sp)
4000a494:	00c5aa83          	lw	s5,12(a1)
4000a498:	4194                	lw	a3,0(a1)
4000a49a:	41d8                	lw	a4,4(a1)
4000a49c:	dc3e                	sw	a5,56(sp)
4000a49e:	cc3e                	sw	a5,24(sp)
4000a4a0:	010a9793          	slli	a5,s5,0x10
4000a4a4:	83c1                	srli	a5,a5,0x10
4000a4a6:	00062883          	lw	a7,0(a2)
4000a4aa:	00462803          	lw	a6,4(a2)
4000a4ae:	460c                	lw	a1,8(a2)
4000a4b0:	d2a6                	sw	s1,100(sp)
4000a4b2:	d0ca                	sw	s2,96(sp)
4000a4b4:	001a9493          	slli	s1,s5,0x1
4000a4b8:	00c62903          	lw	s2,12(a2)
4000a4bc:	0810                	addi	a2,sp,16
4000a4be:	ccd2                	sw	s4,88(sp)
4000a4c0:	de56                	sw	s5,60(sp)
4000a4c2:	8a2a                	mv	s4,a0
4000a4c4:	ce3e                	sw	a5,28(sp)
4000a4c6:	d686                	sw	ra,108(sp)
4000a4c8:	d4a2                	sw	s0,104(sp)
4000a4ca:	cece                	sw	s3,92(sp)
4000a4cc:	c8da                	sw	s6,80(sp)
4000a4ce:	c6de                	sw	s7,76(sp)
4000a4d0:	c4e2                	sw	s8,72(sp)
4000a4d2:	d836                	sw	a3,48(sp)
4000a4d4:	da3a                	sw	a4,52(sp)
4000a4d6:	c836                	sw	a3,16(sp)
4000a4d8:	ca3a                	sw	a4,20(sp)
4000a4da:	80c5                	srli	s1,s1,0x11
4000a4dc:	01fada93          	srli	s5,s5,0x1f
4000a4e0:	00410313          	addi	t1,sp,4
4000a4e4:	87b2                	mv	a5,a2
4000a4e6:	8532                	mv	a0,a2
4000a4e8:	47d8                	lw	a4,12(a5)
4000a4ea:	4794                	lw	a3,8(a5)
4000a4ec:	17f1                	addi	a5,a5,-4
4000a4ee:	070e                	slli	a4,a4,0x3
4000a4f0:	82f5                	srli	a3,a3,0x1d
4000a4f2:	8f55                	or	a4,a4,a3
4000a4f4:	cb98                	sw	a4,16(a5)
4000a4f6:	fef319e3          	bne	t1,a5,4000a4e8 <__subtf3+0x5a>
4000a4fa:	47c2                	lw	a5,16(sp)
4000a4fc:	01091713          	slli	a4,s2,0x10
4000a500:	8341                	srli	a4,a4,0x10
4000a502:	00191b93          	slli	s7,s2,0x1
4000a506:	078e                	slli	a5,a5,0x3
4000a508:	da42                	sw	a6,52(sp)
4000a50a:	d242                	sw	a6,36(sp)
4000a50c:	02010813          	addi	a6,sp,32
4000a510:	d846                	sw	a7,48(sp)
4000a512:	de4a                	sw	s2,60(sp)
4000a514:	d046                	sw	a7,32(sp)
4000a516:	d63a                	sw	a4,44(sp)
4000a518:	c83e                	sw	a5,16(sp)
4000a51a:	dc2e                	sw	a1,56(sp)
4000a51c:	d42e                	sw	a1,40(sp)
4000a51e:	011bdb93          	srli	s7,s7,0x11
4000a522:	01f95913          	srli	s2,s2,0x1f
4000a526:	01410313          	addi	t1,sp,20
4000a52a:	8742                	mv	a4,a6
4000a52c:	88c2                	mv	a7,a6
4000a52e:	4754                	lw	a3,12(a4)
4000a530:	470c                	lw	a1,8(a4)
4000a532:	1771                	addi	a4,a4,-4
4000a534:	068e                	slli	a3,a3,0x3
4000a536:	81f5                	srli	a1,a1,0x1d
4000a538:	8ecd                	or	a3,a3,a1
4000a53a:	cb14                	sw	a3,16(a4)
4000a53c:	fee319e3          	bne	t1,a4,4000a52e <__subtf3+0xa0>
4000a540:	5402                	lw	s0,32(sp)
4000a542:	6321                	lui	t1,0x8
4000a544:	137d                	addi	t1,t1,-1 # 7fff <__stack_size+0x7ed3>
4000a546:	040e                	slli	s0,s0,0x3
4000a548:	d022                	sw	s0,32(sp)
4000a54a:	417485b3          	sub	a1,s1,s7
4000a54e:	046b9863          	bne	s7,t1,4000a59e <__subtf3+0x110>
4000a552:	56a2                	lw	a3,40(sp)
4000a554:	5712                	lw	a4,36(sp)
4000a556:	8e2e                	mv	t3,a1
4000a558:	8f55                	or	a4,a4,a3
4000a55a:	56b2                	lw	a3,44(sp)
4000a55c:	8f55                	or	a4,a4,a3
4000a55e:	8f41                	or	a4,a4,s0
4000a560:	cf05                	beqz	a4,4000a598 <__subtf3+0x10a>
4000a562:	772a9c63          	bne	s5,s2,4000acda <__subtf3+0x84c>
4000a566:	5912                	lw	s2,36(sp)
4000a568:	59a2                	lw	s3,40(sp)
4000a56a:	5b32                	lw	s6,44(sp)
4000a56c:	46058a63          	beqz	a1,4000a9e0 <__subtf3+0x552>
4000a570:	409b8833          	sub	a6,s7,s1
4000a574:	34049263          	bnez	s1,4000a8b8 <__subtf3+0x42a>
4000a578:	46d2                	lw	a3,20(sp)
4000a57a:	4762                	lw	a4,24(sp)
4000a57c:	48f2                	lw	a7,28(sp)
4000a57e:	00e6e5b3          	or	a1,a3,a4
4000a582:	0115e5b3          	or	a1,a1,a7
4000a586:	8ddd                	or	a1,a1,a5
4000a588:	2e059363          	bnez	a1,4000a86e <__subtf3+0x3e0>
4000a58c:	d822                	sw	s0,48(sp)
4000a58e:	da4a                	sw	s2,52(sp)
4000a590:	dc4e                	sw	s3,56(sp)
4000a592:	de5a                	sw	s6,60(sp)
4000a594:	84c2                	mv	s1,a6
4000a596:	a841                	j	4000a626 <__subtf3+0x198>
4000a598:	00194913          	xori	s2,s2,1
4000a59c:	b7d9                	j	4000a562 <__subtf3+0xd4>
4000a59e:	00194913          	xori	s2,s2,1
4000a5a2:	8e2e                	mv	t3,a1
4000a5a4:	572a9363          	bne	s5,s2,4000ab0a <__subtf3+0x67c>
4000a5a8:	fab05fe3          	blez	a1,4000a566 <__subtf3+0xd8>
4000a5ac:	4952                	lw	s2,20(sp)
4000a5ae:	49e2                	lw	s3,24(sp)
4000a5b0:	4b72                	lw	s6,28(sp)
4000a5b2:	060b9463          	bnez	s7,4000a61a <__subtf3+0x18c>
4000a5b6:	5692                	lw	a3,36(sp)
4000a5b8:	5722                	lw	a4,40(sp)
4000a5ba:	5532                	lw	a0,44(sp)
4000a5bc:	00e6e633          	or	a2,a3,a4
4000a5c0:	8e49                	or	a2,a2,a0
4000a5c2:	8e41                	or	a2,a2,s0
4000a5c4:	e611                	bnez	a2,4000a5d0 <__subtf3+0x142>
4000a5c6:	d83e                	sw	a5,48(sp)
4000a5c8:	da4a                	sw	s2,52(sp)
4000a5ca:	dc4e                	sw	s3,56(sp)
4000a5cc:	de5a                	sw	s6,60(sp)
4000a5ce:	a32d                	j	4000aaf8 <__subtf3+0x66a>
4000a5d0:	fff58613          	addi	a2,a1,-1
4000a5d4:	ea0d                	bnez	a2,4000a606 <__subtf3+0x178>
4000a5d6:	943e                	add	s0,s0,a5
4000a5d8:	9936                	add	s2,s2,a3
4000a5da:	d822                	sw	s0,48(sp)
4000a5dc:	00f43433          	sltu	s0,s0,a5
4000a5e0:	944a                	add	s0,s0,s2
4000a5e2:	da22                	sw	s0,52(sp)
4000a5e4:	00d936b3          	sltu	a3,s2,a3
4000a5e8:	01243433          	sltu	s0,s0,s2
4000a5ec:	99ba                	add	s3,s3,a4
4000a5ee:	8ec1                	or	a3,a3,s0
4000a5f0:	96ce                	add	a3,a3,s3
4000a5f2:	dc36                	sw	a3,56(sp)
4000a5f4:	00e9b7b3          	sltu	a5,s3,a4
4000a5f8:	0136b6b3          	sltu	a3,a3,s3
4000a5fc:	8fd5                	or	a5,a5,a3
4000a5fe:	955a                	add	a0,a0,s6
4000a600:	97aa                	add	a5,a5,a0
4000a602:	4485                	li	s1,1
4000a604:	aacd                	j	4000a7f6 <__subtf3+0x368>
4000a606:	486597e3          	bne	a1,t1,4000b294 <__subtf3+0xe06>
4000a60a:	d83e                	sw	a5,48(sp)
4000a60c:	a445                	j	4000a8ac <__subtf3+0x41e>
4000a60e:	87a2                	mv	a5,s0
4000a610:	bfed                	j	4000a60a <__subtf3+0x17c>
4000a612:	893a                	mv	s2,a4
4000a614:	89b2                	mv	s3,a2
4000a616:	8b36                	mv	s6,a3
4000a618:	bfcd                	j	4000a60a <__subtf3+0x17c>
4000a61a:	0e649163          	bne	s1,t1,4000a6fc <__subtf3+0x26e>
4000a61e:	d83e                	sw	a5,48(sp)
4000a620:	da4a                	sw	s2,52(sp)
4000a622:	dc4e                	sw	s3,56(sp)
4000a624:	de5a                	sw	s6,60(sp)
4000a626:	57c2                	lw	a5,48(sp)
4000a628:	0077f713          	andi	a4,a5,7
4000a62c:	c71d                	beqz	a4,4000a65a <__subtf3+0x1cc>
4000a62e:	00f7f713          	andi	a4,a5,15
4000a632:	4691                	li	a3,4
4000a634:	02d70363          	beq	a4,a3,4000a65a <__subtf3+0x1cc>
4000a638:	5752                	lw	a4,52(sp)
4000a63a:	0791                	addi	a5,a5,4
4000a63c:	d83e                	sw	a5,48(sp)
4000a63e:	0047b793          	sltiu	a5,a5,4
4000a642:	97ba                	add	a5,a5,a4
4000a644:	da3e                	sw	a5,52(sp)
4000a646:	00e7b7b3          	sltu	a5,a5,a4
4000a64a:	5762                	lw	a4,56(sp)
4000a64c:	97ba                	add	a5,a5,a4
4000a64e:	dc3e                	sw	a5,56(sp)
4000a650:	00e7b7b3          	sltu	a5,a5,a4
4000a654:	5772                	lw	a4,60(sp)
4000a656:	97ba                	add	a5,a5,a4
4000a658:	de3e                	sw	a5,60(sp)
4000a65a:	57f2                	lw	a5,60(sp)
4000a65c:	00080737          	lui	a4,0x80
4000a660:	8f7d                	and	a4,a4,a5
4000a662:	cb19                	beqz	a4,4000a678 <__subtf3+0x1ea>
4000a664:	6721                	lui	a4,0x8
4000a666:	0485                	addi	s1,s1,1
4000a668:	177d                	addi	a4,a4,-1 # 7fff <__stack_size+0x7ed3>
4000a66a:	40e48fe3          	beq	s1,a4,4000b288 <__subtf3+0xdfa>
4000a66e:	fff80737          	lui	a4,0xfff80
4000a672:	177d                	addi	a4,a4,-1 # fff7ffff <_bss_lma+0x7ff7f55f>
4000a674:	8ff9                	and	a5,a5,a4
4000a676:	de3e                	sw	a5,60(sp)
4000a678:	181c                	addi	a5,sp,48
4000a67a:	1870                	addi	a2,sp,60
4000a67c:	4398                	lw	a4,0(a5)
4000a67e:	43d4                	lw	a3,4(a5)
4000a680:	830d                	srli	a4,a4,0x3
4000a682:	06f6                	slli	a3,a3,0x1d
4000a684:	8f55                	or	a4,a4,a3
4000a686:	c398                	sw	a4,0(a5)
4000a688:	0791                	addi	a5,a5,4
4000a68a:	fef619e3          	bne	a2,a5,4000a67c <__subtf3+0x1ee>
4000a68e:	5772                	lw	a4,60(sp)
4000a690:	66a1                	lui	a3,0x8
4000a692:	fff68793          	addi	a5,a3,-1 # 7fff <__stack_size+0x7ed3>
4000a696:	830d                	srli	a4,a4,0x3
4000a698:	de3a                	sw	a4,60(sp)
4000a69a:	00f49e63          	bne	s1,a5,4000a6b6 <__subtf3+0x228>
4000a69e:	5652                	lw	a2,52(sp)
4000a6a0:	57c2                	lw	a5,48(sp)
4000a6a2:	8fd1                	or	a5,a5,a2
4000a6a4:	5662                	lw	a2,56(sp)
4000a6a6:	8fd1                	or	a5,a5,a2
4000a6a8:	8fd9                	or	a5,a5,a4
4000a6aa:	c791                	beqz	a5,4000a6b6 <__subtf3+0x228>
4000a6ac:	de36                	sw	a3,60(sp)
4000a6ae:	dc02                	sw	zero,56(sp)
4000a6b0:	da02                	sw	zero,52(sp)
4000a6b2:	d802                	sw	zero,48(sp)
4000a6b4:	4a81                	li	s5,0
4000a6b6:	57f2                	lw	a5,60(sp)
4000a6b8:	04c6                	slli	s1,s1,0x11
4000a6ba:	80c5                	srli	s1,s1,0x11
4000a6bc:	0abe                	slli	s5,s5,0xf
4000a6be:	009aeab3          	or	s5,s5,s1
4000a6c2:	01511723          	sh	s5,14(sp)
4000a6c6:	00f11623          	sh	a5,12(sp)
4000a6ca:	5642                	lw	a2,48(sp)
4000a6cc:	56d2                	lw	a3,52(sp)
4000a6ce:	5762                	lw	a4,56(sp)
4000a6d0:	47b2                	lw	a5,12(sp)
4000a6d2:	50b6                	lw	ra,108(sp)
4000a6d4:	5426                	lw	s0,104(sp)
4000a6d6:	00ca2023          	sw	a2,0(s4)
4000a6da:	00da2223          	sw	a3,4(s4)
4000a6de:	00ea2423          	sw	a4,8(s4)
4000a6e2:	00fa2623          	sw	a5,12(s4)
4000a6e6:	5496                	lw	s1,100(sp)
4000a6e8:	5906                	lw	s2,96(sp)
4000a6ea:	49f6                	lw	s3,92(sp)
4000a6ec:	4ad6                	lw	s5,84(sp)
4000a6ee:	4b46                	lw	s6,80(sp)
4000a6f0:	4bb6                	lw	s7,76(sp)
4000a6f2:	4c26                	lw	s8,72(sp)
4000a6f4:	8552                	mv	a0,s4
4000a6f6:	4a66                	lw	s4,88(sp)
4000a6f8:	6165                	addi	sp,sp,112
4000a6fa:	8082                	ret
4000a6fc:	5732                	lw	a4,44(sp)
4000a6fe:	000806b7          	lui	a3,0x80
4000a702:	8f55                	or	a4,a4,a3
4000a704:	d63a                	sw	a4,44(sp)
4000a706:	07400713          	li	a4,116
4000a70a:	38b749e3          	blt	a4,a1,4000b29c <__subtf3+0xe0e>
4000a70e:	862e                	mv	a2,a1
4000a710:	40565693          	srai	a3,a2,0x5
4000a714:	8542                	mv	a0,a6
4000a716:	8a7d                	andi	a2,a2,31
4000a718:	4701                	li	a4,0
4000a71a:	4581                	li	a1,0
4000a71c:	02d59563          	bne	a1,a3,4000a746 <__subtf3+0x2b8>
4000a720:	458d                	li	a1,3
4000a722:	8d95                	sub	a1,a1,a3
4000a724:	00269513          	slli	a0,a3,0x2
4000a728:	e615                	bnez	a2,4000a754 <__subtf3+0x2c6>
4000a72a:	00a80333          	add	t1,a6,a0
4000a72e:	00032303          	lw	t1,0(t1)
4000a732:	0605                	addi	a2,a2,1
4000a734:	0811                	addi	a6,a6,4
4000a736:	fe682e23          	sw	t1,-4(a6)
4000a73a:	fec5d8e3          	bge	a1,a2,4000a72a <__subtf3+0x29c>
4000a73e:	4611                	li	a2,4
4000a740:	40d606b3          	sub	a3,a2,a3
4000a744:	a881                	j	4000a794 <__subtf3+0x306>
4000a746:	00052303          	lw	t1,0(a0)
4000a74a:	0585                	addi	a1,a1,1
4000a74c:	0511                	addi	a0,a0,4
4000a74e:	00676733          	or	a4,a4,t1
4000a752:	b7e9                	j	4000a71c <__subtf3+0x28e>
4000a754:	04050413          	addi	s0,a0,64
4000a758:	00240333          	add	t1,s0,sp
4000a75c:	fe032303          	lw	t1,-32(t1)
4000a760:	02000e13          	li	t3,32
4000a764:	40ce0e33          	sub	t3,t3,a2
4000a768:	01c31333          	sll	t1,t1,t3
4000a76c:	982a                	add	a6,a6,a0
4000a76e:	00676733          	or	a4,a4,t1
4000a772:	40a00533          	neg	a0,a0
4000a776:	4e81                	li	t4,0
4000a778:	0cbeca63          	blt	t4,a1,4000a84c <__subtf3+0x3be>
4000a77c:	4511                	li	a0,4
4000a77e:	40d506b3          	sub	a3,a0,a3
4000a782:	5532                	lw	a0,44(sp)
4000a784:	058a                	slli	a1,a1,0x2
4000a786:	04058593          	addi	a1,a1,64
4000a78a:	958a                	add	a1,a1,sp
4000a78c:	00c55633          	srl	a2,a0,a2
4000a790:	fec5a023          	sw	a2,-32(a1)
4000a794:	4611                	li	a2,4
4000a796:	8e15                	sub	a2,a2,a3
4000a798:	060a                	slli	a2,a2,0x2
4000a79a:	068a                	slli	a3,a3,0x2
4000a79c:	45a1                	li	a1,8
4000a79e:	96c6                	add	a3,a3,a7
4000a7a0:	00b66863          	bltu	a2,a1,4000a7b0 <__subtf3+0x322>
4000a7a4:	0006a023          	sw	zero,0(a3) # 80000 <__stack_size+0x7fed4>
4000a7a8:	0006a223          	sw	zero,4(a3)
4000a7ac:	1661                	addi	a2,a2,-8
4000a7ae:	06a1                	addi	a3,a3,8
4000a7b0:	4591                	li	a1,4
4000a7b2:	00b66463          	bltu	a2,a1,4000a7ba <__subtf3+0x32c>
4000a7b6:	0006a023          	sw	zero,0(a3)
4000a7ba:	5682                	lw	a3,32(sp)
4000a7bc:	00e03733          	snez	a4,a4
4000a7c0:	8f55                	or	a4,a4,a3
4000a7c2:	5692                	lw	a3,36(sp)
4000a7c4:	d03a                	sw	a4,32(sp)
4000a7c6:	973e                	add	a4,a4,a5
4000a7c8:	9936                	add	s2,s2,a3
4000a7ca:	d83a                	sw	a4,48(sp)
4000a7cc:	00f73733          	sltu	a4,a4,a5
4000a7d0:	57a2                	lw	a5,40(sp)
4000a7d2:	974a                	add	a4,a4,s2
4000a7d4:	da3a                	sw	a4,52(sp)
4000a7d6:	00d936b3          	sltu	a3,s2,a3
4000a7da:	01273733          	sltu	a4,a4,s2
4000a7de:	99be                	add	s3,s3,a5
4000a7e0:	8f55                	or	a4,a4,a3
4000a7e2:	974e                	add	a4,a4,s3
4000a7e4:	dc3a                	sw	a4,56(sp)
4000a7e6:	00f9b7b3          	sltu	a5,s3,a5
4000a7ea:	01373733          	sltu	a4,a4,s3
4000a7ee:	8fd9                	or	a5,a5,a4
4000a7f0:	5732                	lw	a4,44(sp)
4000a7f2:	975a                	add	a4,a4,s6
4000a7f4:	97ba                	add	a5,a5,a4
4000a7f6:	00080737          	lui	a4,0x80
4000a7fa:	de3e                	sw	a5,60(sp)
4000a7fc:	8f7d                	and	a4,a4,a5
4000a7fe:	e20704e3          	beqz	a4,4000a626 <__subtf3+0x198>
4000a802:	fff80737          	lui	a4,0xfff80
4000a806:	177d                	addi	a4,a4,-1 # fff7ffff <_bss_lma+0x7ff7f55f>
4000a808:	8ff9                	and	a5,a5,a4
4000a80a:	de3e                	sw	a5,60(sp)
4000a80c:	57c2                	lw	a5,48(sp)
4000a80e:	0485                	addi	s1,s1,1
4000a810:	186c                	addi	a1,sp,60
4000a812:	01f79713          	slli	a4,a5,0x1f
4000a816:	181c                	addi	a5,sp,48
4000a818:	4394                	lw	a3,0(a5)
4000a81a:	43d0                	lw	a2,4(a5)
4000a81c:	8285                	srli	a3,a3,0x1
4000a81e:	067e                	slli	a2,a2,0x1f
4000a820:	8ed1                	or	a3,a3,a2
4000a822:	c394                	sw	a3,0(a5)
4000a824:	0791                	addi	a5,a5,4
4000a826:	fef599e3          	bne	a1,a5,4000a818 <__subtf3+0x38a>
4000a82a:	57f2                	lw	a5,60(sp)
4000a82c:	8385                	srli	a5,a5,0x1
4000a82e:	de3e                	sw	a5,60(sp)
4000a830:	00e037b3          	snez	a5,a4
4000a834:	5742                	lw	a4,48(sp)
4000a836:	8fd9                	or	a5,a5,a4
4000a838:	d83e                	sw	a5,48(sp)
4000a83a:	67a1                	lui	a5,0x8
4000a83c:	17fd                	addi	a5,a5,-1 # 7fff <__stack_size+0x7ed3>
4000a83e:	def494e3          	bne	s1,a5,4000a626 <__subtf3+0x198>
4000a842:	de02                	sw	zero,60(sp)
4000a844:	dc02                	sw	zero,56(sp)
4000a846:	da02                	sw	zero,52(sp)
4000a848:	d802                	sw	zero,48(sp)
4000a84a:	bbf1                	j	4000a626 <__subtf3+0x198>
4000a84c:	00082303          	lw	t1,0(a6)
4000a850:	00482f03          	lw	t5,4(a6)
4000a854:	00a80fb3          	add	t6,a6,a0
4000a858:	00c35333          	srl	t1,t1,a2
4000a85c:	01cf1f33          	sll	t5,t5,t3
4000a860:	01e36333          	or	t1,t1,t5
4000a864:	006fa023          	sw	t1,0(t6)
4000a868:	0e85                	addi	t4,t4,1
4000a86a:	0811                	addi	a6,a6,4
4000a86c:	b731                	j	4000a778 <__subtf3+0x2ea>
4000a86e:	fff80593          	addi	a1,a6,-1
4000a872:	e985                	bnez	a1,4000a8a2 <__subtf3+0x414>
4000a874:	943e                	add	s0,s0,a5
4000a876:	9936                	add	s2,s2,a3
4000a878:	d822                	sw	s0,48(sp)
4000a87a:	00f43433          	sltu	s0,s0,a5
4000a87e:	944a                	add	s0,s0,s2
4000a880:	da22                	sw	s0,52(sp)
4000a882:	00d936b3          	sltu	a3,s2,a3
4000a886:	01243433          	sltu	s0,s0,s2
4000a88a:	99ba                	add	s3,s3,a4
4000a88c:	8ec1                	or	a3,a3,s0
4000a88e:	96ce                	add	a3,a3,s3
4000a890:	dc36                	sw	a3,56(sp)
4000a892:	00e9b7b3          	sltu	a5,s3,a4
4000a896:	0136b6b3          	sltu	a3,a3,s3
4000a89a:	8fd5                	or	a5,a5,a3
4000a89c:	98da                	add	a7,a7,s6
4000a89e:	97c6                	add	a5,a5,a7
4000a8a0:	b38d                	j	4000a602 <__subtf3+0x174>
4000a8a2:	67a1                	lui	a5,0x8
4000a8a4:	17fd                	addi	a5,a5,-1 # 7fff <__stack_size+0x7ed3>
4000a8a6:	20f811e3          	bne	a6,a5,4000b2a8 <__subtf3+0xe1a>
4000a8aa:	d822                	sw	s0,48(sp)
4000a8ac:	da4a                	sw	s2,52(sp)
4000a8ae:	dc4e                	sw	s3,56(sp)
4000a8b0:	de5a                	sw	s6,60(sp)
4000a8b2:	ac89                	j	4000ab04 <__subtf3+0x676>
4000a8b4:	843e                	mv	s0,a5
4000a8b6:	bfd5                	j	4000a8aa <__subtf3+0x41c>
4000a8b8:	67a1                	lui	a5,0x8
4000a8ba:	17fd                	addi	a5,a5,-1 # 7fff <__stack_size+0x7ed3>
4000a8bc:	fefb87e3          	beq	s7,a5,4000a8aa <__subtf3+0x41c>
4000a8c0:	47f2                	lw	a5,28(sp)
4000a8c2:	00080737          	lui	a4,0x80
4000a8c6:	8fd9                	or	a5,a5,a4
4000a8c8:	ce3e                	sw	a5,28(sp)
4000a8ca:	07400793          	li	a5,116
4000a8ce:	1f07c1e3          	blt	a5,a6,4000b2b0 <__subtf3+0xe22>
4000a8d2:	85c2                	mv	a1,a6
4000a8d4:	02000713          	li	a4,32
4000a8d8:	02e5c733          	div	a4,a1,a4
4000a8dc:	86b2                	mv	a3,a2
4000a8de:	4481                	li	s1,0
4000a8e0:	4781                	li	a5,0
4000a8e2:	02e7c663          	blt	a5,a4,4000a90e <__subtf3+0x480>
4000a8e6:	478d                	li	a5,3
4000a8e8:	01f5f893          	andi	a7,a1,31
4000a8ec:	8f99                	sub	a5,a5,a4
4000a8ee:	00271813          	slli	a6,a4,0x2
4000a8f2:	02089563          	bnez	a7,4000a91c <__subtf3+0x48e>
4000a8f6:	010606b3          	add	a3,a2,a6
4000a8fa:	4294                	lw	a3,0(a3)
4000a8fc:	0885                	addi	a7,a7,1
4000a8fe:	c214                	sw	a3,0(a2)
4000a900:	0611                	addi	a2,a2,4
4000a902:	ff17dae3          	bge	a5,a7,4000a8f6 <__subtf3+0x468>
4000a906:	4791                	li	a5,4
4000a908:	40e78733          	sub	a4,a5,a4
4000a90c:	a8a9                	j	4000a966 <__subtf3+0x4d8>
4000a90e:	0006a803          	lw	a6,0(a3)
4000a912:	0785                	addi	a5,a5,1
4000a914:	0691                	addi	a3,a3,4
4000a916:	0104e4b3          	or	s1,s1,a6
4000a91a:	b7e1                	j	4000a8e2 <__subtf3+0x454>
4000a91c:	02000693          	li	a3,32
4000a920:	02d5e5b3          	rem	a1,a1,a3
4000a924:	40b685b3          	sub	a1,a3,a1
4000a928:	86ba                	mv	a3,a4
4000a92a:	00075363          	bgez	a4,4000a930 <__subtf3+0x4a2>
4000a92e:	4681                	li	a3,0
4000a930:	068a                	slli	a3,a3,0x2
4000a932:	04068693          	addi	a3,a3,64
4000a936:	968a                	add	a3,a3,sp
4000a938:	fd06a683          	lw	a3,-48(a3)
4000a93c:	9642                	add	a2,a2,a6
4000a93e:	4301                	li	t1,0
4000a940:	00b696b3          	sll	a3,a3,a1
4000a944:	8cd5                	or	s1,s1,a3
4000a946:	41000833          	neg	a6,a6
4000a94a:	06f34b63          	blt	t1,a5,4000a9c0 <__subtf3+0x532>
4000a94e:	4691                	li	a3,4
4000a950:	40e68733          	sub	a4,a3,a4
4000a954:	46f2                	lw	a3,28(sp)
4000a956:	078a                	slli	a5,a5,0x2
4000a958:	04078793          	addi	a5,a5,64
4000a95c:	978a                	add	a5,a5,sp
4000a95e:	0116d6b3          	srl	a3,a3,a7
4000a962:	fcd7a823          	sw	a3,-48(a5)
4000a966:	4791                	li	a5,4
4000a968:	4601                	li	a2,0
4000a96a:	00e7c563          	blt	a5,a4,4000a974 <__subtf3+0x4e6>
4000a96e:	8f99                	sub	a5,a5,a4
4000a970:	00279613          	slli	a2,a5,0x2
4000a974:	070a                	slli	a4,a4,0x2
4000a976:	953a                	add	a0,a0,a4
4000a978:	4581                	li	a1,0
4000a97a:	ff2f70ef          	jal	ra,4000216c <memset>
4000a97e:	4742                	lw	a4,16(sp)
4000a980:	009037b3          	snez	a5,s1
4000a984:	8fd9                	or	a5,a5,a4
4000a986:	46d2                	lw	a3,20(sp)
4000a988:	c83e                	sw	a5,16(sp)
4000a98a:	97a2                	add	a5,a5,s0
4000a98c:	9936                	add	s2,s2,a3
4000a98e:	d83e                	sw	a5,48(sp)
4000a990:	0087b7b3          	sltu	a5,a5,s0
4000a994:	00f90733          	add	a4,s2,a5
4000a998:	47e2                	lw	a5,24(sp)
4000a99a:	da3a                	sw	a4,52(sp)
4000a99c:	00d936b3          	sltu	a3,s2,a3
4000a9a0:	01273733          	sltu	a4,a4,s2
4000a9a4:	99be                	add	s3,s3,a5
4000a9a6:	8f55                	or	a4,a4,a3
4000a9a8:	974e                	add	a4,a4,s3
4000a9aa:	dc3a                	sw	a4,56(sp)
4000a9ac:	00f9b7b3          	sltu	a5,s3,a5
4000a9b0:	01373733          	sltu	a4,a4,s3
4000a9b4:	8fd9                	or	a5,a5,a4
4000a9b6:	4772                	lw	a4,28(sp)
4000a9b8:	84de                	mv	s1,s7
4000a9ba:	975a                	add	a4,a4,s6
4000a9bc:	97ba                	add	a5,a5,a4
4000a9be:	bd25                	j	4000a7f6 <__subtf3+0x368>
4000a9c0:	4214                	lw	a3,0(a2)
4000a9c2:	00462e03          	lw	t3,4(a2)
4000a9c6:	01060eb3          	add	t4,a2,a6
4000a9ca:	0116d6b3          	srl	a3,a3,a7
4000a9ce:	00be1e33          	sll	t3,t3,a1
4000a9d2:	01c6e6b3          	or	a3,a3,t3
4000a9d6:	00dea023          	sw	a3,0(t4)
4000a9da:	0305                	addi	t1,t1,1
4000a9dc:	0611                	addi	a2,a2,4
4000a9de:	b7b5                	j	4000a94a <__subtf3+0x4bc>
4000a9e0:	6821                	lui	a6,0x8
4000a9e2:	00148593          	addi	a1,s1,1
4000a9e6:	ffe80513          	addi	a0,a6,-2 # 7ffe <__stack_size+0x7ed2>
4000a9ea:	8d6d                	and	a0,a0,a1
4000a9ec:	4752                	lw	a4,20(sp)
4000a9ee:	4662                	lw	a2,24(sp)
4000a9f0:	46f2                	lw	a3,28(sp)
4000a9f2:	e955                	bnez	a0,4000aaa6 <__subtf3+0x618>
4000a9f4:	00c765b3          	or	a1,a4,a2
4000a9f8:	8dd5                	or	a1,a1,a3
4000a9fa:	8ddd                	or	a1,a1,a5
4000a9fc:	e4b5                	bnez	s1,4000aa68 <__subtf3+0x5da>
4000a9fe:	e599                	bnez	a1,4000aa0c <__subtf3+0x57e>
4000aa00:	d822                	sw	s0,48(sp)
4000aa02:	da4a                	sw	s2,52(sp)
4000aa04:	dc4e                	sw	s3,56(sp)
4000aa06:	de5a                	sw	s6,60(sp)
4000aa08:	4481                	li	s1,0
4000aa0a:	b931                	j	4000a626 <__subtf3+0x198>
4000aa0c:	013965b3          	or	a1,s2,s3
4000aa10:	0165e5b3          	or	a1,a1,s6
4000aa14:	8dc1                	or	a1,a1,s0
4000aa16:	e591                	bnez	a1,4000aa22 <__subtf3+0x594>
4000aa18:	d83e                	sw	a5,48(sp)
4000aa1a:	da3a                	sw	a4,52(sp)
4000aa1c:	dc32                	sw	a2,56(sp)
4000aa1e:	de36                	sw	a3,60(sp)
4000aa20:	b119                	j	4000a626 <__subtf3+0x198>
4000aa22:	943e                	add	s0,s0,a5
4000aa24:	993a                	add	s2,s2,a4
4000aa26:	d822                	sw	s0,48(sp)
4000aa28:	00f43433          	sltu	s0,s0,a5
4000aa2c:	944a                	add	s0,s0,s2
4000aa2e:	da22                	sw	s0,52(sp)
4000aa30:	00e93733          	sltu	a4,s2,a4
4000aa34:	01243433          	sltu	s0,s0,s2
4000aa38:	99b2                	add	s3,s3,a2
4000aa3a:	8f41                	or	a4,a4,s0
4000aa3c:	974e                	add	a4,a4,s3
4000aa3e:	dc3a                	sw	a4,56(sp)
4000aa40:	00c9b7b3          	sltu	a5,s3,a2
4000aa44:	01373733          	sltu	a4,a4,s3
4000aa48:	8fd9                	or	a5,a5,a4
4000aa4a:	96da                	add	a3,a3,s6
4000aa4c:	97b6                	add	a5,a5,a3
4000aa4e:	00080737          	lui	a4,0x80
4000aa52:	8f7d                	and	a4,a4,a5
4000aa54:	e319                	bnez	a4,4000aa5a <__subtf3+0x5cc>
4000aa56:	de3e                	sw	a5,60(sp)
4000aa58:	bf45                	j	4000aa08 <__subtf3+0x57a>
4000aa5a:	fff80737          	lui	a4,0xfff80
4000aa5e:	177d                	addi	a4,a4,-1 # fff7ffff <_bss_lma+0x7ff7f55f>
4000aa60:	8ff9                	and	a5,a5,a4
4000aa62:	de3e                	sw	a5,60(sp)
4000aa64:	4485                	li	s1,1
4000aa66:	b6c1                	j	4000a626 <__subtf3+0x198>
4000aa68:	ba0583e3          	beqz	a1,4000a60e <__subtf3+0x180>
4000aa6c:	01396933          	or	s2,s2,s3
4000aa70:	01696933          	or	s2,s2,s6
4000aa74:	00896933          	or	s2,s2,s0
4000aa78:	b8090de3          	beqz	s2,4000a612 <__subtf3+0x184>
4000aa7c:	de42                	sw	a6,60(sp)
4000aa7e:	dc02                	sw	zero,56(sp)
4000aa80:	da02                	sw	zero,52(sp)
4000aa82:	d802                	sw	zero,48(sp)
4000aa84:	181c                	addi	a5,sp,48
4000aa86:	1050                	addi	a2,sp,36
4000aa88:	47d8                	lw	a4,12(a5)
4000aa8a:	4794                	lw	a3,8(a5)
4000aa8c:	17f1                	addi	a5,a5,-4
4000aa8e:	070e                	slli	a4,a4,0x3
4000aa90:	82f5                	srli	a3,a3,0x1d
4000aa92:	8f55                	or	a4,a4,a3
4000aa94:	cb98                	sw	a4,16(a5)
4000aa96:	fef619e3          	bne	a2,a5,4000aa88 <__subtf3+0x5fa>
4000aa9a:	57c2                	lw	a5,48(sp)
4000aa9c:	64a1                	lui	s1,0x8
4000aa9e:	14fd                	addi	s1,s1,-1 # 7fff <__stack_size+0x7ed3>
4000aaa0:	078e                	slli	a5,a5,0x3
4000aaa2:	d83e                	sw	a5,48(sp)
4000aaa4:	a91d                	j	4000aeda <__subtf3+0xa4c>
4000aaa6:	943e                	add	s0,s0,a5
4000aaa8:	993a                	add	s2,s2,a4
4000aaaa:	d822                	sw	s0,48(sp)
4000aaac:	00f43433          	sltu	s0,s0,a5
4000aab0:	944a                	add	s0,s0,s2
4000aab2:	da22                	sw	s0,52(sp)
4000aab4:	00e93733          	sltu	a4,s2,a4
4000aab8:	01243433          	sltu	s0,s0,s2
4000aabc:	99b2                	add	s3,s3,a2
4000aabe:	8f41                	or	a4,a4,s0
4000aac0:	974e                	add	a4,a4,s3
4000aac2:	00c9b7b3          	sltu	a5,s3,a2
4000aac6:	dc3a                	sw	a4,56(sp)
4000aac8:	01373733          	sltu	a4,a4,s3
4000aacc:	8fd9                	or	a5,a5,a4
4000aace:	96da                	add	a3,a3,s6
4000aad0:	97b6                	add	a5,a5,a3
4000aad2:	de3e                	sw	a5,60(sp)
4000aad4:	1870                	addi	a2,sp,60
4000aad6:	181c                	addi	a5,sp,48
4000aad8:	4398                	lw	a4,0(a5)
4000aada:	43d4                	lw	a3,4(a5)
4000aadc:	8305                	srli	a4,a4,0x1
4000aade:	06fe                	slli	a3,a3,0x1f
4000aae0:	8f55                	or	a4,a4,a3
4000aae2:	c398                	sw	a4,0(a5)
4000aae4:	0791                	addi	a5,a5,4
4000aae6:	fef619e3          	bne	a2,a5,4000aad8 <__subtf3+0x64a>
4000aaea:	6721                	lui	a4,0x8
4000aaec:	177d                	addi	a4,a4,-1 # 7fff <__stack_size+0x7ed3>
4000aaee:	57f2                	lw	a5,60(sp)
4000aaf0:	00e58663          	beq	a1,a4,4000aafc <__subtf3+0x66e>
4000aaf4:	8385                	srli	a5,a5,0x1
4000aaf6:	de3e                	sw	a5,60(sp)
4000aaf8:	84ae                	mv	s1,a1
4000aafa:	b635                	j	4000a626 <__subtf3+0x198>
4000aafc:	de02                	sw	zero,60(sp)
4000aafe:	dc02                	sw	zero,56(sp)
4000ab00:	da02                	sw	zero,52(sp)
4000ab02:	d802                	sw	zero,48(sp)
4000ab04:	64a1                	lui	s1,0x8
4000ab06:	14fd                	addi	s1,s1,-1 # 7fff <__stack_size+0x7ed3>
4000ab08:	be39                	j	4000a626 <__subtf3+0x198>
4000ab0a:	1cb05863          	blez	a1,4000acda <__subtf3+0x84c>
4000ab0e:	4952                	lw	s2,20(sp)
4000ab10:	49e2                	lw	s3,24(sp)
4000ab12:	4b72                	lw	s6,28(sp)
4000ab14:	060b9c63          	bnez	s7,4000ab8c <__subtf3+0x6fe>
4000ab18:	5e92                	lw	t4,36(sp)
4000ab1a:	5e22                	lw	t3,40(sp)
4000ab1c:	56b2                	lw	a3,44(sp)
4000ab1e:	01cee733          	or	a4,t4,t3
4000ab22:	8f55                	or	a4,a4,a3
4000ab24:	8f41                	or	a4,a4,s0
4000ab26:	aa0700e3          	beqz	a4,4000a5c6 <__subtf3+0x138>
4000ab2a:	fff58513          	addi	a0,a1,-1
4000ab2e:	e521                	bnez	a0,4000ab76 <__subtf3+0x6e8>
4000ab30:	41d90633          	sub	a2,s2,t4
4000ab34:	40878733          	sub	a4,a5,s0
4000ab38:	00c938b3          	sltu	a7,s2,a2
4000ab3c:	00e7b5b3          	sltu	a1,a5,a4
4000ab40:	8e0d                	sub	a2,a2,a1
4000ab42:	8346                	mv	t1,a7
4000ab44:	41c985b3          	sub	a1,s3,t3
4000ab48:	01c9b833          	sltu	a6,s3,t3
4000ab4c:	00e7fa63          	bgeu	a5,a4,4000ab60 <__subtf3+0x6d2>
4000ab50:	012e9863          	bne	t4,s2,4000ab60 <__subtf3+0x6d2>
4000ab54:	15fd                	addi	a1,a1,-1
4000ab56:	413e07b3          	sub	a5,t3,s3
4000ab5a:	0017b513          	seqz	a0,a5
4000ab5e:	a029                	j	4000ab68 <__subtf3+0x6da>
4000ab60:	406585b3          	sub	a1,a1,t1
4000ab64:	fe0899e3          	bnez	a7,4000ab56 <__subtf3+0x6c8>
4000ab68:	40db07b3          	sub	a5,s6,a3
4000ab6c:	010566b3          	or	a3,a0,a6
4000ab70:	8f95                	sub	a5,a5,a3
4000ab72:	4485                	li	s1,1
4000ab74:	a2a9                	j	4000acbe <__subtf3+0x830>
4000ab76:	a8658ae3          	beq	a1,t1,4000a60a <__subtf3+0x17c>
4000ab7a:	07400713          	li	a4,116
4000ab7e:	02a75363          	bge	a4,a0,4000aba4 <__subtf3+0x716>
4000ab82:	d602                	sw	zero,44(sp)
4000ab84:	d402                	sw	zero,40(sp)
4000ab86:	d202                	sw	zero,36(sp)
4000ab88:	4705                	li	a4,1
4000ab8a:	a0d9                	j	4000ac50 <__subtf3+0x7c2>
4000ab8c:	d26484e3          	beq	s1,t1,4000a8b4 <__subtf3+0x426>
4000ab90:	5732                	lw	a4,44(sp)
4000ab92:	000806b7          	lui	a3,0x80
4000ab96:	8f55                	or	a4,a4,a3
4000ab98:	d63a                	sw	a4,44(sp)
4000ab9a:	07400713          	li	a4,116
4000ab9e:	feb742e3          	blt	a4,a1,4000ab82 <__subtf3+0x6f4>
4000aba2:	852e                	mv	a0,a1
4000aba4:	40555693          	srai	a3,a0,0x5
4000aba8:	01f57e13          	andi	t3,a0,31
4000abac:	85c2                	mv	a1,a6
4000abae:	4701                	li	a4,0
4000abb0:	4601                	li	a2,0
4000abb2:	02d61563          	bne	a2,a3,4000abdc <__subtf3+0x74e>
4000abb6:	460d                	li	a2,3
4000abb8:	8e15                	sub	a2,a2,a3
4000abba:	00269593          	slli	a1,a3,0x2
4000abbe:	020e1463          	bnez	t3,4000abe6 <__subtf3+0x758>
4000abc2:	00b80533          	add	a0,a6,a1
4000abc6:	4108                	lw	a0,0(a0)
4000abc8:	0e05                	addi	t3,t3,1
4000abca:	0811                	addi	a6,a6,4
4000abcc:	fea82e23          	sw	a0,-4(a6)
4000abd0:	ffc659e3          	bge	a2,t3,4000abc2 <__subtf3+0x734>
4000abd4:	4611                	li	a2,4
4000abd6:	40d606b3          	sub	a3,a2,a3
4000abda:	a0a1                	j	4000ac22 <__subtf3+0x794>
4000abdc:	4188                	lw	a0,0(a1)
4000abde:	0605                	addi	a2,a2,1
4000abe0:	0591                	addi	a1,a1,4
4000abe2:	8f49                	or	a4,a4,a0
4000abe4:	b7f9                	j	4000abb2 <__subtf3+0x724>
4000abe6:	04058513          	addi	a0,a1,64
4000abea:	950a                	add	a0,a0,sp
4000abec:	fe052503          	lw	a0,-32(a0)
4000abf0:	02000313          	li	t1,32
4000abf4:	41c30333          	sub	t1,t1,t3
4000abf8:	00651533          	sll	a0,a0,t1
4000abfc:	982e                	add	a6,a6,a1
4000abfe:	8f49                	or	a4,a4,a0
4000ac00:	40b005b3          	neg	a1,a1
4000ac04:	4e81                	li	t4,0
4000ac06:	08cec063          	blt	t4,a2,4000ac86 <__subtf3+0x7f8>
4000ac0a:	4591                	li	a1,4
4000ac0c:	40d586b3          	sub	a3,a1,a3
4000ac10:	55b2                	lw	a1,44(sp)
4000ac12:	060a                	slli	a2,a2,0x2
4000ac14:	04060613          	addi	a2,a2,64
4000ac18:	960a                	add	a2,a2,sp
4000ac1a:	01c5d5b3          	srl	a1,a1,t3
4000ac1e:	feb62023          	sw	a1,-32(a2)
4000ac22:	4611                	li	a2,4
4000ac24:	8e15                	sub	a2,a2,a3
4000ac26:	060a                	slli	a2,a2,0x2
4000ac28:	068a                	slli	a3,a3,0x2
4000ac2a:	45a1                	li	a1,8
4000ac2c:	96c6                	add	a3,a3,a7
4000ac2e:	00b66863          	bltu	a2,a1,4000ac3e <__subtf3+0x7b0>
4000ac32:	0006a023          	sw	zero,0(a3) # 80000 <__stack_size+0x7fed4>
4000ac36:	0006a223          	sw	zero,4(a3)
4000ac3a:	1661                	addi	a2,a2,-8
4000ac3c:	06a1                	addi	a3,a3,8
4000ac3e:	4591                	li	a1,4
4000ac40:	00b66463          	bltu	a2,a1,4000ac48 <__subtf3+0x7ba>
4000ac44:	0006a023          	sw	zero,0(a3)
4000ac48:	5682                	lw	a3,32(sp)
4000ac4a:	00e03733          	snez	a4,a4
4000ac4e:	8f55                	or	a4,a4,a3
4000ac50:	5512                	lw	a0,36(sp)
4000ac52:	d03a                	sw	a4,32(sp)
4000ac54:	40e78733          	sub	a4,a5,a4
4000ac58:	40a90633          	sub	a2,s2,a0
4000ac5c:	00e7b6b3          	sltu	a3,a5,a4
4000ac60:	00c938b3          	sltu	a7,s2,a2
4000ac64:	8e15                	sub	a2,a2,a3
4000ac66:	56a2                	lw	a3,40(sp)
4000ac68:	8346                	mv	t1,a7
4000ac6a:	40d985b3          	sub	a1,s3,a3
4000ac6e:	00d9b833          	sltu	a6,s3,a3
4000ac72:	02e7fb63          	bgeu	a5,a4,4000aca8 <__subtf3+0x81a>
4000ac76:	03251963          	bne	a0,s2,4000aca8 <__subtf3+0x81a>
4000ac7a:	15fd                	addi	a1,a1,-1
4000ac7c:	413686b3          	sub	a3,a3,s3
4000ac80:	0016b513          	seqz	a0,a3
4000ac84:	a03d                	j	4000acb2 <__subtf3+0x824>
4000ac86:	00082503          	lw	a0,0(a6)
4000ac8a:	00482f03          	lw	t5,4(a6)
4000ac8e:	00b80fb3          	add	t6,a6,a1
4000ac92:	01c55533          	srl	a0,a0,t3
4000ac96:	006f1f33          	sll	t5,t5,t1
4000ac9a:	01e56533          	or	a0,a0,t5
4000ac9e:	00afa023          	sw	a0,0(t6)
4000aca2:	0e85                	addi	t4,t4,1
4000aca4:	0811                	addi	a6,a6,4
4000aca6:	b785                	j	4000ac06 <__subtf3+0x778>
4000aca8:	406585b3          	sub	a1,a1,t1
4000acac:	4501                	li	a0,0
4000acae:	fc0897e3          	bnez	a7,4000ac7c <__subtf3+0x7ee>
4000acb2:	57b2                	lw	a5,44(sp)
4000acb4:	01056533          	or	a0,a0,a6
4000acb8:	40fb07b3          	sub	a5,s6,a5
4000acbc:	8f89                	sub	a5,a5,a0
4000acbe:	d83a                	sw	a4,48(sp)
4000acc0:	00080737          	lui	a4,0x80
4000acc4:	de3e                	sw	a5,60(sp)
4000acc6:	dc2e                	sw	a1,56(sp)
4000acc8:	da32                	sw	a2,52(sp)
4000acca:	00e7f6b3          	and	a3,a5,a4
4000acce:	94068ce3          	beqz	a3,4000a626 <__subtf3+0x198>
4000acd2:	177d                	addi	a4,a4,-1 # 7ffff <__stack_size+0x7fed3>
4000acd4:	8ff9                	and	a5,a5,a4
4000acd6:	de3e                	sw	a5,60(sp)
4000acd8:	a6f9                	j	4000b0a6 <__subtf3+0xc18>
4000acda:	5992                	lw	s3,36(sp)
4000acdc:	5c22                	lw	s8,40(sp)
4000acde:	5b32                	lw	s6,44(sp)
4000ace0:	1c058063          	beqz	a1,4000aea0 <__subtf3+0xa12>
4000ace4:	409b8733          	sub	a4,s7,s1
4000ace8:	e0c1                	bnez	s1,4000ad68 <__subtf3+0x8da>
4000acea:	4352                	lw	t1,20(sp)
4000acec:	4862                	lw	a6,24(sp)
4000acee:	46f2                	lw	a3,28(sp)
4000acf0:	010365b3          	or	a1,t1,a6
4000acf4:	8dd5                	or	a1,a1,a3
4000acf6:	8ddd                	or	a1,a1,a5
4000acf8:	e981                	bnez	a1,4000ad08 <__subtf3+0x87a>
4000acfa:	d822                	sw	s0,48(sp)
4000acfc:	da4e                	sw	s3,52(sp)
4000acfe:	dc62                	sw	s8,56(sp)
4000ad00:	de5a                	sw	s6,60(sp)
4000ad02:	84ba                	mv	s1,a4
4000ad04:	8aca                	mv	s5,s2
4000ad06:	b205                	j	4000a626 <__subtf3+0x198>
4000ad08:	fff70893          	addi	a7,a4,-1
4000ad0c:	04089463          	bnez	a7,4000ad54 <__subtf3+0x8c6>
4000ad10:	40f40733          	sub	a4,s0,a5
4000ad14:	40698633          	sub	a2,s3,t1
4000ad18:	00c9b7b3          	sltu	a5,s3,a2
4000ad1c:	00e435b3          	sltu	a1,s0,a4
4000ad20:	8e0d                	sub	a2,a2,a1
4000ad22:	8e3e                	mv	t3,a5
4000ad24:	410c05b3          	sub	a1,s8,a6
4000ad28:	010c3533          	sltu	a0,s8,a6
4000ad2c:	00e47a63          	bgeu	s0,a4,4000ad40 <__subtf3+0x8b2>
4000ad30:	01331863          	bne	t1,s3,4000ad40 <__subtf3+0x8b2>
4000ad34:	15fd                	addi	a1,a1,-1
4000ad36:	418807b3          	sub	a5,a6,s8
4000ad3a:	0017b893          	seqz	a7,a5
4000ad3e:	a021                	j	4000ad46 <__subtf3+0x8b8>
4000ad40:	41c585b3          	sub	a1,a1,t3
4000ad44:	fbed                	bnez	a5,4000ad36 <__subtf3+0x8a8>
4000ad46:	40db07b3          	sub	a5,s6,a3
4000ad4a:	00a8e6b3          	or	a3,a7,a0
4000ad4e:	8f95                	sub	a5,a5,a3
4000ad50:	8aca                	mv	s5,s2
4000ad52:	b505                	j	4000ab72 <__subtf3+0x6e4>
4000ad54:	67a1                	lui	a5,0x8
4000ad56:	17fd                	addi	a5,a5,-1 # 7fff <__stack_size+0x7ed3>
4000ad58:	56f71263          	bne	a4,a5,4000b2bc <__subtf3+0xe2e>
4000ad5c:	d822                	sw	s0,48(sp)
4000ad5e:	da4e                	sw	s3,52(sp)
4000ad60:	dc62                	sw	s8,56(sp)
4000ad62:	de5a                	sw	s6,60(sp)
4000ad64:	8aca                	mv	s5,s2
4000ad66:	bb79                	j	4000ab04 <__subtf3+0x676>
4000ad68:	67a1                	lui	a5,0x8
4000ad6a:	17fd                	addi	a5,a5,-1 # 7fff <__stack_size+0x7ed3>
4000ad6c:	fefb88e3          	beq	s7,a5,4000ad5c <__subtf3+0x8ce>
4000ad70:	47f2                	lw	a5,28(sp)
4000ad72:	000806b7          	lui	a3,0x80
4000ad76:	8fd5                	or	a5,a5,a3
4000ad78:	ce3e                	sw	a5,28(sp)
4000ad7a:	07400793          	li	a5,116
4000ad7e:	54e7c363          	blt	a5,a4,4000b2c4 <__subtf3+0xe36>
4000ad82:	88ba                	mv	a7,a4
4000ad84:	02000793          	li	a5,32
4000ad88:	02f8c7b3          	div	a5,a7,a5
4000ad8c:	86b2                	mv	a3,a2
4000ad8e:	4481                	li	s1,0
4000ad90:	4701                	li	a4,0
4000ad92:	02f74563          	blt	a4,a5,4000adbc <__subtf3+0x92e>
4000ad96:	468d                	li	a3,3
4000ad98:	01f8f713          	andi	a4,a7,31
4000ad9c:	8e9d                	sub	a3,a3,a5
4000ad9e:	00279813          	slli	a6,a5,0x2
4000ada2:	e315                	bnez	a4,4000adc6 <__subtf3+0x938>
4000ada4:	010605b3          	add	a1,a2,a6
4000ada8:	418c                	lw	a1,0(a1)
4000adaa:	0705                	addi	a4,a4,1
4000adac:	c20c                	sw	a1,0(a2)
4000adae:	0611                	addi	a2,a2,4
4000adb0:	fee6dae3          	bge	a3,a4,4000ada4 <__subtf3+0x916>
4000adb4:	4711                	li	a4,4
4000adb6:	40f707b3          	sub	a5,a4,a5
4000adba:	a899                	j	4000ae10 <__subtf3+0x982>
4000adbc:	428c                	lw	a1,0(a3)
4000adbe:	0705                	addi	a4,a4,1
4000adc0:	0691                	addi	a3,a3,4 # 80004 <__stack_size+0x7fed8>
4000adc2:	8ccd                	or	s1,s1,a1
4000adc4:	b7f9                	j	4000ad92 <__subtf3+0x904>
4000adc6:	02000593          	li	a1,32
4000adca:	02b8e8b3          	rem	a7,a7,a1
4000adce:	411588b3          	sub	a7,a1,a7
4000add2:	85be                	mv	a1,a5
4000add4:	0007d363          	bgez	a5,4000adda <__subtf3+0x94c>
4000add8:	4581                	li	a1,0
4000adda:	058a                	slli	a1,a1,0x2
4000addc:	04058593          	addi	a1,a1,64
4000ade0:	958a                	add	a1,a1,sp
4000ade2:	fd05a583          	lw	a1,-48(a1)
4000ade6:	9642                	add	a2,a2,a6
4000ade8:	4301                	li	t1,0
4000adea:	011595b3          	sll	a1,a1,a7
4000adee:	8ccd                	or	s1,s1,a1
4000adf0:	41000833          	neg	a6,a6
4000adf4:	06d34963          	blt	t1,a3,4000ae66 <__subtf3+0x9d8>
4000adf8:	4611                	li	a2,4
4000adfa:	40f607b3          	sub	a5,a2,a5
4000adfe:	4672                	lw	a2,28(sp)
4000ae00:	068a                	slli	a3,a3,0x2
4000ae02:	04068693          	addi	a3,a3,64
4000ae06:	968a                	add	a3,a3,sp
4000ae08:	00e65733          	srl	a4,a2,a4
4000ae0c:	fce6a823          	sw	a4,-48(a3)
4000ae10:	4711                	li	a4,4
4000ae12:	4601                	li	a2,0
4000ae14:	00f74563          	blt	a4,a5,4000ae1e <__subtf3+0x990>
4000ae18:	8f1d                	sub	a4,a4,a5
4000ae1a:	00271613          	slli	a2,a4,0x2
4000ae1e:	078a                	slli	a5,a5,0x2
4000ae20:	953e                	add	a0,a0,a5
4000ae22:	4581                	li	a1,0
4000ae24:	b48f70ef          	jal	ra,4000216c <memset>
4000ae28:	47c2                	lw	a5,16(sp)
4000ae2a:	00903733          	snez	a4,s1
4000ae2e:	8f5d                	or	a4,a4,a5
4000ae30:	46d2                	lw	a3,20(sp)
4000ae32:	c83a                	sw	a4,16(sp)
4000ae34:	40e40733          	sub	a4,s0,a4
4000ae38:	40d98633          	sub	a2,s3,a3
4000ae3c:	00e437b3          	sltu	a5,s0,a4
4000ae40:	00c9b833          	sltu	a6,s3,a2
4000ae44:	8e1d                	sub	a2,a2,a5
4000ae46:	47e2                	lw	a5,24(sp)
4000ae48:	88c2                	mv	a7,a6
4000ae4a:	40fc05b3          	sub	a1,s8,a5
4000ae4e:	00fc3533          	sltu	a0,s8,a5
4000ae52:	02e47a63          	bgeu	s0,a4,4000ae86 <__subtf3+0x9f8>
4000ae56:	03369863          	bne	a3,s3,4000ae86 <__subtf3+0x9f8>
4000ae5a:	15fd                	addi	a1,a1,-1
4000ae5c:	418787b3          	sub	a5,a5,s8
4000ae60:	0017b693          	seqz	a3,a5
4000ae64:	a035                	j	4000ae90 <__subtf3+0xa02>
4000ae66:	420c                	lw	a1,0(a2)
4000ae68:	00462e03          	lw	t3,4(a2)
4000ae6c:	01060eb3          	add	t4,a2,a6
4000ae70:	00e5d5b3          	srl	a1,a1,a4
4000ae74:	011e1e33          	sll	t3,t3,a7
4000ae78:	01c5e5b3          	or	a1,a1,t3
4000ae7c:	00bea023          	sw	a1,0(t4)
4000ae80:	0305                	addi	t1,t1,1
4000ae82:	0611                	addi	a2,a2,4
4000ae84:	bf85                	j	4000adf4 <__subtf3+0x966>
4000ae86:	411585b3          	sub	a1,a1,a7
4000ae8a:	4681                	li	a3,0
4000ae8c:	fc0818e3          	bnez	a6,4000ae5c <__subtf3+0x9ce>
4000ae90:	47f2                	lw	a5,28(sp)
4000ae92:	8ec9                	or	a3,a3,a0
4000ae94:	84de                	mv	s1,s7
4000ae96:	40fb07b3          	sub	a5,s6,a5
4000ae9a:	8f95                	sub	a5,a5,a3
4000ae9c:	8aca                	mv	s5,s2
4000ae9e:	b505                	j	4000acbe <__subtf3+0x830>
4000aea0:	6821                	lui	a6,0x8
4000aea2:	00148613          	addi	a2,s1,1
4000aea6:	ffe80513          	addi	a0,a6,-2 # 7ffe <__stack_size+0x7ed2>
4000aeaa:	8e69                	and	a2,a2,a0
4000aeac:	45d2                	lw	a1,20(sp)
4000aeae:	4762                	lw	a4,24(sp)
4000aeb0:	46f2                	lw	a3,28(sp)
4000aeb2:	14061763          	bnez	a2,4000b000 <__subtf3+0xb72>
4000aeb6:	0189e633          	or	a2,s3,s8
4000aeba:	00e5e533          	or	a0,a1,a4
4000aebe:	01666633          	or	a2,a2,s6
4000aec2:	8d55                	or	a0,a0,a3
4000aec4:	8e41                	or	a2,a2,s0
4000aec6:	8d5d                	or	a0,a0,a5
4000aec8:	e8f9                	bnez	s1,4000af9e <__subtf3+0xb10>
4000aeca:	e919                	bnez	a0,4000aee0 <__subtf3+0xa52>
4000aecc:	d822                	sw	s0,48(sp)
4000aece:	da4e                	sw	s3,52(sp)
4000aed0:	dc62                	sw	s8,56(sp)
4000aed2:	de5a                	sw	s6,60(sp)
4000aed4:	e20618e3          	bnez	a2,4000ad04 <__subtf3+0x876>
4000aed8:	4481                	li	s1,0
4000aeda:	4a81                	li	s5,0
4000aedc:	f4aff06f          	j	4000a626 <__subtf3+0x198>
4000aee0:	e611                	bnez	a2,4000aeec <__subtf3+0xa5e>
4000aee2:	d83e                	sw	a5,48(sp)
4000aee4:	da2e                	sw	a1,52(sp)
4000aee6:	dc3a                	sw	a4,56(sp)
4000aee8:	de36                	sw	a3,60(sp)
4000aeea:	be39                	j	4000aa08 <__subtf3+0x57a>
4000aeec:	41358533          	sub	a0,a1,s3
4000aef0:	40878633          	sub	a2,a5,s0
4000aef4:	00a5bf33          	sltu	t5,a1,a0
4000aef8:	00c7b833          	sltu	a6,a5,a2
4000aefc:	88fa                	mv	a7,t5
4000aefe:	41050833          	sub	a6,a0,a6
4000af02:	41870e33          	sub	t3,a4,s8
4000af06:	01873eb3          	sltu	t4,a4,s8
4000af0a:	00c7f963          	bgeu	a5,a2,4000af1c <__subtf3+0xa8e>
4000af0e:	01359763          	bne	a1,s3,4000af1c <__subtf3+0xa8e>
4000af12:	fffe0893          	addi	a7,t3,-1
4000af16:	001e3313          	seqz	t1,t3
4000af1a:	a031                	j	4000af26 <__subtf3+0xa98>
4000af1c:	411e08b3          	sub	a7,t3,a7
4000af20:	4301                	li	t1,0
4000af22:	fe0f1ae3          	bnez	t5,4000af16 <__subtf3+0xa88>
4000af26:	01d36333          	or	t1,t1,t4
4000af2a:	41668533          	sub	a0,a3,s6
4000af2e:	40650533          	sub	a0,a0,t1
4000af32:	00080337          	lui	t1,0x80
4000af36:	de2a                	sw	a0,60(sp)
4000af38:	dc46                	sw	a7,56(sp)
4000af3a:	da42                	sw	a6,52(sp)
4000af3c:	d832                	sw	a2,48(sp)
4000af3e:	00657333          	and	t1,a0,t1
4000af42:	04030763          	beqz	t1,4000af90 <__subtf3+0xb02>
4000af46:	40b98633          	sub	a2,s3,a1
4000af4a:	40f407b3          	sub	a5,s0,a5
4000af4e:	00c9b833          	sltu	a6,s3,a2
4000af52:	00f43533          	sltu	a0,s0,a5
4000af56:	8e09                	sub	a2,a2,a0
4000af58:	88c2                	mv	a7,a6
4000af5a:	40ec0533          	sub	a0,s8,a4
4000af5e:	00ec3733          	sltu	a4,s8,a4
4000af62:	00f47963          	bgeu	s0,a5,4000af74 <__subtf3+0xae6>
4000af66:	01359763          	bne	a1,s3,4000af74 <__subtf3+0xae6>
4000af6a:	fff50593          	addi	a1,a0,-1
4000af6e:	001e3513          	seqz	a0,t3
4000af72:	a031                	j	4000af7e <__subtf3+0xaf0>
4000af74:	411505b3          	sub	a1,a0,a7
4000af78:	4501                	li	a0,0
4000af7a:	fe081ae3          	bnez	a6,4000af6e <__subtf3+0xae0>
4000af7e:	40db06b3          	sub	a3,s6,a3
4000af82:	8d59                	or	a0,a0,a4
4000af84:	8e89                	sub	a3,a3,a0
4000af86:	de36                	sw	a3,60(sp)
4000af88:	dc2e                	sw	a1,56(sp)
4000af8a:	da32                	sw	a2,52(sp)
4000af8c:	d83e                	sw	a5,48(sp)
4000af8e:	bb9d                	j	4000ad04 <__subtf3+0x876>
4000af90:	01066633          	or	a2,a2,a6
4000af94:	01166633          	or	a2,a2,a7
4000af98:	8e49                	or	a2,a2,a0
4000af9a:	de1d                	beqz	a2,4000aed8 <__subtf3+0xa4a>
4000af9c:	b4b5                	j	4000aa08 <__subtf3+0x57a>
4000af9e:	e91d                	bnez	a0,4000afd4 <__subtf3+0xb46>
4000afa0:	e20d                	bnez	a2,4000afc2 <__subtf3+0xb34>
4000afa2:	de42                	sw	a6,60(sp)
4000afa4:	dc02                	sw	zero,56(sp)
4000afa6:	da02                	sw	zero,52(sp)
4000afa8:	d802                	sw	zero,48(sp)
4000afaa:	181c                	addi	a5,sp,48
4000afac:	1050                	addi	a2,sp,36
4000afae:	47d8                	lw	a4,12(a5)
4000afb0:	4794                	lw	a3,8(a5)
4000afb2:	17f1                	addi	a5,a5,-4
4000afb4:	070e                	slli	a4,a4,0x3
4000afb6:	82f5                	srli	a3,a3,0x1d
4000afb8:	8f55                	or	a4,a4,a3
4000afba:	cb98                	sw	a4,16(a5)
4000afbc:	fef619e3          	bne	a2,a5,4000afae <__subtf3+0xb20>
4000afc0:	bce9                	j	4000aa9a <__subtf3+0x60c>
4000afc2:	d822                	sw	s0,48(sp)
4000afc4:	da4e                	sw	s3,52(sp)
4000afc6:	dc62                	sw	s8,56(sp)
4000afc8:	de5a                	sw	s6,60(sp)
4000afca:	8aca                	mv	s5,s2
4000afcc:	fff80493          	addi	s1,a6,-1
4000afd0:	e56ff06f          	j	4000a626 <__subtf3+0x198>
4000afd4:	e611                	bnez	a2,4000afe0 <__subtf3+0xb52>
4000afd6:	d83e                	sw	a5,48(sp)
4000afd8:	da2e                	sw	a1,52(sp)
4000afda:	dc3a                	sw	a4,56(sp)
4000afdc:	de36                	sw	a3,60(sp)
4000afde:	b7fd                	j	4000afcc <__subtf3+0xb3e>
4000afe0:	de42                	sw	a6,60(sp)
4000afe2:	dc02                	sw	zero,56(sp)
4000afe4:	da02                	sw	zero,52(sp)
4000afe6:	d802                	sw	zero,48(sp)
4000afe8:	181c                	addi	a5,sp,48
4000afea:	1050                	addi	a2,sp,36
4000afec:	47d8                	lw	a4,12(a5)
4000afee:	4794                	lw	a3,8(a5)
4000aff0:	17f1                	addi	a5,a5,-4
4000aff2:	070e                	slli	a4,a4,0x3
4000aff4:	82f5                	srli	a3,a3,0x1d
4000aff6:	8f55                	or	a4,a4,a3
4000aff8:	cb98                	sw	a4,16(a5)
4000affa:	fef619e3          	bne	a2,a5,4000afec <__subtf3+0xb5e>
4000affe:	bc71                	j	4000aa9a <__subtf3+0x60c>
4000b000:	41358533          	sub	a0,a1,s3
4000b004:	40878633          	sub	a2,a5,s0
4000b008:	00a5bfb3          	sltu	t6,a1,a0
4000b00c:	00c7b833          	sltu	a6,a5,a2
4000b010:	88fe                	mv	a7,t6
4000b012:	41050833          	sub	a6,a0,a6
4000b016:	41870333          	sub	t1,a4,s8
4000b01a:	01873f33          	sltu	t5,a4,s8
4000b01e:	00c7f963          	bgeu	a5,a2,4000b030 <__subtf3+0xba2>
4000b022:	01359763          	bne	a1,s3,4000b030 <__subtf3+0xba2>
4000b026:	fff30893          	addi	a7,t1,-1 # 7ffff <__stack_size+0x7fed3>
4000b02a:	00133e93          	seqz	t4,t1
4000b02e:	a031                	j	4000b03a <__subtf3+0xbac>
4000b030:	411308b3          	sub	a7,t1,a7
4000b034:	4e81                	li	t4,0
4000b036:	fe0f9ae3          	bnez	t6,4000b02a <__subtf3+0xb9c>
4000b03a:	01eeeeb3          	or	t4,t4,t5
4000b03e:	41668533          	sub	a0,a3,s6
4000b042:	41d50533          	sub	a0,a0,t4
4000b046:	00080eb7          	lui	t4,0x80
4000b04a:	de2a                	sw	a0,60(sp)
4000b04c:	dc46                	sw	a7,56(sp)
4000b04e:	da42                	sw	a6,52(sp)
4000b050:	d832                	sw	a2,48(sp)
4000b052:	01d57eb3          	and	t4,a0,t4
4000b056:	100e8363          	beqz	t4,4000b15c <__subtf3+0xcce>
4000b05a:	40b98633          	sub	a2,s3,a1
4000b05e:	40f407b3          	sub	a5,s0,a5
4000b062:	00c9b833          	sltu	a6,s3,a2
4000b066:	00f43533          	sltu	a0,s0,a5
4000b06a:	8e09                	sub	a2,a2,a0
4000b06c:	88c2                	mv	a7,a6
4000b06e:	40ec0533          	sub	a0,s8,a4
4000b072:	00ec3733          	sltu	a4,s8,a4
4000b076:	00f47963          	bgeu	s0,a5,4000b088 <__subtf3+0xbfa>
4000b07a:	01359763          	bne	a1,s3,4000b088 <__subtf3+0xbfa>
4000b07e:	fff50593          	addi	a1,a0,-1
4000b082:	00133e13          	seqz	t3,t1
4000b086:	a029                	j	4000b090 <__subtf3+0xc02>
4000b088:	411505b3          	sub	a1,a0,a7
4000b08c:	fe081be3          	bnez	a6,4000b082 <__subtf3+0xbf4>
4000b090:	40db06b3          	sub	a3,s6,a3
4000b094:	00ee6e33          	or	t3,t3,a4
4000b098:	41c68733          	sub	a4,a3,t3
4000b09c:	de3a                	sw	a4,60(sp)
4000b09e:	dc2e                	sw	a1,56(sp)
4000b0a0:	da32                	sw	a2,52(sp)
4000b0a2:	d83e                	sw	a5,48(sp)
4000b0a4:	8aca                	mv	s5,s2
4000b0a6:	5572                	lw	a0,60(sp)
4000b0a8:	c171                	beqz	a0,4000b16c <__subtf3+0xcde>
4000b0aa:	f41f60ef          	jal	ra,40001fea <__clzsi2>
4000b0ae:	1551                	addi	a0,a0,-12
4000b0b0:	02000793          	li	a5,32
4000b0b4:	01f57813          	andi	a6,a0,31
4000b0b8:	02f54733          	div	a4,a0,a5
4000b0bc:	0c080c63          	beqz	a6,4000b194 <__subtf3+0xd06>
4000b0c0:	03010313          	addi	t1,sp,48
4000b0c4:	02f566b3          	rem	a3,a0,a5
4000b0c8:	40d78633          	sub	a2,a5,a3
4000b0cc:	57f1                	li	a5,-4
4000b0ce:	02f707b3          	mul	a5,a4,a5
4000b0d2:	00c78693          	addi	a3,a5,12
4000b0d6:	969a                	add	a3,a3,t1
4000b0d8:	40f007b3          	neg	a5,a5
4000b0dc:	0cd31c63          	bne	t1,a3,4000b1b4 <__subtf3+0xd26>
4000b0e0:	fff70693          	addi	a3,a4,-1
4000b0e4:	070a                	slli	a4,a4,0x2
4000b0e6:	04070793          	addi	a5,a4,64
4000b0ea:	00278733          	add	a4,a5,sp
4000b0ee:	57c2                	lw	a5,48(sp)
4000b0f0:	010797b3          	sll	a5,a5,a6
4000b0f4:	fef72823          	sw	a5,-16(a4)
4000b0f8:	00168713          	addi	a4,a3,1
4000b0fc:	070a                	slli	a4,a4,0x2
4000b0fe:	1814                	addi	a3,sp,48
4000b100:	47a1                	li	a5,8
4000b102:	88b6                	mv	a7,a3
4000b104:	00f76863          	bltu	a4,a5,4000b114 <__subtf3+0xc86>
4000b108:	0006a023          	sw	zero,0(a3)
4000b10c:	0006a223          	sw	zero,4(a3)
4000b110:	1761                	addi	a4,a4,-8
4000b112:	1834                	addi	a3,sp,56
4000b114:	4791                	li	a5,4
4000b116:	00f76463          	bltu	a4,a5,4000b11e <__subtf3+0xc90>
4000b11a:	0006a023          	sw	zero,0(a3)
4000b11e:	14954c63          	blt	a0,s1,4000b276 <__subtf3+0xde8>
4000b122:	8d05                	sub	a0,a0,s1
4000b124:	0505                	addi	a0,a0,1
4000b126:	40555713          	srai	a4,a0,0x5
4000b12a:	01f57793          	andi	a5,a0,31
4000b12e:	85c6                	mv	a1,a7
4000b130:	8646                	mv	a2,a7
4000b132:	4301                	li	t1,0
4000b134:	4681                	li	a3,0
4000b136:	08e69e63          	bne	a3,a4,4000b1d2 <__subtf3+0xd44>
4000b13a:	468d                	li	a3,3
4000b13c:	8e99                	sub	a3,a3,a4
4000b13e:	00271613          	slli	a2,a4,0x2
4000b142:	efd1                	bnez	a5,4000b1de <__subtf3+0xd50>
4000b144:	00c58533          	add	a0,a1,a2
4000b148:	4108                	lw	a0,0(a0)
4000b14a:	0785                	addi	a5,a5,1
4000b14c:	c188                	sw	a0,0(a1)
4000b14e:	0591                	addi	a1,a1,4
4000b150:	fef6dae3          	bge	a3,a5,4000b144 <__subtf3+0xcb6>
4000b154:	4791                	li	a5,4
4000b156:	40e78733          	sub	a4,a5,a4
4000b15a:	a0d1                	j	4000b21e <__subtf3+0xd90>
4000b15c:	01066633          	or	a2,a2,a6
4000b160:	01166633          	or	a2,a2,a7
4000b164:	8e49                	or	a2,a2,a0
4000b166:	d60609e3          	beqz	a2,4000aed8 <__subtf3+0xa4a>
4000b16a:	bf35                	j	4000b0a6 <__subtf3+0xc18>
4000b16c:	5562                	lw	a0,56(sp)
4000b16e:	c511                	beqz	a0,4000b17a <__subtf3+0xcec>
4000b170:	e7bf60ef          	jal	ra,40001fea <__clzsi2>
4000b174:	02050513          	addi	a0,a0,32
4000b178:	bf1d                	j	4000b0ae <__subtf3+0xc20>
4000b17a:	5552                	lw	a0,52(sp)
4000b17c:	c511                	beqz	a0,4000b188 <__subtf3+0xcfa>
4000b17e:	e6df60ef          	jal	ra,40001fea <__clzsi2>
4000b182:	04050513          	addi	a0,a0,64
4000b186:	b725                	j	4000b0ae <__subtf3+0xc20>
4000b188:	5542                	lw	a0,48(sp)
4000b18a:	e61f60ef          	jal	ra,40001fea <__clzsi2>
4000b18e:	06050513          	addi	a0,a0,96
4000b192:	bf31                	j	4000b0ae <__subtf3+0xc20>
4000b194:	5671                	li	a2,-4
4000b196:	02c70633          	mul	a2,a4,a2
4000b19a:	187c                	addi	a5,sp,60
4000b19c:	468d                	li	a3,3
4000b19e:	00c785b3          	add	a1,a5,a2
4000b1a2:	418c                	lw	a1,0(a1)
4000b1a4:	16fd                	addi	a3,a3,-1
4000b1a6:	17f1                	addi	a5,a5,-4
4000b1a8:	c3cc                	sw	a1,4(a5)
4000b1aa:	fee6dae3          	bge	a3,a4,4000b19e <__subtf3+0xd10>
4000b1ae:	fff70693          	addi	a3,a4,-1
4000b1b2:	b799                	j	4000b0f8 <__subtf3+0xc6a>
4000b1b4:	428c                	lw	a1,0(a3)
4000b1b6:	ffc6a883          	lw	a7,-4(a3)
4000b1ba:	00f68e33          	add	t3,a3,a5
4000b1be:	010595b3          	sll	a1,a1,a6
4000b1c2:	00c8d8b3          	srl	a7,a7,a2
4000b1c6:	0115e5b3          	or	a1,a1,a7
4000b1ca:	00be2023          	sw	a1,0(t3)
4000b1ce:	16f1                	addi	a3,a3,-4
4000b1d0:	b731                	j	4000b0dc <__subtf3+0xc4e>
4000b1d2:	4208                	lw	a0,0(a2)
4000b1d4:	0685                	addi	a3,a3,1
4000b1d6:	0611                	addi	a2,a2,4
4000b1d8:	00a36333          	or	t1,t1,a0
4000b1dc:	bfa9                	j	4000b136 <__subtf3+0xca8>
4000b1de:	04060593          	addi	a1,a2,64
4000b1e2:	958a                	add	a1,a1,sp
4000b1e4:	ff05a583          	lw	a1,-16(a1)
4000b1e8:	02000813          	li	a6,32
4000b1ec:	40f80833          	sub	a6,a6,a5
4000b1f0:	010595b3          	sll	a1,a1,a6
4000b1f4:	00b36333          	or	t1,t1,a1
4000b1f8:	4e01                	li	t3,0
4000b1fa:	00c885b3          	add	a1,a7,a2
4000b1fe:	40c00633          	neg	a2,a2
4000b202:	04de4a63          	blt	t3,a3,4000b256 <__subtf3+0xdc8>
4000b206:	4611                	li	a2,4
4000b208:	40e60733          	sub	a4,a2,a4
4000b20c:	5672                	lw	a2,60(sp)
4000b20e:	068a                	slli	a3,a3,0x2
4000b210:	04068693          	addi	a3,a3,64
4000b214:	968a                	add	a3,a3,sp
4000b216:	00f657b3          	srl	a5,a2,a5
4000b21a:	fef6a823          	sw	a5,-16(a3)
4000b21e:	4691                	li	a3,4
4000b220:	8e99                	sub	a3,a3,a4
4000b222:	070a                	slli	a4,a4,0x2
4000b224:	00e887b3          	add	a5,a7,a4
4000b228:	00269713          	slli	a4,a3,0x2
4000b22c:	46a1                	li	a3,8
4000b22e:	00d76863          	bltu	a4,a3,4000b23e <__subtf3+0xdb0>
4000b232:	0007a023          	sw	zero,0(a5)
4000b236:	0007a223          	sw	zero,4(a5)
4000b23a:	1761                	addi	a4,a4,-8
4000b23c:	07a1                	addi	a5,a5,8
4000b23e:	4691                	li	a3,4
4000b240:	00d76463          	bltu	a4,a3,4000b248 <__subtf3+0xdba>
4000b244:	0007a023          	sw	zero,0(a5)
4000b248:	5742                	lw	a4,48(sp)
4000b24a:	006037b3          	snez	a5,t1
4000b24e:	8fd9                	or	a5,a5,a4
4000b250:	d83e                	sw	a5,48(sp)
4000b252:	fb6ff06f          	j	4000aa08 <__subtf3+0x57a>
4000b256:	4188                	lw	a0,0(a1)
4000b258:	0045ae83          	lw	t4,4(a1)
4000b25c:	00c58f33          	add	t5,a1,a2
4000b260:	00f55533          	srl	a0,a0,a5
4000b264:	010e9eb3          	sll	t4,t4,a6
4000b268:	01d56533          	or	a0,a0,t4
4000b26c:	00af2023          	sw	a0,0(t5)
4000b270:	0e05                	addi	t3,t3,1
4000b272:	0591                	addi	a1,a1,4
4000b274:	b779                	j	4000b202 <__subtf3+0xd74>
4000b276:	57f2                	lw	a5,60(sp)
4000b278:	fff80737          	lui	a4,0xfff80
4000b27c:	177d                	addi	a4,a4,-1 # fff7ffff <_bss_lma+0x7ff7f55f>
4000b27e:	8ff9                	and	a5,a5,a4
4000b280:	8c89                	sub	s1,s1,a0
4000b282:	de3e                	sw	a5,60(sp)
4000b284:	ba2ff06f          	j	4000a626 <__subtf3+0x198>
4000b288:	de02                	sw	zero,60(sp)
4000b28a:	dc02                	sw	zero,56(sp)
4000b28c:	da02                	sw	zero,52(sp)
4000b28e:	d802                	sw	zero,48(sp)
4000b290:	be8ff06f          	j	4000a678 <__subtf3+0x1ea>
4000b294:	07400713          	li	a4,116
4000b298:	c6c75c63          	bge	a4,a2,4000a710 <__subtf3+0x282>
4000b29c:	d602                	sw	zero,44(sp)
4000b29e:	d402                	sw	zero,40(sp)
4000b2a0:	d202                	sw	zero,36(sp)
4000b2a2:	4705                	li	a4,1
4000b2a4:	d1eff06f          	j	4000a7c2 <__subtf3+0x334>
4000b2a8:	07400793          	li	a5,116
4000b2ac:	e2b7d463          	bge	a5,a1,4000a8d4 <__subtf3+0x446>
4000b2b0:	ce02                	sw	zero,28(sp)
4000b2b2:	cc02                	sw	zero,24(sp)
4000b2b4:	ca02                	sw	zero,20(sp)
4000b2b6:	4785                	li	a5,1
4000b2b8:	eceff06f          	j	4000a986 <__subtf3+0x4f8>
4000b2bc:	07400793          	li	a5,116
4000b2c0:	ad17d2e3          	bge	a5,a7,4000ad84 <__subtf3+0x8f6>
4000b2c4:	ce02                	sw	zero,28(sp)
4000b2c6:	cc02                	sw	zero,24(sp)
4000b2c8:	ca02                	sw	zero,20(sp)
4000b2ca:	4705                	li	a4,1
4000b2cc:	b695                	j	4000ae30 <__subtf3+0x9a2>

4000b2ce <__fixtfsi>:
4000b2ce:	411c                	lw	a5,0(a0)
4000b2d0:	4150                	lw	a2,4(a0)
4000b2d2:	4558                	lw	a4,12(a0)
4000b2d4:	4514                	lw	a3,8(a0)
4000b2d6:	1101                	addi	sp,sp,-32
4000b2d8:	c03e                	sw	a5,0(sp)
4000b2da:	c232                	sw	a2,4(sp)
4000b2dc:	c83e                	sw	a5,16(sp)
4000b2de:	00171613          	slli	a2,a4,0x1
4000b2e2:	6791                	lui	a5,0x4
4000b2e4:	c436                	sw	a3,8(sp)
4000b2e6:	c63a                	sw	a4,12(sp)
4000b2e8:	cc36                	sw	a3,24(sp)
4000b2ea:	8245                	srli	a2,a2,0x11
4000b2ec:	ffe78593          	addi	a1,a5,-2 # 3ffe <__stack_size+0x3ed2>
4000b2f0:	4501                	li	a0,0
4000b2f2:	00c5dd63          	bge	a1,a2,4000b30c <__fixtfsi+0x3e>
4000b2f6:	01d78593          	addi	a1,a5,29
4000b2fa:	01f75813          	srli	a6,a4,0x1f
4000b2fe:	00c5d963          	bge	a1,a2,4000b310 <__fixtfsi+0x42>
4000b302:	80000537          	lui	a0,0x80000
4000b306:	fff54513          	not	a0,a0
4000b30a:	9542                	add	a0,a0,a6
4000b30c:	6105                	addi	sp,sp,32
4000b30e:	8082                	ret
4000b310:	0742                	slli	a4,a4,0x10
4000b312:	65c1                	lui	a1,0x10
4000b314:	8341                	srli	a4,a4,0x10
4000b316:	06f78793          	addi	a5,a5,111
4000b31a:	8f4d                	or	a4,a4,a1
4000b31c:	8f91                	sub	a5,a5,a2
4000b31e:	4057d613          	srai	a2,a5,0x5
4000b322:	02000593          	li	a1,32
4000b326:	8bfd                	andi	a5,a5,31
4000b328:	ce3a                	sw	a4,28(sp)
4000b32a:	8d9d                	sub	a1,a1,a5
4000b32c:	ef9d                	bnez	a5,4000b36a <__fixtfsi+0x9c>
4000b32e:	060a                	slli	a2,a2,0x2
4000b330:	02060793          	addi	a5,a2,32
4000b334:	00278633          	add	a2,a5,sp
4000b338:	ff062783          	lw	a5,-16(a2)
4000b33c:	c83e                	sw	a5,16(sp)
4000b33e:	4542                	lw	a0,16(sp)
4000b340:	fc0806e3          	beqz	a6,4000b30c <__fixtfsi+0x3e>
4000b344:	40a00533          	neg	a0,a0
4000b348:	b7d1                	j	4000b30c <__fixtfsi+0x3e>
4000b34a:	00f6d6b3          	srl	a3,a3,a5
4000b34e:	00b715b3          	sll	a1,a4,a1
4000b352:	8ecd                	or	a3,a3,a1
4000b354:	c836                	sw	a3,16(sp)
4000b356:	4685                	li	a3,1
4000b358:	068a                	slli	a3,a3,0x2
4000b35a:	02068693          	addi	a3,a3,32
4000b35e:	968a                	add	a3,a3,sp
4000b360:	00f75733          	srl	a4,a4,a5
4000b364:	fee6a823          	sw	a4,-16(a3)
4000b368:	bfd9                	j	4000b33e <__fixtfsi+0x70>
4000b36a:	4509                	li	a0,2
4000b36c:	fca60fe3          	beq	a2,a0,4000b34a <__fixtfsi+0x7c>
4000b370:	4681                	li	a3,0
4000b372:	b7dd                	j	4000b358 <__fixtfsi+0x8a>

4000b374 <__floatsitf>:
4000b374:	7179                	addi	sp,sp,-48
4000b376:	d226                	sw	s1,36(sp)
4000b378:	d606                	sw	ra,44(sp)
4000b37a:	d422                	sw	s0,40(sp)
4000b37c:	d04a                	sw	s2,32(sp)
4000b37e:	84aa                	mv	s1,a0
4000b380:	cdcd                	beqz	a1,4000b43a <__floatsitf+0xc6>
4000b382:	41f5d793          	srai	a5,a1,0x1f
4000b386:	00b7c433          	xor	s0,a5,a1
4000b38a:	8c1d                	sub	s0,s0,a5
4000b38c:	8522                	mv	a0,s0
4000b38e:	01f5d913          	srli	s2,a1,0x1f
4000b392:	c59f60ef          	jal	ra,40001fea <__clzsi2>
4000b396:	05150793          	addi	a5,a0,81 # 80000051 <_bss_lma+0xfffff5b1>
4000b39a:	6611                	lui	a2,0x4
4000b39c:	0679                	addi	a2,a2,30 # 401e <__stack_size+0x3ef2>
4000b39e:	4057d713          	srai	a4,a5,0x5
4000b3a2:	c822                	sw	s0,16(sp)
4000b3a4:	ca02                	sw	zero,20(sp)
4000b3a6:	cc02                	sw	zero,24(sp)
4000b3a8:	ce02                	sw	zero,28(sp)
4000b3aa:	8bfd                	andi	a5,a5,31
4000b3ac:	8e09                	sub	a2,a2,a0
4000b3ae:	c78d                	beqz	a5,4000b3d8 <__floatsitf+0x64>
4000b3b0:	4689                	li	a3,2
4000b3b2:	08d71263          	bne	a4,a3,4000b436 <__floatsitf+0xc2>
4000b3b6:	02000693          	li	a3,32
4000b3ba:	8e9d                	sub	a3,a3,a5
4000b3bc:	00d456b3          	srl	a3,s0,a3
4000b3c0:	ce36                	sw	a3,28(sp)
4000b3c2:	fff70693          	addi	a3,a4,-1
4000b3c6:	070a                	slli	a4,a4,0x2
4000b3c8:	02070713          	addi	a4,a4,32
4000b3cc:	970a                	add	a4,a4,sp
4000b3ce:	00f41433          	sll	s0,s0,a5
4000b3d2:	fe872823          	sw	s0,-16(a4)
4000b3d6:	a005                	j	4000b3f6 <__floatsitf+0x82>
4000b3d8:	478d                	li	a5,3
4000b3da:	8f99                	sub	a5,a5,a4
4000b3dc:	078a                	slli	a5,a5,0x2
4000b3de:	02078793          	addi	a5,a5,32
4000b3e2:	978a                	add	a5,a5,sp
4000b3e4:	ff07a783          	lw	a5,-16(a5)
4000b3e8:	4689                	li	a3,2
4000b3ea:	ce3e                	sw	a5,28(sp)
4000b3ec:	4789                	li	a5,2
4000b3ee:	00f71463          	bne	a4,a5,4000b3f6 <__floatsitf+0x82>
4000b3f2:	cc22                	sw	s0,24(sp)
4000b3f4:	4685                	li	a3,1
4000b3f6:	068a                	slli	a3,a3,0x2
4000b3f8:	c802                	sw	zero,16(sp)
4000b3fa:	ca02                	sw	zero,20(sp)
4000b3fc:	16f1                	addi	a3,a3,-4
4000b3fe:	4791                	li	a5,4
4000b400:	00f6e363          	bltu	a3,a5,4000b406 <__floatsitf+0x92>
4000b404:	cc02                	sw	zero,24(sp)
4000b406:	85ca                	mv	a1,s2
4000b408:	47f2                	lw	a5,28(sp)
4000b40a:	00f59413          	slli	s0,a1,0xf
4000b40e:	8c51                	or	s0,s0,a2
4000b410:	00811723          	sh	s0,14(sp)
4000b414:	00f11623          	sh	a5,12(sp)
4000b418:	4542                	lw	a0,16(sp)
4000b41a:	46d2                	lw	a3,20(sp)
4000b41c:	4762                	lw	a4,24(sp)
4000b41e:	47b2                	lw	a5,12(sp)
4000b420:	50b2                	lw	ra,44(sp)
4000b422:	5422                	lw	s0,40(sp)
4000b424:	c088                	sw	a0,0(s1)
4000b426:	c0d4                	sw	a3,4(s1)
4000b428:	c498                	sw	a4,8(s1)
4000b42a:	c4dc                	sw	a5,12(s1)
4000b42c:	5902                	lw	s2,32(sp)
4000b42e:	8526                	mv	a0,s1
4000b430:	5492                	lw	s1,36(sp)
4000b432:	6145                	addi	sp,sp,48
4000b434:	8082                	ret
4000b436:	470d                	li	a4,3
4000b438:	b769                	j	4000b3c2 <__floatsitf+0x4e>
4000b43a:	ce02                	sw	zero,28(sp)
4000b43c:	cc02                	sw	zero,24(sp)
4000b43e:	ca02                	sw	zero,20(sp)
4000b440:	c802                	sw	zero,16(sp)
4000b442:	4601                	li	a2,0
4000b444:	b7d1                	j	4000b408 <__floatsitf+0x94>

4000b446 <__extenddftf2>:
4000b446:	01465713          	srli	a4,a2,0x14
4000b44a:	00c61793          	slli	a5,a2,0xc
4000b44e:	7ff77713          	andi	a4,a4,2047
4000b452:	7179                	addi	sp,sp,-48
4000b454:	83b1                	srli	a5,a5,0xc
4000b456:	00170693          	addi	a3,a4,1
4000b45a:	d422                	sw	s0,40(sp)
4000b45c:	d226                	sw	s1,36(sp)
4000b45e:	d04a                	sw	s2,32(sp)
4000b460:	d606                	sw	ra,44(sp)
4000b462:	c82e                	sw	a1,16(sp)
4000b464:	ca3e                	sw	a5,20(sp)
4000b466:	ce02                	sw	zero,28(sp)
4000b468:	cc02                	sw	zero,24(sp)
4000b46a:	7fe6f693          	andi	a3,a3,2046
4000b46e:	892a                	mv	s2,a0
4000b470:	842e                	mv	s0,a1
4000b472:	01f65493          	srli	s1,a2,0x1f
4000b476:	cab9                	beqz	a3,4000b4cc <__extenddftf2+0x86>
4000b478:	6691                	lui	a3,0x4
4000b47a:	c0068693          	addi	a3,a3,-1024 # 3c00 <__stack_size+0x3ad4>
4000b47e:	9736                	add	a4,a4,a3
4000b480:	0047d693          	srli	a3,a5,0x4
4000b484:	ce36                	sw	a3,28(sp)
4000b486:	07f2                	slli	a5,a5,0x1c
4000b488:	0045d693          	srli	a3,a1,0x4
4000b48c:	8fd5                	or	a5,a5,a3
4000b48e:	01c59413          	slli	s0,a1,0x1c
4000b492:	cc3e                	sw	a5,24(sp)
4000b494:	ca22                	sw	s0,20(sp)
4000b496:	c802                	sw	zero,16(sp)
4000b498:	47f2                	lw	a5,28(sp)
4000b49a:	04be                	slli	s1,s1,0xf
4000b49c:	8cd9                	or	s1,s1,a4
4000b49e:	00911723          	sh	s1,14(sp)
4000b4a2:	00f11623          	sh	a5,12(sp)
4000b4a6:	45c2                	lw	a1,16(sp)
4000b4a8:	4652                	lw	a2,20(sp)
4000b4aa:	46e2                	lw	a3,24(sp)
4000b4ac:	47b2                	lw	a5,12(sp)
4000b4ae:	50b2                	lw	ra,44(sp)
4000b4b0:	5422                	lw	s0,40(sp)
4000b4b2:	00b92023          	sw	a1,0(s2)
4000b4b6:	00c92223          	sw	a2,4(s2)
4000b4ba:	00d92423          	sw	a3,8(s2)
4000b4be:	00f92623          	sw	a5,12(s2)
4000b4c2:	5492                	lw	s1,36(sp)
4000b4c4:	854a                	mv	a0,s2
4000b4c6:	5902                	lw	s2,32(sp)
4000b4c8:	6145                	addi	sp,sp,48
4000b4ca:	8082                	ret
4000b4cc:	00b7e533          	or	a0,a5,a1
4000b4d0:	e369                	bnez	a4,4000b592 <__extenddftf2+0x14c>
4000b4d2:	d179                	beqz	a0,4000b498 <__extenddftf2+0x52>
4000b4d4:	c7a9                	beqz	a5,4000b51e <__extenddftf2+0xd8>
4000b4d6:	853e                	mv	a0,a5
4000b4d8:	b13f60ef          	jal	ra,40001fea <__clzsi2>
4000b4dc:	03150693          	addi	a3,a0,49
4000b4e0:	4056d793          	srai	a5,a3,0x5
4000b4e4:	8afd                	andi	a3,a3,31
4000b4e6:	c2a9                	beqz	a3,4000b528 <__extenddftf2+0xe2>
4000b4e8:	5671                	li	a2,-4
4000b4ea:	02c78633          	mul	a2,a5,a2
4000b4ee:	02000813          	li	a6,32
4000b4f2:	01010313          	addi	t1,sp,16
4000b4f6:	40d80833          	sub	a6,a6,a3
4000b4fa:	00c60713          	addi	a4,a2,12
4000b4fe:	971a                	add	a4,a4,t1
4000b500:	40c00633          	neg	a2,a2
4000b504:	06e31863          	bne	t1,a4,4000b574 <__extenddftf2+0x12e>
4000b508:	fff78713          	addi	a4,a5,-1
4000b50c:	078a                	slli	a5,a5,0x2
4000b50e:	02078793          	addi	a5,a5,32
4000b512:	978a                	add	a5,a5,sp
4000b514:	00d416b3          	sll	a3,s0,a3
4000b518:	fed7a823          	sw	a3,-16(a5)
4000b51c:	a02d                	j	4000b546 <__extenddftf2+0x100>
4000b51e:	acdf60ef          	jal	ra,40001fea <__clzsi2>
4000b522:	02050513          	addi	a0,a0,32
4000b526:	bf5d                	j	4000b4dc <__extenddftf2+0x96>
4000b528:	5671                	li	a2,-4
4000b52a:	02c78633          	mul	a2,a5,a2
4000b52e:	0878                	addi	a4,sp,28
4000b530:	468d                	li	a3,3
4000b532:	00c705b3          	add	a1,a4,a2
4000b536:	418c                	lw	a1,0(a1)
4000b538:	16fd                	addi	a3,a3,-1
4000b53a:	1771                	addi	a4,a4,-4
4000b53c:	c34c                	sw	a1,4(a4)
4000b53e:	fef6dae3          	bge	a3,a5,4000b532 <__extenddftf2+0xec>
4000b542:	fff78713          	addi	a4,a5,-1
4000b546:	00170793          	addi	a5,a4,1
4000b54a:	078a                	slli	a5,a5,0x2
4000b54c:	46a1                	li	a3,8
4000b54e:	0818                	addi	a4,sp,16
4000b550:	00d7e863          	bltu	a5,a3,4000b560 <__extenddftf2+0x11a>
4000b554:	00072023          	sw	zero,0(a4)
4000b558:	00072223          	sw	zero,4(a4)
4000b55c:	17e1                	addi	a5,a5,-8
4000b55e:	0838                	addi	a4,sp,24
4000b560:	4691                	li	a3,4
4000b562:	00d7e463          	bltu	a5,a3,4000b56a <__extenddftf2+0x124>
4000b566:	00072023          	sw	zero,0(a4)
4000b56a:	6711                	lui	a4,0x4
4000b56c:	c0c70713          	addi	a4,a4,-1012 # 3c0c <__stack_size+0x3ae0>
4000b570:	8f09                	sub	a4,a4,a0
4000b572:	b71d                	j	4000b498 <__extenddftf2+0x52>
4000b574:	430c                	lw	a1,0(a4)
4000b576:	ffc72883          	lw	a7,-4(a4)
4000b57a:	00c70e33          	add	t3,a4,a2
4000b57e:	00d595b3          	sll	a1,a1,a3
4000b582:	0108d8b3          	srl	a7,a7,a6
4000b586:	0115e5b3          	or	a1,a1,a7
4000b58a:	00be2023          	sw	a1,0(t3)
4000b58e:	1771                	addi	a4,a4,-4
4000b590:	bf95                	j	4000b504 <__extenddftf2+0xbe>
4000b592:	cd19                	beqz	a0,4000b5b0 <__extenddftf2+0x16a>
4000b594:	01c79713          	slli	a4,a5,0x1c
4000b598:	0045d693          	srli	a3,a1,0x4
4000b59c:	8f55                	or	a4,a4,a3
4000b59e:	cc3a                	sw	a4,24(sp)
4000b5a0:	8391                	srli	a5,a5,0x4
4000b5a2:	6721                	lui	a4,0x8
4000b5a4:	01c59413          	slli	s0,a1,0x1c
4000b5a8:	8fd9                	or	a5,a5,a4
4000b5aa:	ca22                	sw	s0,20(sp)
4000b5ac:	c802                	sw	zero,16(sp)
4000b5ae:	ce3e                	sw	a5,28(sp)
4000b5b0:	6721                	lui	a4,0x8
4000b5b2:	177d                	addi	a4,a4,-1 # 7fff <__stack_size+0x7ed3>
4000b5b4:	b5d5                	j	4000b498 <__extenddftf2+0x52>

4000b5b6 <__trunctfdf2>:
4000b5b6:	454c                	lw	a1,12(a0)
4000b5b8:	451c                	lw	a5,8(a0)
4000b5ba:	4114                	lw	a3,0(a0)
4000b5bc:	4158                	lw	a4,4(a0)
4000b5be:	1101                	addi	sp,sp,-32
4000b5c0:	c43e                	sw	a5,8(sp)
4000b5c2:	cc3e                	sw	a5,24(sp)
4000b5c4:	01059793          	slli	a5,a1,0x10
4000b5c8:	83c1                	srli	a5,a5,0x10
4000b5ca:	c036                	sw	a3,0(sp)
4000b5cc:	c23a                	sw	a4,4(sp)
4000b5ce:	c836                	sw	a3,16(sp)
4000b5d0:	ca3a                	sw	a4,20(sp)
4000b5d2:	00159693          	slli	a3,a1,0x1
4000b5d6:	0818                	addi	a4,sp,16
4000b5d8:	c62e                	sw	a1,12(sp)
4000b5da:	ce3e                	sw	a5,28(sp)
4000b5dc:	82c5                	srli	a3,a3,0x11
4000b5de:	81fd                	srli	a1,a1,0x1f
4000b5e0:	00410893          	addi	a7,sp,4
4000b5e4:	87ba                	mv	a5,a4
4000b5e6:	883a                	mv	a6,a4
4000b5e8:	47d0                	lw	a2,12(a5)
4000b5ea:	4788                	lw	a0,8(a5)
4000b5ec:	17f1                	addi	a5,a5,-4
4000b5ee:	060e                	slli	a2,a2,0x3
4000b5f0:	8175                	srli	a0,a0,0x1d
4000b5f2:	8e49                	or	a2,a2,a0
4000b5f4:	cb90                	sw	a2,16(a5)
4000b5f6:	ff1799e3          	bne	a5,a7,4000b5e8 <__trunctfdf2+0x32>
4000b5fa:	4542                	lw	a0,16(sp)
4000b5fc:	6621                	lui	a2,0x8
4000b5fe:	00168793          	addi	a5,a3,1
4000b602:	050e                	slli	a0,a0,0x3
4000b604:	1679                	addi	a2,a2,-2 # 7ffe <__stack_size+0x7ed2>
4000b606:	c82a                	sw	a0,16(sp)
4000b608:	8ff1                	and	a5,a5,a2
4000b60a:	18078a63          	beqz	a5,4000b79e <__trunctfdf2+0x1e8>
4000b60e:	77f1                	lui	a5,0xffffc
4000b610:	40078793          	addi	a5,a5,1024 # ffffc400 <_bss_lma+0x7fffb960>
4000b614:	96be                	add	a3,a3,a5
4000b616:	7fe00793          	li	a5,2046
4000b61a:	1cd7ce63          	blt	a5,a3,4000b7f6 <__trunctfdf2+0x240>
4000b61e:	08d05763          	blez	a3,4000b6ac <__trunctfdf2+0xf6>
4000b622:	4662                	lw	a2,24(sp)
4000b624:	47f2                	lw	a5,28(sp)
4000b626:	4752                	lw	a4,20(sp)
4000b628:	01c65813          	srli	a6,a2,0x1c
4000b62c:	0792                	slli	a5,a5,0x4
4000b62e:	0107e7b3          	or	a5,a5,a6
4000b632:	ca3e                	sw	a5,20(sp)
4000b634:	00471793          	slli	a5,a4,0x4
4000b638:	8fc9                	or	a5,a5,a0
4000b63a:	8371                	srli	a4,a4,0x1c
4000b63c:	0612                	slli	a2,a2,0x4
4000b63e:	00f037b3          	snez	a5,a5
4000b642:	8f51                	or	a4,a4,a2
4000b644:	8fd9                	or	a5,a5,a4
4000b646:	4752                	lw	a4,20(sp)
4000b648:	0077f613          	andi	a2,a5,7
4000b64c:	ce01                	beqz	a2,4000b664 <__trunctfdf2+0xae>
4000b64e:	00f7f613          	andi	a2,a5,15
4000b652:	4511                	li	a0,4
4000b654:	00a60863          	beq	a2,a0,4000b664 <__trunctfdf2+0xae>
4000b658:	00478613          	addi	a2,a5,4
4000b65c:	00f63533          	sltu	a0,a2,a5
4000b660:	972a                	add	a4,a4,a0
4000b662:	87b2                	mv	a5,a2
4000b664:	00800637          	lui	a2,0x800
4000b668:	8e79                	and	a2,a2,a4
4000b66a:	16060463          	beqz	a2,4000b7d2 <__trunctfdf2+0x21c>
4000b66e:	ff800537          	lui	a0,0xff800
4000b672:	157d                	addi	a0,a0,-1 # ff7fffff <_bss_lma+0x7f7ff55f>
4000b674:	0685                	addi	a3,a3,1
4000b676:	7ff00813          	li	a6,2047
4000b67a:	8d79                	and	a0,a0,a4
4000b67c:	4601                	li	a2,0
4000b67e:	4701                	li	a4,0
4000b680:	01068863          	beq	a3,a6,4000b690 <__trunctfdf2+0xda>
4000b684:	838d                	srli	a5,a5,0x3
4000b686:	01d51613          	slli	a2,a0,0x1d
4000b68a:	8e5d                	or	a2,a2,a5
4000b68c:	00355713          	srli	a4,a0,0x3
4000b690:	7ff007b7          	lui	a5,0x7ff00
4000b694:	06d2                	slli	a3,a3,0x14
4000b696:	0732                	slli	a4,a4,0xc
4000b698:	8efd                	and	a3,a3,a5
4000b69a:	8331                	srli	a4,a4,0xc
4000b69c:	05fe                	slli	a1,a1,0x1f
4000b69e:	8ed9                	or	a3,a3,a4
4000b6a0:	00b6e7b3          	or	a5,a3,a1
4000b6a4:	8532                	mv	a0,a2
4000b6a6:	85be                	mv	a1,a5
4000b6a8:	6105                	addi	sp,sp,32
4000b6aa:	8082                	ret
4000b6ac:	fcc00793          	li	a5,-52
4000b6b0:	10f6ce63          	blt	a3,a5,4000b7cc <__trunctfdf2+0x216>
4000b6b4:	47f2                	lw	a5,28(sp)
4000b6b6:	00080eb7          	lui	t4,0x80
4000b6ba:	88ba                	mv	a7,a4
4000b6bc:	00feeeb3          	or	t4,t4,a5
4000b6c0:	03d00793          	li	a5,61
4000b6c4:	40d786b3          	sub	a3,a5,a3
4000b6c8:	4056d613          	srai	a2,a3,0x5
4000b6cc:	ce76                	sw	t4,28(sp)
4000b6ce:	8afd                	andi	a3,a3,31
4000b6d0:	4501                	li	a0,0
4000b6d2:	4781                	li	a5,0
4000b6d4:	0008a303          	lw	t1,0(a7)
4000b6d8:	0505                	addi	a0,a0,1
4000b6da:	0891                	addi	a7,a7,4
4000b6dc:	0067e7b3          	or	a5,a5,t1
4000b6e0:	fea61ae3          	bne	a2,a0,4000b6d4 <__trunctfdf2+0x11e>
4000b6e4:	450d                	li	a0,3
4000b6e6:	8d11                	sub	a0,a0,a2
4000b6e8:	00261893          	slli	a7,a2,0x2
4000b6ec:	ee99                	bnez	a3,4000b70a <__trunctfdf2+0x154>
4000b6ee:	01170333          	add	t1,a4,a7
4000b6f2:	00032303          	lw	t1,0(t1)
4000b6f6:	0685                	addi	a3,a3,1
4000b6f8:	00672023          	sw	t1,0(a4)
4000b6fc:	0711                	addi	a4,a4,4
4000b6fe:	fed558e3          	bge	a0,a3,4000b6ee <__trunctfdf2+0x138>
4000b702:	4711                	li	a4,4
4000b704:	40c70633          	sub	a2,a4,a2
4000b708:	a081                	j	4000b748 <__trunctfdf2+0x192>
4000b70a:	02088313          	addi	t1,a7,32
4000b70e:	930a                	add	t1,t1,sp
4000b710:	ff032303          	lw	t1,-16(t1)
4000b714:	02000e13          	li	t3,32
4000b718:	40de0e33          	sub	t3,t3,a3
4000b71c:	01c31333          	sll	t1,t1,t3
4000b720:	9746                	add	a4,a4,a7
4000b722:	0067e7b3          	or	a5,a5,t1
4000b726:	411008b3          	neg	a7,a7
4000b72a:	4f01                	li	t5,0
4000b72c:	04af4863          	blt	t5,a0,4000b77c <__trunctfdf2+0x1c6>
4000b730:	4711                	li	a4,4
4000b732:	050a                	slli	a0,a0,0x2
4000b734:	40c70633          	sub	a2,a4,a2
4000b738:	02050713          	addi	a4,a0,32
4000b73c:	00270533          	add	a0,a4,sp
4000b740:	00ded733          	srl	a4,t4,a3
4000b744:	fee52823          	sw	a4,-16(a0)
4000b748:	4711                	li	a4,4
4000b74a:	8f11                	sub	a4,a4,a2
4000b74c:	060a                	slli	a2,a2,0x2
4000b74e:	00c806b3          	add	a3,a6,a2
4000b752:	070a                	slli	a4,a4,0x2
4000b754:	4621                	li	a2,8
4000b756:	00c76863          	bltu	a4,a2,4000b766 <__trunctfdf2+0x1b0>
4000b75a:	0006a023          	sw	zero,0(a3)
4000b75e:	0006a223          	sw	zero,4(a3)
4000b762:	1761                	addi	a4,a4,-8
4000b764:	06a1                	addi	a3,a3,8
4000b766:	4611                	li	a2,4
4000b768:	00c76463          	bltu	a4,a2,4000b770 <__trunctfdf2+0x1ba>
4000b76c:	0006a023          	sw	zero,0(a3)
4000b770:	4742                	lw	a4,16(sp)
4000b772:	00f037b3          	snez	a5,a5
4000b776:	4681                	li	a3,0
4000b778:	8fd9                	or	a5,a5,a4
4000b77a:	b5f1                	j	4000b646 <__trunctfdf2+0x90>
4000b77c:	00072303          	lw	t1,0(a4)
4000b780:	00472f83          	lw	t6,4(a4)
4000b784:	011702b3          	add	t0,a4,a7
4000b788:	00d35333          	srl	t1,t1,a3
4000b78c:	01cf9fb3          	sll	t6,t6,t3
4000b790:	01f36333          	or	t1,t1,t6
4000b794:	0062a023          	sw	t1,0(t0)
4000b798:	0f05                	addi	t5,t5,1
4000b79a:	0711                	addi	a4,a4,4
4000b79c:	bf41                	j	4000b72c <__trunctfdf2+0x176>
4000b79e:	ceb1                	beqz	a3,4000b7fa <__trunctfdf2+0x244>
4000b7a0:	47d2                	lw	a5,20(sp)
4000b7a2:	4762                	lw	a4,24(sp)
4000b7a4:	46f2                	lw	a3,28(sp)
4000b7a6:	00f76633          	or	a2,a4,a5
4000b7aa:	8e55                	or	a2,a2,a3
4000b7ac:	8e49                	or	a2,a2,a0
4000b7ae:	ca29                	beqz	a2,4000b800 <__trunctfdf2+0x24a>
4000b7b0:	00471613          	slli	a2,a4,0x4
4000b7b4:	0692                	slli	a3,a3,0x4
4000b7b6:	83f1                	srli	a5,a5,0x1c
4000b7b8:	8371                	srli	a4,a4,0x1c
4000b7ba:	8f55                	or	a4,a4,a3
4000b7bc:	8fd1                	or	a5,a5,a2
4000b7be:	004006b7          	lui	a3,0x400
4000b7c2:	8f55                	or	a4,a4,a3
4000b7c4:	9be1                	andi	a5,a5,-8
4000b7c6:	7ff00693          	li	a3,2047
4000b7ca:	bdbd                	j	4000b648 <__trunctfdf2+0x92>
4000b7cc:	4681                	li	a3,0
4000b7ce:	4795                	li	a5,5
4000b7d0:	4701                	li	a4,0
4000b7d2:	838d                	srli	a5,a5,0x3
4000b7d4:	01d71613          	slli	a2,a4,0x1d
4000b7d8:	8e5d                	or	a2,a2,a5
4000b7da:	7ff00793          	li	a5,2047
4000b7de:	830d                	srli	a4,a4,0x3
4000b7e0:	eaf698e3          	bne	a3,a5,4000b690 <__trunctfdf2+0xda>
4000b7e4:	8e59                	or	a2,a2,a4
4000b7e6:	4701                	li	a4,0
4000b7e8:	ea0604e3          	beqz	a2,4000b690 <__trunctfdf2+0xda>
4000b7ec:	00080737          	lui	a4,0x80
4000b7f0:	4601                	li	a2,0
4000b7f2:	4581                	li	a1,0
4000b7f4:	bd71                	j	4000b690 <__trunctfdf2+0xda>
4000b7f6:	7ff00693          	li	a3,2047
4000b7fa:	4701                	li	a4,0
4000b7fc:	4601                	li	a2,0
4000b7fe:	bd49                	j	4000b690 <__trunctfdf2+0xda>
4000b800:	4701                	li	a4,0
4000b802:	7ff00693          	li	a3,2047
4000b806:	b569                	j	4000b690 <__trunctfdf2+0xda>
